cnumpy.core.multiarray
_reconstruct
p1
(cnumpy
ndarray
p2
(I0
tS'b'
tRp3
(I1
(I10
I10
tcnumpy
dtype
p4
(S'O8'
I0
I1
tRp5
(I3
S'|'
NNNI-1
I-1
I63
tbI00
(lp6
ccopy_reg
_reconstructor
p7
(cmpmath.ctx_mp_python
mpf
p8
c__builtin__
object
p9
NtRp10
(I0
S'24922d9cf6832cb52aeddc5b4943bd4ad08905b71397e8372b3b811dd5308138450c0524478eded1a44a1c8385742a69bd4121c0859d5e43eac319dba2a2f6a23413f7c3ee22c1b55f94b739f0f980d6b3f85c7L'
I-794
I666
tbag7
(g8
g9
NtRp11
(I1
S'3410b9c47db45323c0ecb8c2aa57aa6a453e2c329dd9e1d0825b50444cbf4ea2e6d9855002556106b214e3c7f662cba56c079c0081ee44c5d0b0ea1d37a286a78880374970d81c26d2c4920f35f2a86dcd2271dL'
I-796
I666
tbag7
(g8
g9
NtRp12
(I0
S'e6203791d5cc628ac2807755525c8f48644c4393ce0b598b217ccb18ef1250a8b23029574d8383f4abc1574eb94bebfe9a91aca7c857f4d910cdf5a4a5580610498977ea2c99c5da6c3719fd54a02aca9f56123L'
I-798
I668
tbag7
(g8
g9
NtRp13
(I0
S'54f7eb82890e6716e3ce10897c053d5be212fc4514369693dabd9c361812dd7b0b4af77f8ebcb69c2a299e6115b06a2b01f0e51fed5f446e3a2e5439296a2215335d493d7f0d2dc1230799d2892c279cd06640fL'
I-800
I667
tbag7
(g8
g9
NtRp14
(I1
S'51cfe8e05b2dd4914429cd8f7e3750bcbdb158ef73949c0fdf89cdc345aae1a455720251abd7086788bdc3565f07c501b7684e371b6ca11b985b2dfcda9b43b340cdd73795b04e18e908fae70db1639be7c68cfL'
I-798
I667
tbag7
(g8
g9
NtRp15
(I0
S'a97b9fe0055c769d7fb04a31307404424fafc521991dea654d5110358217706a1e0f29a0a3d9770760793c06660cae3794e5eacad292f5f9427d52b8515230ce91cc7f34cb5f89d087877b41e20592a90a29d93L'
I-799
I668
tbag7
(g8
g9
NtRp16
(I0
S'2bff1201e354404fe23995f157a0d4c0f3e26f266bac1da5ebb6305662c8ea6fdf804db4a4241d0906d5a8f33dbcc01163a60c3cf43d367a83327d20ae604e4938cf645b60484d32cda8d784bd5b98f7f80398fL'
I-798
I666
tbag7
(g8
g9
NtRp17
(I0
S'afe6230e47a2112c7308fae6b2b1d54db24f998662f8de3e2774960d00b2731d4a59a8d33e11015248c84bd726e679622d93eee9771f7c833fd4b81b1225430ff66e0a37e609787411d9e8aaf2de1d57036cf0dL'
I-798
I668
tbag7
(g8
g9
NtRp18
(I1
S'205a4f490d29dc8e0fbc00d7fbe8a8d492ef86efdf8827c59812a5788f13588143a4315223c355c6bc4bc5ba6484b0904096f80a0c91c82393f850a969cead3ac9ba209927593215def15b5c4d544fda415f531L'
I-799
I666
tbag7
(g8
g9
NtRp19
(I1
S'a812fb925a0b21aae86e6458c445e1d8873ff459b0d5947f83a280d80f407fb6f65392477823eb8ef7eb2419ef4390d66f8f1f378a0ce934c79f932adc56ab5b93f2d606723724f37aad0ef338f1a885da6c95fL'
I-799
I668
tbag7
(g8
g9
NtRp20
(I1
S'3410b9c47db45323c0ecb8c2aa57aa6a453e2c329dd9e1d0825b50444cbf4ea2e6d9855002556106b214e3c7f662cba56c079c0081ee44c5d0b0ea1d37a286a78880374970d81c26d2c4920f35f2a86dcd2271dL'
I-796
I666
tbag7
(g8
g9
NtRp21
(I0
S'8015d7b222ec8453285a13c40e7fbc34726ca8f47c164d5a84d4895eabeb84f5ac63efa70ebd1a9f505a98d39c24f1a52f1cac78f50724e38f8856fafcb6f0ab62a5869c446c9270f61fd9068697e1b9023623fL'
I-797
I668
tbag7
(g8
g9
NtRp22
(I1
S'be3ee7b547f6421bdb3a971109e50b0e2815157c148832af23579de9feed4693780d5ab27aecc549b0049c6c19758ef1e2c413d4799c25e44d0b3dffa4beccb2cef65ef59c8e36deacd2f39ec36c2379562d557L'
I-800
I668
tbag7
(g8
g9
NtRp23
(I1
S'4879739e817b924054fc8746bcffdc0ef3224ccdae62a9c799fbb37357484c510d821d0cc0abfae85b2d55eeed4eaf200f370ecc40149384a5fd71fc90c2bbb415c2f6dd5e34cae8ac84211a914dc3f3784a613L'
I-798
I667
tbag7
(g8
g9
NtRp24
(I0
S'b70abc5feb0ab1671ab3787b5e562fde78317fd2ecaa338ac6a07a4b98bd590da763024a3908c0db7cf9e6fe370b08d53bc17fd133b5f6185d9c3ab67ed07f01fd9afde89aad957cb213db2cb813c7a53e3ad5bL'
I-798
I668
tbag7
(g8
g9
NtRp25
(I1
S'46ba55ca08381e998fff3f921eeb86ffcdaad44630c6ff87182257a7705f663e128d2a54a2ea9010d1f793d79a8e59dc337c7164251d528ddf5bda4b77831e80679b61ab976767841cb2c86e5a387891067f02dL'
I-799
I667
tbag7
(g8
g9
NtRp26
(I1
S'201bf0a3e150199c2bda2163b1dba9b68606bee0e9fff6ef963bed7fcc210debd1f6951c9bdf9632b2cc7105eec810375ae5b3d4bbac7e6aa62759b2175991c5a946a6653a7e3ac5e32dec7d4e9a90113c4b103L'
I-797
I666
tbag7
(g8
g9
NtRp27
(I1
S'4a113bf55d71ff69e69710b9a3df147fd5023e7be551e003c340a37e52e02e908e10905cc46f6d21bf40f2e4ccf37b649176a329fa3910bd43d0d243e9f52dbbc36721146cc14da852e0a800ac159781bbf4647L'
I-798
I667
tbag7
(g8
g9
NtRp28
(I1
S'71c261f3208d14ca07abbc4fb41c294217b1c85c92cf9b87290b49f936202810512935cfed298949a94a42653911d0ddf194b294e365aeac8d9d783ef3dc3aef651897a398527a435eeb20e4726e650d8763fd1L'
I-800
I667
tbag7
(g8
g9
NtRp29
(I1
S'251074751a238fb3989994ce3f12feb2c9c9f04f1e014a8db84dac3f1e696b649fa5dfa523eca6845615bdcdb811b2a6a97470bfdfcc93e61064e40a698dc7305019e87f955360fcc759eedb9cfa7979a7a88abL'
I-800
I666
tbag7
(g8
g9
NtRp30
(I0
S'e6203791d5cc628ac2807755525c8f48644c4393ce0b598b217ccb18ef1250a8b23029574d8383f4abc1574eb94bebfe9a91aca7c857f4d910cdf5a4a5580610498977ea2c99c5da6c3719fd54a02aca9f56123L'
I-798
I668
tbag7
(g8
g9
NtRp31
(I1
S'be3ee7b547f6421bdb3a971109e50b0e2815157c148832af23579de9feed4693780d5ab27aecc549b0049c6c19758ef1e2c413d4799c25e44d0b3dffa4beccb2cef65ef59c8e36deacd2f39ec36c2379562d557L'
I-800
I668
tbag7
(g8
g9
NtRp32
(I0
S'ca9fc74ed6b35cf3dea87652e7c9f67baac2cdcd82a26000e1639ae3d0c654146ec69670d29980dfbbd889de152edc54549707e23786eba563f4350697d089c3113b65f1502f464299d07dad26e32fd7838d8a9L'
I-797
I668
tbag7
(g8
g9
NtRp33
(I1
S'1a2916caf51430577ac4be33e2f83a5e6054bd606b368708ad8621becdf1a833f5b9670c1efea1394d1dbf7cd472e2af31938f71b34882cae72341cfea1255540aa37d47050edbfee9c317050d5aca54be97fa1L'
I-795
I665
tbag7
(g8
g9
NtRp34
(I1
S'8704d6b97918c60ff038b7e34f33e11121c9829a8c4fd2c53737a9b9c6e6b7d42c1dcc9fed8b8e272e4e0e74570cdd22b4a57dc276ce1e7ecd3737d4ab0fa1b81e8c72517ac4bbb4ffd06b0804daaa02817eabL'
I-796
I664
tbag7
(g8
g9
NtRp35
(I0
S'e7feeed7150daf41b02d0e07cf4d1f93a33f5b70c0690d238946096c4311d0e9ceb18f86c6dd33b3a8de967167eca0b9e1f3c5c7514c1ea89004a9fe79a0e410d9b8fcaf8ac994c1abe8a3e6ba1598778818501L'
I-798
I668
tbag7
(g8
g9
NtRp36
(I0
S'd2f13cc2e493fa42660c9e6cd711acacf4cd086fdd491625c1ee95d95f04310bc15e7327fb0e7c9c1731baca579adc6289099d2758352346fab2c0c02ca0befae50e66d69f14a3c67c4df9eadc8c3e920f465bbL'
I-800
I668
tbag7
(g8
g9
NtRp37
(I1
S'9da63ba14f25b921be9189430f5ff904dc9f5a561c1b6ffd18da1dce47a1afebc54654685e21d4e44e2e23d53535daca9fd56ab7c3d53cbe53d77258766ee3cc64e4214de40b1b47f53ef8dbe92c8a6e66ee771L'
I-798
I668
tbag7
(g8
g9
NtRp38
(I1
S'2dd64913077ec5a2d1c7fadf0ad3425a8f586eb770152c15b07988ac7f8753c5eaf97d626eb8a1e9142260fdc1921c5240dcb6363c9d16e05c902b471a9e6780720f635dcf3c4f244064cd6496b275b81177fa5L'
I-796
I666
tbag7
(g8
g9
NtRp39
(I1
S'b23e5811c011c0835915c1d597764be7708cfaf2e336732dc4c1a697bb1917126b413dfe01e32a54e05d4a03dfb06663ac8dcfebef3e463de339c3e9d8fddcadad7cdf176230f13ca3a6f16dff8a67c7c1c8a63L'
I-800
I668
tbag7
(g8
g9
NtRp40
(I0
S'54f7eb82890e6716e3ce10897c053d5be212fc4514369693dabd9c361812dd7b0b4af77f8ebcb69c2a299e6115b06a2b01f0e51fed5f446e3a2e5439296a2215335d493d7f0d2dc1230799d2892c279cd06640fL'
I-800
I667
tbag7
(g8
g9
NtRp41
(I1
S'4879739e817b924054fc8746bcffdc0ef3224ccdae62a9c799fbb37357484c510d821d0cc0abfae85b2d55eeed4eaf200f370ecc40149384a5fd71fc90c2bbb415c2f6dd5e34cae8ac84211a914dc3f3784a613L'
I-798
I667
tbag7
(g8
g9
NtRp42
(I1
S'1a2916caf51430577ac4be33e2f83a5e6054bd606b368708ad8621becdf1a833f5b9670c1efea1394d1dbf7cd472e2af31938f71b34882cae72341cfea1255540aa37d47050edbfee9c317050d5aca54be97fa1L'
I-795
I665
tbag7
(g8
g9
NtRp43
(I0
S'676bcc81b43102d6e972eca89d141245ea9d8ab0ada4ac06aea8b6fae59d403d5193de2780ee9deb7d257ceb42d1b9211915f9e6cd02bc2bc6d3c9ef61665b8be540df6e87330c12e2856bbcab4b8f78500baa5L'
I-796
I667
tbag7
(g8
g9
NtRp44
(I1
S'5b5cab48dc6823fea5921e5a74e9e0d94118a2d69c7ac6202e8435150ea679a8231de4663b9ae8e6f336da05a2a623d88bf10baa96ab4f0c87b23e1394106ad93014d0acdb6f59a6f40d6f6858a524c3d045965L'
I-798
I667
tbag7
(g8
g9
NtRp45
(I0
S'214c9102ff7934aef165f4b103c10c42a053ad446722593a2b95e4b27d19a689910adcb4b63510897b8cd1e77cde4ec70312b2150ed4a753d618bde996f19195d12e909a9825fac4444c04f0b0b63b0ec2c7307L'
I-798
I666
tbag7
(g8
g9
NtRp46
(I0
S'58568bb4e2a4d8f81fa70a1c96d69323ddc52872636599cca1d3c8b46712ba6d46cdeebfd9f1a19fc226e820b88567b5b367487d15a8e4ed1725d0458629131e636190966a36452199029a6b3bbd682a5de724fL'
I-798
I667
tbag7
(g8
g9
NtRp47
(I0
S'236c4fe17dcf48d589afa9f7e22901616dbc8a53b96a08656f6eac7c126adb331f19902d8e5aad291f1f90e3b135efd9d0e520e33920396e2da143f0c8185fcd08c9a8944c079cd1acce74b5316814a059c9bL'
I-788
I658
tbag7
(g8
g9
NtRp48
(I0
S'd8cd052da0f502d95f5b71f5ee00908b5799959a70616cffab49e77d8fdf1f4b1e5a2321b704a8436165aa71d3437f8c96baa5f57ac2bd2e7414114596e3af6a35620d51015985c49504a2d1666ef1bee8d395L'
I-794
I664
tbag7
(g8
g9
NtRp49
(I0
S'4e241d8ebb30cf7036f2b3db5a9fa3137917ccaa27d56eee438d769b2ff767a15c19ff1db42fe153b5991be13b0b1b34c31fbf6180ed8b844cc5f66658ff7c3144e1c08378407ee5d8eea7ddd24a05f69e84413L'
I-799
I667
tbag7
(g8
g9
NtRp50
(I1
S'51cfe8e05b2dd4914429cd8f7e3750bcbdb158ef73949c0fdf89cdc345aae1a455720251abd7086788bdc3565f07c501b7684e371b6ca11b985b2dfcda9b43b340cdd73795b04e18e908fae70db1639be7c68cfL'
I-798
I667
tbag7
(g8
g9
NtRp51
(I0
S'b70abc5feb0ab1671ab3787b5e562fde78317fd2ecaa338ac6a07a4b98bd590da763024a3908c0db7cf9e6fe370b08d53bc17fd133b5f6185d9c3ab67ed07f01fd9afde89aad957cb213db2cb813c7a53e3ad5bL'
I-798
I668
tbag7
(g8
g9
NtRp52
(I1
S'8704d6b97918c60ff038b7e34f33e11121c9829a8c4fd2c53737a9b9c6e6b7d42c1dcc9fed8b8e272e4e0e74570cdd22b4a57dc276ce1e7ecd3737d4ab0fa1b81e8c72517ac4bbb4ffd06b0804daaa02817eabL'
I-796
I664
tbag7
(g8
g9
NtRp53
(I1
S'5b5cab48dc6823fea5921e5a74e9e0d94118a2d69c7ac6202e8435150ea679a8231de4663b9ae8e6f336da05a2a623d88bf10baa96ab4f0c87b23e1394106ad93014d0acdb6f59a6f40d6f6858a524c3d045965L'
I-798
I667
tbag7
(g8
g9
NtRp54
(I0
S'8bac6fc0c17cf2cdb556a94413eec4dd6da3c751c0efe289bffcdfa9a064dce16f262ef75dcde95beb698ff35b6c993c93afc28ede793a382ba39ab0685d69f16630ccb4c9509c9a61a5ab5799b2f745c1bb913L'
I-796
I668
tbag7
(g8
g9
NtRp55
(I0
S'd85b734e5c3ab8654dcb7ae8e50fbeec69be6789809727b57c86c418a63a514dc600d1c50ce16f2762cc2096920e9fa3ee7b4576b690fe58d81a1421394cba8803f62550908de90142b7c7c6ad8421d05a7805L'
I-798
I664
tbag7
(g8
g9
NtRp56
(I1
S'462c7425238e1127196696c837165e3832b19dbe59c1f41011009fe132c731b6a37475c934c4d1ddfb25fac837fb96553af1a4bd48902fc142a943a0a8afd9a544531847c3e5b01896eb596ef006f0bef8679e1L'
I-797
I667
tbag7
(g8
g9
NtRp57
(I0
S'26636417fe503f30689c4d203521c13d4755ff0eb3f0b9aa91fcf5bd83bc8c1fcc3fb4f8ddb47d099fec2191db9b53cbbcae65a762d487a850f478ce76ce2b5dcb33c3bfb1d4237825b362142456a334a321505L'
I-797
I666
tbag7
(g8
g9
NtRp58
(I1
S'95bcb3e61f9c3298066fb4fe59a1d5c00f45ebbcfbc13b1f0816b3f7cc66e30f752eda85ade0b9969c8de13f533cf3d2e4d5d6507a9a8789ae746544bfa623021056676b52356795b45f73a74ac40eebf4161adL'
I-799
I668
tbag7
(g8
g9
NtRp59
(I0
S'440ef1f74bf77b84b22390c9537ebca0f1f878abf37b664dcee462012d43f5faf1d27b9a5cb3e4c56afdf64c45157bde7ce0fb183403f3cb1f7f2469e3bdecd9859c8cfd42a660bb6dd10db6f5afc8fa0b3c51fL'
I-797
I667
tbag7
(g8
g9
NtRp60
(I0
S'a97b9fe0055c769d7fb04a31307404424fafc521991dea654d5110358217706a1e0f29a0a3d9770760793c06660cae3794e5eacad292f5f9427d52b8515230ce91cc7f34cb5f89d087877b41e20592a90a29d93L'
I-799
I668
tbag7
(g8
g9
NtRp61
(I1
S'46ba55ca08381e998fff3f921eeb86ffcdaad44630c6ff87182257a7705f663e128d2a54a2ea9010d1f793d79a8e59dc337c7164251d528ddf5bda4b77831e80679b61ab976767841cb2c86e5a387891067f02dL'
I-799
I667
tbag7
(g8
g9
NtRp62
(I0
S'e7feeed7150daf41b02d0e07cf4d1f93a33f5b70c0690d238946096c4311d0e9ceb18f86c6dd33b3a8de967167eca0b9e1f3c5c7514c1ea89004a9fe79a0e410d9b8fcaf8ac994c1abe8a3e6ba1598778818501L'
I-798
I668
tbag7
(g8
g9
NtRp63
(I0
S'214c9102ff7934aef165f4b103c10c42a053ad446722593a2b95e4b27d19a689910adcb4b63510897b8cd1e77cde4ec70312b2150ed4a753d618bde996f19195d12e909a9825fac4444c04f0b0b63b0ec2c7307L'
I-798
I666
tbag7
(g8
g9
NtRp64
(I0
S'd85b734e5c3ab8654dcb7ae8e50fbeec69be6789809727b57c86c418a63a514dc600d1c50ce16f2762cc2096920e9fa3ee7b4576b690fe58d81a1421394cba8803f62550908de90142b7c7c6ad8421d05a7805L'
I-798
I664
tbag7
(g8
g9
NtRp65
(I0
S'3bbc4aa6ff21ee619efadfd0733966a484a3bc11a9b3a3ac8b15464887f46b04c98236a9e16a8404f866b907398ddfc0662b2ea8bcbfde438d14060ef83d5c8bf78c3a53398efd0bfd4974cbaeaf3389ba1e707L'
I-795
I666
tbag7
(g8
g9
NtRp66
(I0
S'4854cf2ae007e97cad9169eff925020a8b515944c11244407c0b6d168cff8b5bfdaa0b3c1bf01646a9d65f797939b2f0731c7eddf6c3f8652b466d32472cd83890bed2ecd9bc4fabe267c42683ef727835d1b4bL'
I-798
I667
tbag7
(g8
g9
NtRp67
(I1
S'e99ccb052847fb004c7f630a97b34de7ad99258e450c0ce02d2f649c0db90a4ec2f5c96a59784dd368ad4a87073a004ec9405649e78e62518471e02bbea37f8246f3cdc0e74d21bceaaf909be82cd616386f627L'
I-798
I668
tbag7
(g8
g9
NtRp68
(I1
S'e8a084d8840deae0249670c07876fe9a7b3e21e71dd0001f8407ff7991deb8ff30d93b2ca764d5448f0ede8bc26c2fbf2d0c594a7a3edc7d5e47af295eb59e30af98e392cd8d2c23c1c3d84974f150c6ed740bL'
I-794
I664
tbag7
(g8
g9
NtRp69
(I0
S'239a2745978129959dbaa698af186bddc1987cb96b31f554ff8b50ec312e27daf82a8df73c979980b899b49d61391ec4724c0daabfa11d31f56a0745adb0436f98a77c3c394f08b026e7a08328752eb23952efL'
I-792
I662
tbag7
(g8
g9
NtRp70
(I0
S'2bff1201e354404fe23995f157a0d4c0f3e26f266bac1da5ebb6305662c8ea6fdf804db4a4241d0906d5a8f33dbcc01163a60c3cf43d367a83327d20ae604e4938cf645b60484d32cda8d784bd5b98f7f80398fL'
I-798
I666
tbag7
(g8
g9
NtRp71
(I1
S'201bf0a3e150199c2bda2163b1dba9b68606bee0e9fff6ef963bed7fcc210debd1f6951c9bdf9632b2cc7105eec810375ae5b3d4bbac7e6aa62759b2175991c5a946a6653a7e3ac5e32dec7d4e9a90113c4b103L'
I-797
I666
tbag7
(g8
g9
NtRp72
(I0
S'd2f13cc2e493fa42660c9e6cd711acacf4cd086fdd491625c1ee95d95f04310bc15e7327fb0e7c9c1731baca579adc6289099d2758352346fab2c0c02ca0befae50e66d69f14a3c67c4df9eadc8c3e920f465bbL'
I-800
I668
tbag7
(g8
g9
NtRp73
(I0
S'58568bb4e2a4d8f81fa70a1c96d69323ddc52872636599cca1d3c8b46712ba6d46cdeebfd9f1a19fc226e820b88567b5b367487d15a8e4ed1725d0458629131e636190966a36452199029a6b3bbd682a5de724fL'
I-798
I667
tbag7
(g8
g9
NtRp74
(I1
S'462c7425238e1127196696c837165e3832b19dbe59c1f41011009fe132c731b6a37475c934c4d1ddfb25fac837fb96553af1a4bd48902fc142a943a0a8afd9a544531847c3e5b01896eb596ef006f0bef8679e1L'
I-797
I667
tbag7
(g8
g9
NtRp75
(I0
S'4854cf2ae007e97cad9169eff925020a8b515944c11244407c0b6d168cff8b5bfdaa0b3c1bf01646a9d65f797939b2f0731c7eddf6c3f8652b466d32472cd83890bed2ecd9bc4fabe267c42683ef727835d1b4bL'
I-798
I667
tbag7
(g8
g9
NtRp76
(I0
S'787b8cd8ed9b77a5cf644a18fef39179bd918b8efa52a1d0bcf782c266181bfc6074192d48fa1dc60dc5270f55a000519dae6e2719e8ac04d4e3b022e24317baaf8ac10092524ad2ac20d4d3a6892973c291cedL'
I-798
I667
tbag7
(g8
g9
NtRp77
(I1
S'65887b6eb9d100cbb5ee277341a2bf3315ffa9671c698fc2a228b15fbdc5bcc465f00befa64ee1ea63c7af23e6662b086cfabdfdb9f10eff01783dc2303028ceca68c59182f887932a803f55b383571aa06d26fL'
I-800
I667
tbag7
(g8
g9
NtRp78
(I0
S'e4fd2357704e8c950c85e42cd2715cfc7f70efdd6953523093079bf6f4d055bd2a4d39f18ce0ce92f70f32375387a196e9ba155e798cea6f1dd0f838b51b74d0872ef475443505c1590e814d62ed53e0ecff3bbL'
I-799
I668
tbag7
(g8
g9
NtRp79
(I1
S'35c5c7c2fa41b0963aa66ebfdc15011f2d59d6a92be7f9b1ae24bf9d3ed4ec26eac3cf6c5d4fccfa20030670e0728252ee2c9a0809e8f7884278a3335edfc98074ac95af1e845426fadfd6bbaa0f623e3889e5bL'
I-798
I666
tbag7
(g8
g9
NtRp80
(I0
S'afe6230e47a2112c7308fae6b2b1d54db24f998662f8de3e2774960d00b2731d4a59a8d33e11015248c84bd726e679622d93eee9771f7c833fd4b81b1225430ff66e0a37e609787411d9e8aaf2de1d57036cf0dL'
I-798
I668
tbag7
(g8
g9
NtRp81
(I1
S'4a113bf55d71ff69e69710b9a3df147fd5023e7be551e003c340a37e52e02e908e10905cc46f6d21bf40f2e4ccf37b649176a329fa3910bd43d0d243e9f52dbbc36721146cc14da852e0a800ac159781bbf4647L'
I-798
I667
tbag7
(g8
g9
NtRp82
(I1
S'9da63ba14f25b921be9189430f5ff904dc9f5a561c1b6ffd18da1dce47a1afebc54654685e21d4e44e2e23d53535daca9fd56ab7c3d53cbe53d77258766ee3cc64e4214de40b1b47f53ef8dbe92c8a6e66ee771L'
I-798
I668
tbag7
(g8
g9
NtRp83
(I0
S'236c4fe17dcf48d589afa9f7e22901616dbc8a53b96a08656f6eac7c126adb331f19902d8e5aad291f1f90e3b135efd9d0e520e33920396e2da143f0c8185fcd08c9a8944c079cd1acce74b5316814a059c9bL'
I-788
I658
tbag7
(g8
g9
NtRp84
(I0
S'26636417fe503f30689c4d203521c13d4755ff0eb3f0b9aa91fcf5bd83bc8c1fcc3fb4f8ddb47d099fec2191db9b53cbbcae65a762d487a850f478ce76ce2b5dcb33c3bfb1d4237825b362142456a334a321505L'
I-797
I666
tbag7
(g8
g9
NtRp85
(I1
S'e99ccb052847fb004c7f630a97b34de7ad99258e450c0ce02d2f649c0db90a4ec2f5c96a59784dd368ad4a87073a004ec9405649e78e62518471e02bbea37f8246f3cdc0e74d21bceaaf909be82cd616386f627L'
I-798
I668
tbag7
(g8
g9
NtRp86
(I1
S'65887b6eb9d100cbb5ee277341a2bf3315ffa9671c698fc2a228b15fbdc5bcc465f00befa64ee1ea63c7af23e6662b086cfabdfdb9f10eff01783dc2303028ceca68c59182f887932a803f55b383571aa06d26fL'
I-800
I667
tbag7
(g8
g9
NtRp87
(I0
S'13dfb19c4a856015ab289e26ba7698f77b649cbeb3d86241c2852ef28fd6ec45e31778a05ffeb40bd408e870b3b84a6b37751319ba86de6a75b84807e94ea400490f439a6ee7e3b1b2cf9535d3484bd8f86b38bL'
I-793
I665
tbag7
(g8
g9
NtRp88
(I0
S'385e07496c9bda662789daacabfc895f287c9406ced2a8321846d0845291f9f5d003d724d0949ec5345201e5c896e3348c358a10f7b04ee10038f8523a624c9c596bf2a71a8cdf1b9fcb4a85edfc5496f02682bL'
I-797
I666
tbag7
(g8
g9
NtRp89
(I0
S'18686992e19f15cd5e9d91867c5790a1294a346e7a5b21ad146faaddfd46a57b3c0a7596fc05268bdb7ed2a62954583620bab137d09608d87d9f70bae437b1a8c2b0c1e9c2051ea24cc2899b6930f444dc4856bL'
I-797
I665
tbag7
(g8
g9
NtRp90
(I1
S'205a4f490d29dc8e0fbc00d7fbe8a8d492ef86efdf8827c59812a5788f13588143a4315223c355c6bc4bc5ba6484b0904096f80a0c91c82393f850a969cead3ac9ba209927593215def15b5c4d544fda415f531L'
I-799
I666
tbag7
(g8
g9
NtRp91
(I1
S'71c261f3208d14ca07abbc4fb41c294217b1c85c92cf9b87290b49f936202810512935cfed298949a94a42653911d0ddf194b294e365aeac8d9d783ef3dc3aef651897a398527a435eeb20e4726e650d8763fd1L'
I-800
I667
tbag7
(g8
g9
NtRp92
(I1
S'2dd64913077ec5a2d1c7fadf0ad3425a8f586eb770152c15b07988ac7f8753c5eaf97d626eb8a1e9142260fdc1921c5240dcb6363c9d16e05c902b471a9e6780720f635dcf3c4f244064cd6496b275b81177fa5L'
I-796
I666
tbag7
(g8
g9
NtRp93
(I0
S'd8cd052da0f502d95f5b71f5ee00908b5799959a70616cffab49e77d8fdf1f4b1e5a2321b704a8436165aa71d3437f8c96baa5f57ac2bd2e7414114596e3af6a35620d51015985c49504a2d1666ef1bee8d395L'
I-794
I664
tbag7
(g8
g9
NtRp94
(I1
S'95bcb3e61f9c3298066fb4fe59a1d5c00f45ebbcfbc13b1f0816b3f7cc66e30f752eda85ade0b9969c8de13f533cf3d2e4d5d6507a9a8789ae746544bfa623021056676b52356795b45f73a74ac40eebf4161adL'
I-799
I668
tbag7
(g8
g9
NtRp95
(I1
S'e8a084d8840deae0249670c07876fe9a7b3e21e71dd0001f8407ff7991deb8ff30d93b2ca764d5448f0ede8bc26c2fbf2d0c594a7a3edc7d5e47af295eb59e30af98e392cd8d2c23c1c3d84974f150c6ed740bL'
I-794
I664
tbag7
(g8
g9
NtRp96
(I0
S'e4fd2357704e8c950c85e42cd2715cfc7f70efdd6953523093079bf6f4d055bd2a4d39f18ce0ce92f70f32375387a196e9ba155e798cea6f1dd0f838b51b74d0872ef475443505c1590e814d62ed53e0ecff3bbL'
I-799
I668
tbag7
(g8
g9
NtRp97
(I0
S'385e07496c9bda662789daacabfc895f287c9406ced2a8321846d0845291f9f5d003d724d0949ec5345201e5c896e3348c358a10f7b04ee10038f8523a624c9c596bf2a71a8cdf1b9fcb4a85edfc5496f02682bL'
I-797
I666
tbag7
(g8
g9
NtRp98
(I0
S'76ac2416186bd626475b55ad554d7bd47f96666646a12dae43d8cda9409663c4309a054f6a25265c7ee1b8e73d9bcf97eb8220ac71579b7094b9dff890044ca29464ee75c75e7a42ce99433244dc8bdf6ad87a3L'
I-796
I667
tbag7
(g8
g9
NtRp99
(I1
S'2b9ec01f719575fd8e1ae4740c7db811a0e1bf83bbf5c0c8626cd8fe76ec7141eeff96835f40732d3f033a05b3e4b9f5fe1cd82324738fbd21f2fbaebaab7a130b22049bccbe2c79ff482093ec65f27be62f3dbL'
I-796
I666
tbag7
(g8
g9
NtRp100
(I1
S'a812fb925a0b21aae86e6458c445e1d8873ff459b0d5947f83a280d80f407fb6f65392477823eb8ef7eb2419ef4390d66f8f1f378a0ce934c79f932adc56ab5b93f2d606723724f37aad0ef338f1a885da6c95fL'
I-799
I668
tbag7
(g8
g9
NtRp101
(I1
S'251074751a238fb3989994ce3f12feb2c9c9f04f1e014a8db84dac3f1e696b649fa5dfa523eca6845615bdcdb811b2a6a97470bfdfcc93e61064e40a698dc7305019e87f955360fcc759eedb9cfa7979a7a88abL'
I-800
I666
tbag7
(g8
g9
NtRp102
(I1
S'b23e5811c011c0835915c1d597764be7708cfaf2e336732dc4c1a697bb1917126b413dfe01e32a54e05d4a03dfb06663ac8dcfebef3e463de339c3e9d8fddcadad7cdf176230f13ca3a6f16dff8a67c7c1c8a63L'
I-800
I668
tbag7
(g8
g9
NtRp103
(I0
S'4e241d8ebb30cf7036f2b3db5a9fa3137917ccaa27d56eee438d769b2ff767a15c19ff1db42fe153b5991be13b0b1b34c31fbf6180ed8b844cc5f66658ff7c3144e1c08378407ee5d8eea7ddd24a05f69e84413L'
I-799
I667
tbag7
(g8
g9
NtRp104
(I0
S'440ef1f74bf77b84b22390c9537ebca0f1f878abf37b664dcee462012d43f5faf1d27b9a5cb3e4c56afdf64c45157bde7ce0fb183403f3cb1f7f2469e3bdecd9859c8cfd42a660bb6dd10db6f5afc8fa0b3c51fL'
I-797
I667
tbag7
(g8
g9
NtRp105
(I0
S'239a2745978129959dbaa698af186bddc1987cb96b31f554ff8b50ec312e27daf82a8df73c979980b899b49d61391ec4724c0daabfa11d31f56a0745adb0436f98a77c3c394f08b026e7a08328752eb23952efL'
I-792
I662
tbag7
(g8
g9
NtRp106
(I1
S'35c5c7c2fa41b0963aa66ebfdc15011f2d59d6a92be7f9b1ae24bf9d3ed4ec26eac3cf6c5d4fccfa20030670e0728252ee2c9a0809e8f7884278a3335edfc98074ac95af1e845426fadfd6bbaa0f623e3889e5bL'
I-798
I666
tbag7
(g8
g9
NtRp107
(I0
S'18686992e19f15cd5e9d91867c5790a1294a346e7a5b21ad146faaddfd46a57b3c0a7596fc05268bdb7ed2a62954583620bab137d09608d87d9f70bae437b1a8c2b0c1e9c2051ea24cc2899b6930f444dc4856bL'
I-797
I665
tbag7
(g8
g9
NtRp108
(I1
S'2b9ec01f719575fd8e1ae4740c7db811a0e1bf83bbf5c0c8626cd8fe76ec7141eeff96835f40732d3f033a05b3e4b9f5fe1cd82324738fbd21f2fbaebaab7a130b22049bccbe2c79ff482093ec65f27be62f3dbL'
I-796
I666
tbag7
(g8
g9
NtRp109
(I0
S'd485fa3bce2ebcaaeb08a00f04573d7c8bb4a1b128d33c2915dc0d26d1f20fc2373b5235b663d0378a4343ee1390f2327721c912fc4aa7ea2666ef7b6013afe33b99da8cecdcb44b3ea76ef86477a15abac36dbL'
I-798
I668
tbatb.