cnumpy.core.multiarray
_reconstruct
p1
(cnumpy
ndarray
p2
(I0
tS'b'
tRp3
(I1
(I10
I10
tcnumpy
dtype
p4
(S'O8'
I0
I1
tRp5
(I3
S'|'
NNNI-1
I-1
I63
tbI00
(lp6
ccopy_reg
_reconstructor
p7
(cmpmath.ctx_mp_python
mpf
p8
c__builtin__
object
p9
NtRp10
(I0
S'12f8a3d330080c2a432a0b79fa3083eab6c5cd86399f02fe406d2c53735dc7737afbe95c3a3ee56db02303251720bd0ef96f175bb3206928bc7f87f955e1eff308468107a10a32a561806590a01217fdbb4f83fL'
I-690
I665
tbag7
(g8
g9
NtRp11
(I0
S'0L'
I0
I0
tbag7
(g8
g9
NtRp12
(I0
S'0L'
I0
I0
tbag7
(g8
g9
NtRp13
(I0
S'0L'
I0
I0
tbag7
(g8
g9
NtRp14
(I0
S'0L'
I0
I0
tbag7
(g8
g9
NtRp15
(I0
S'0L'
I0
I0
tbag7
(g8
g9
NtRp16
(I0
S'0L'
I0
I0
tbag7
(g8
g9
NtRp17
(I0
S'0L'
I0
I0
tbag7
(g8
g9
NtRp18
(I0
S'0L'
I0
I0
tbag7
(g8
g9
NtRp19
(I0
S'0L'
I0
I0
tbag7
(g8
g9
NtRp20
(I0
S'0L'
I0
I0
tbag7
(g8
g9
NtRp21
(I0
S'475222c5cce05814cbf0b0dbcace2ca2b05ae744634b28f8627390f5e0a5a8a6735fbd4caecbc4bb67685a19626b56ae911380d91251470a85bc08e7038e2fefcc8b0bccde684c3fa9dd9cbf3f489230008adb7L'
I-692
I667
tbag7
(g8
g9
NtRp22
(I0
S'0L'
I0
I0
tbag7
(g8
g9
NtRp23
(I0
S'0L'
I0
I0
tbag7
(g8
g9
NtRp24
(I0
S'0L'
I0
I0
tbag7
(g8
g9
NtRp25
(I0
S'0L'
I0
I0
tbag7
(g8
g9
NtRp26
(I0
S'0L'
I0
I0
tbag7
(g8
g9
NtRp27
(I0
S'0L'
I0
I0
tbag7
(g8
g9
NtRp28
(I0
S'0L'
I0
I0
tbag7
(g8
g9
NtRp29
(I0
S'0L'
I0
I0
tbag7
(g8
g9
NtRp30
(I0
S'0L'
I0
I0
tbag7
(g8
g9
NtRp31
(I0
S'0L'
I0
I0
tbag7
(g8
g9
NtRp32
(I0
S'd193cccad3a3b37acc10c85c70e15cd632ba5a3d57004c241651471494494d7209197a1fb75bf8f50570ffea6afea55d21db61c8f30860585f1f99f45b774d2cb81bd62e9cd9d174b8a0cff57a070e10ca91dddL'
I-694
I668
tbag7
(g8
g9
NtRp33
(I0
S'0L'
I0
I0
tbag7
(g8
g9
NtRp34
(I0
S'0L'
I0
I0
tbag7
(g8
g9
NtRp35
(I0
S'0L'
I0
I0
tbag7
(g8
g9
NtRp36
(I0
S'0L'
I0
I0
tbag7
(g8
g9
NtRp37
(I0
S'0L'
I0
I0
tbag7
(g8
g9
NtRp38
(I0
S'0L'
I0
I0
tbag7
(g8
g9
NtRp39
(I0
S'0L'
I0
I0
tbag7
(g8
g9
NtRp40
(I0
S'0L'
I0
I0
tbag7
(g8
g9
NtRp41
(I0
S'0L'
I0
I0
tbag7
(g8
g9
NtRp42
(I0
S'0L'
I0
I0
tbag7
(g8
g9
NtRp43
(I0
S'99ebbbd0544d4a00df7e80e792cf2479520d50c3840bde1a1a2c4f84d9d4bfcdb5aadd4f039386e4a2e8df38271db6e13619d7539aa5c81f8b0677dca67a34d00cc8fcb9bfc6ac1732f00ecf9d1bd2a3908f441L'
I-694
I668
tbag7
(g8
g9
NtRp44
(I0
S'0L'
I0
I0
tbag7
(g8
g9
NtRp45
(I0
S'0L'
I0
I0
tbag7
(g8
g9
NtRp46
(I0
S'0L'
I0
I0
tbag7
(g8
g9
NtRp47
(I0
S'0L'
I0
I0
tbag7
(g8
g9
NtRp48
(I0
S'0L'
I0
I0
tbag7
(g8
g9
NtRp49
(I0
S'0L'
I0
I0
tbag7
(g8
g9
NtRp50
(I0
S'0L'
I0
I0
tbag7
(g8
g9
NtRp51
(I0
S'0L'
I0
I0
tbag7
(g8
g9
NtRp52
(I0
S'0L'
I0
I0
tbag7
(g8
g9
NtRp53
(I0
S'0L'
I0
I0
tbag7
(g8
g9
NtRp54
(I0
S'546e7ba3d0d01c84e6de2dfa93f74d868100e6ae075e85994d307742fdbd205a5eafa7f91ff673cece93f33b45a82ea63c1c6ab2bde02db0cb84df44fa9ac8126585e8a0641ef0683bde119dd3bb120b933b4cfL'
I-692
I667
tbag7
(g8
g9
NtRp55
(I0
S'0L'
I0
I0
tbag7
(g8
g9
NtRp56
(I0
S'0L'
I0
I0
tbag7
(g8
g9
NtRp57
(I0
S'0L'
I0
I0
tbag7
(g8
g9
NtRp58
(I0
S'0L'
I0
I0
tbag7
(g8
g9
NtRp59
(I0
S'0L'
I0
I0
tbag7
(g8
g9
NtRp60
(I0
S'0L'
I0
I0
tbag7
(g8
g9
NtRp61
(I0
S'0L'
I0
I0
tbag7
(g8
g9
NtRp62
(I0
S'0L'
I0
I0
tbag7
(g8
g9
NtRp63
(I0
S'0L'
I0
I0
tbag7
(g8
g9
NtRp64
(I0
S'0L'
I0
I0
tbag7
(g8
g9
NtRp65
(I0
S'f232b13be206b93df27a488cc6ea5a7e7c919015ecc58f9ae036a00bb019d16df57c9bb2fc354e021fb600e49a92dd2c3b940e631775e7cccbcf544e48a71d199311572f9c96c9bd83d46f34db1458225772d2dL'
I-695
I668
tbag7
(g8
g9
NtRp66
(I0
S'0L'
I0
I0
tbag7
(g8
g9
NtRp67
(I0
S'0L'
I0
I0
tbag7
(g8
g9
NtRp68
(I0
S'0L'
I0
I0
tbag7
(g8
g9
NtRp69
(I0
S'0L'
I0
I0
tbag7
(g8
g9
NtRp70
(I0
S'0L'
I0
I0
tbag7
(g8
g9
NtRp71
(I0
S'0L'
I0
I0
tbag7
(g8
g9
NtRp72
(I0
S'0L'
I0
I0
tbag7
(g8
g9
NtRp73
(I0
S'0L'
I0
I0
tbag7
(g8
g9
NtRp74
(I0
S'0L'
I0
I0
tbag7
(g8
g9
NtRp75
(I0
S'0L'
I0
I0
tbag7
(g8
g9
NtRp76
(I0
S'6fcec921abb1c81057f2273ff0e42454ab1b9501b2bfa175447af8918c84fc9652a2712d596797b46affdf274a6cc6f9307dd5c722e0fde1121c41f7333aa66cf96ec976ca52b250834345efe10c6b94d015fabL'
I-696
I667
tbag7
(g8
g9
NtRp77
(I0
S'0L'
I0
I0
tbag7
(g8
g9
NtRp78
(I0
S'0L'
I0
I0
tbag7
(g8
g9
NtRp79
(I0
S'0L'
I0
I0
tbag7
(g8
g9
NtRp80
(I0
S'0L'
I0
I0
tbag7
(g8
g9
NtRp81
(I0
S'0L'
I0
I0
tbag7
(g8
g9
NtRp82
(I0
S'0L'
I0
I0
tbag7
(g8
g9
NtRp83
(I0
S'0L'
I0
I0
tbag7
(g8
g9
NtRp84
(I0
S'0L'
I0
I0
tbag7
(g8
g9
NtRp85
(I0
S'0L'
I0
I0
tbag7
(g8
g9
NtRp86
(I0
S'0L'
I0
I0
tbag7
(g8
g9
NtRp87
(I0
S'5376c379bfac249ce15e6f1cbdca7e4b85a190dc8c34015c757222772bb9a9e3313bb057116a0fccb0ea4bff0a1059bbc5da9071fd0dd964d976add75f403db06fc801237b72f7976803430f0242132cd7adf8dL'
I-693
I667
tbag7
(g8
g9
NtRp88
(I0
S'0L'
I0
I0
tbag7
(g8
g9
NtRp89
(I0
S'0L'
I0
I0
tbag7
(g8
g9
NtRp90
(I0
S'0L'
I0
I0
tbag7
(g8
g9
NtRp91
(I0
S'0L'
I0
I0
tbag7
(g8
g9
NtRp92
(I0
S'0L'
I0
I0
tbag7
(g8
g9
NtRp93
(I0
S'0L'
I0
I0
tbag7
(g8
g9
NtRp94
(I0
S'0L'
I0
I0
tbag7
(g8
g9
NtRp95
(I0
S'0L'
I0
I0
tbag7
(g8
g9
NtRp96
(I0
S'0L'
I0
I0
tbag7
(g8
g9
NtRp97
(I0
S'0L'
I0
I0
tbag7
(g8
g9
NtRp98
(I0
S'999b70f2860c60fdc72b597478023fae1fd2bdfc9b03d4a02011e194bce5e97b007f9dac0fb212ee550ce559114c10114a2a9a7e997f3a257eac447a5107293c3d08c5bc640a8d61266083eb02fcf2984f13e75L'
I-691
I668
tbag7
(g8
g9
NtRp99
(I0
S'0L'
I0
I0
tbag7
(g8
g9
NtRp100
(I0
S'0L'
I0
I0
tbag7
(g8
g9
NtRp101
(I0
S'0L'
I0
I0
tbag7
(g8
g9
NtRp102
(I0
S'0L'
I0
I0
tbag7
(g8
g9
NtRp103
(I0
S'0L'
I0
I0
tbag7
(g8
g9
NtRp104
(I0
S'0L'
I0
I0
tbag7
(g8
g9
NtRp105
(I0
S'0L'
I0
I0
tbag7
(g8
g9
NtRp106
(I0
S'0L'
I0
I0
tbag7
(g8
g9
NtRp107
(I0
S'0L'
I0
I0
tbag7
(g8
g9
NtRp108
(I0
S'0L'
I0
I0
tbag7
(g8
g9
NtRp109
(I0
S'c83d26cd3024daab9dc60b4fd4aefb8cd90d79d7e199d259d806316bc8fd911d072784297cbc404f79615d568efe775ffb96a5d0237bc0d97d596c7b902a9199743796ad6450a67dfbd54a1f4ee3a126472f82dL'
I-696
I668
tbatb.