cnumpy.core.multiarray
_reconstruct
p1
(cnumpy
ndarray
p2
(I0
tS'b'
tRp3
(I1
(I25
I25
tcnumpy
dtype
p4
(S'O8'
I0
I1
tRp5
(I3
S'|'
NNNI-1
I-1
I63
tbI00
(lp6
ccopy_reg
_reconstructor
p7
(cmpmath.ctx_mp_python
mpf
p8
c__builtin__
object
p9
NtRp10
(I0
S'12f8a3d330080c2a432a0b79fa3083eab6c5cd86399f02fe406d2c53735dc7737afbe95c3a3ee56db02303251720bd0ef96f175bb3206928bc7f87f955e1eff308468107a10a32a561806590a01217fdbb4f83fL'
I-690
I665
tbag7
(g8
g9
NtRp11
(I0
S'0L'
I0
I0
tbag7
(g8
g9
NtRp12
(I0
S'0L'
I0
I0
tbag7
(g8
g9
NtRp13
(I0
S'0L'
I0
I0
tbag7
(g8
g9
NtRp14
(I0
S'0L'
I0
I0
tbag7
(g8
g9
NtRp15
(I0
S'0L'
I0
I0
tbag7
(g8
g9
NtRp16
(I0
S'0L'
I0
I0
tbag7
(g8
g9
NtRp17
(I0
S'0L'
I0
I0
tbag7
(g8
g9
NtRp18
(I0
S'0L'
I0
I0
tbag7
(g8
g9
NtRp19
(I0
S'0L'
I0
I0
tbag7
(g8
g9
NtRp20
(I0
S'0L'
I0
I0
tbag7
(g8
g9
NtRp21
(I0
S'0L'
I0
I0
tbag7
(g8
g9
NtRp22
(I0
S'0L'
I0
I0
tbag7
(g8
g9
NtRp23
(I0
S'0L'
I0
I0
tbag7
(g8
g9
NtRp24
(I0
S'0L'
I0
I0
tbag7
(g8
g9
NtRp25
(I0
S'0L'
I0
I0
tbag7
(g8
g9
NtRp26
(I0
S'0L'
I0
I0
tbag7
(g8
g9
NtRp27
(I0
S'0L'
I0
I0
tbag7
(g8
g9
NtRp28
(I0
S'0L'
I0
I0
tbag7
(g8
g9
NtRp29
(I0
S'0L'
I0
I0
tbag7
(g8
g9
NtRp30
(I0
S'0L'
I0
I0
tbag7
(g8
g9
NtRp31
(I0
S'0L'
I0
I0
tbag7
(g8
g9
NtRp32
(I0
S'0L'
I0
I0
tbag7
(g8
g9
NtRp33
(I0
S'0L'
I0
I0
tbag7
(g8
g9
NtRp34
(I0
S'0L'
I0
I0
tbag7
(g8
g9
NtRp35
(I0
S'0L'
I0
I0
tbag7
(g8
g9
NtRp36
(I0
S'475222c5cce05814cbf0b0dbcace2ca2b05ae744634b28f8627390f5e0a5a8a6735fbd4caecbc4bb67685a19626b56ae911380d91251470a85bc08e7038e2fefcc8b0bccde684c3fa9dd9cbf3f489230008adb7L'
I-692
I667
tbag7
(g8
g9
NtRp37
(I0
S'0L'
I0
I0
tbag7
(g8
g9
NtRp38
(I0
S'0L'
I0
I0
tbag7
(g8
g9
NtRp39
(I0
S'0L'
I0
I0
tbag7
(g8
g9
NtRp40
(I0
S'0L'
I0
I0
tbag7
(g8
g9
NtRp41
(I0
S'0L'
I0
I0
tbag7
(g8
g9
NtRp42
(I0
S'0L'
I0
I0
tbag7
(g8
g9
NtRp43
(I0
S'0L'
I0
I0
tbag7
(g8
g9
NtRp44
(I0
S'0L'
I0
I0
tbag7
(g8
g9
NtRp45
(I0
S'0L'
I0
I0
tbag7
(g8
g9
NtRp46
(I0
S'0L'
I0
I0
tbag7
(g8
g9
NtRp47
(I0
S'0L'
I0
I0
tbag7
(g8
g9
NtRp48
(I0
S'0L'
I0
I0
tbag7
(g8
g9
NtRp49
(I0
S'0L'
I0
I0
tbag7
(g8
g9
NtRp50
(I0
S'0L'
I0
I0
tbag7
(g8
g9
NtRp51
(I0
S'0L'
I0
I0
tbag7
(g8
g9
NtRp52
(I0
S'0L'
I0
I0
tbag7
(g8
g9
NtRp53
(I0
S'0L'
I0
I0
tbag7
(g8
g9
NtRp54
(I0
S'0L'
I0
I0
tbag7
(g8
g9
NtRp55
(I0
S'0L'
I0
I0
tbag7
(g8
g9
NtRp56
(I0
S'0L'
I0
I0
tbag7
(g8
g9
NtRp57
(I0
S'0L'
I0
I0
tbag7
(g8
g9
NtRp58
(I0
S'0L'
I0
I0
tbag7
(g8
g9
NtRp59
(I0
S'0L'
I0
I0
tbag7
(g8
g9
NtRp60
(I0
S'0L'
I0
I0
tbag7
(g8
g9
NtRp61
(I0
S'0L'
I0
I0
tbag7
(g8
g9
NtRp62
(I0
S'd193cccad3a3b37acc10c85c70e15cd632ba5a3d57004c241651471494494d7209197a1fb75bf8f50570ffea6afea55d21db61c8f30860585f1f99f45b774d2cb81bd62e9cd9d174b8a0cff57a070e10ca91dddL'
I-694
I668
tbag7
(g8
g9
NtRp63
(I0
S'0L'
I0
I0
tbag7
(g8
g9
NtRp64
(I0
S'0L'
I0
I0
tbag7
(g8
g9
NtRp65
(I0
S'0L'
I0
I0
tbag7
(g8
g9
NtRp66
(I0
S'0L'
I0
I0
tbag7
(g8
g9
NtRp67
(I0
S'0L'
I0
I0
tbag7
(g8
g9
NtRp68
(I0
S'0L'
I0
I0
tbag7
(g8
g9
NtRp69
(I0
S'0L'
I0
I0
tbag7
(g8
g9
NtRp70
(I0
S'0L'
I0
I0
tbag7
(g8
g9
NtRp71
(I0
S'0L'
I0
I0
tbag7
(g8
g9
NtRp72
(I0
S'0L'
I0
I0
tbag7
(g8
g9
NtRp73
(I0
S'0L'
I0
I0
tbag7
(g8
g9
NtRp74
(I0
S'0L'
I0
I0
tbag7
(g8
g9
NtRp75
(I0
S'0L'
I0
I0
tbag7
(g8
g9
NtRp76
(I0
S'0L'
I0
I0
tbag7
(g8
g9
NtRp77
(I0
S'0L'
I0
I0
tbag7
(g8
g9
NtRp78
(I0
S'0L'
I0
I0
tbag7
(g8
g9
NtRp79
(I0
S'0L'
I0
I0
tbag7
(g8
g9
NtRp80
(I0
S'0L'
I0
I0
tbag7
(g8
g9
NtRp81
(I0
S'0L'
I0
I0
tbag7
(g8
g9
NtRp82
(I0
S'0L'
I0
I0
tbag7
(g8
g9
NtRp83
(I0
S'0L'
I0
I0
tbag7
(g8
g9
NtRp84
(I0
S'0L'
I0
I0
tbag7
(g8
g9
NtRp85
(I0
S'0L'
I0
I0
tbag7
(g8
g9
NtRp86
(I0
S'0L'
I0
I0
tbag7
(g8
g9
NtRp87
(I0
S'0L'
I0
I0
tbag7
(g8
g9
NtRp88
(I0
S'99ebbbd0544d4a00df7e80e792cf2479520d50c3840bde1a1a2c4f84d9d4bfcdb5aadd4f039386e4a2e8df38271db6e13619d7539aa5c81f8b0677dca67a34d00cc8fcb9bfc6ac1732f00ecf9d1bd2a3908f441L'
I-694
I668
tbag7
(g8
g9
NtRp89
(I0
S'0L'
I0
I0
tbag7
(g8
g9
NtRp90
(I0
S'0L'
I0
I0
tbag7
(g8
g9
NtRp91
(I0
S'0L'
I0
I0
tbag7
(g8
g9
NtRp92
(I0
S'0L'
I0
I0
tbag7
(g8
g9
NtRp93
(I0
S'0L'
I0
I0
tbag7
(g8
g9
NtRp94
(I0
S'0L'
I0
I0
tbag7
(g8
g9
NtRp95
(I0
S'0L'
I0
I0
tbag7
(g8
g9
NtRp96
(I0
S'0L'
I0
I0
tbag7
(g8
g9
NtRp97
(I0
S'0L'
I0
I0
tbag7
(g8
g9
NtRp98
(I0
S'0L'
I0
I0
tbag7
(g8
g9
NtRp99
(I0
S'0L'
I0
I0
tbag7
(g8
g9
NtRp100
(I0
S'0L'
I0
I0
tbag7
(g8
g9
NtRp101
(I0
S'0L'
I0
I0
tbag7
(g8
g9
NtRp102
(I0
S'0L'
I0
I0
tbag7
(g8
g9
NtRp103
(I0
S'0L'
I0
I0
tbag7
(g8
g9
NtRp104
(I0
S'0L'
I0
I0
tbag7
(g8
g9
NtRp105
(I0
S'0L'
I0
I0
tbag7
(g8
g9
NtRp106
(I0
S'0L'
I0
I0
tbag7
(g8
g9
NtRp107
(I0
S'0L'
I0
I0
tbag7
(g8
g9
NtRp108
(I0
S'0L'
I0
I0
tbag7
(g8
g9
NtRp109
(I0
S'0L'
I0
I0
tbag7
(g8
g9
NtRp110
(I0
S'0L'
I0
I0
tbag7
(g8
g9
NtRp111
(I0
S'0L'
I0
I0
tbag7
(g8
g9
NtRp112
(I0
S'0L'
I0
I0
tbag7
(g8
g9
NtRp113
(I0
S'0L'
I0
I0
tbag7
(g8
g9
NtRp114
(I0
S'546e7ba3d0d01c84e6de2dfa93f74d868100e6ae075e85994d307742fdbd205a5eafa7f91ff673cece93f33b45a82ea63c1c6ab2bde02db0cb84df44fa9ac8126585e8a0641ef0683bde119dd3bb120b933b4cfL'
I-692
I667
tbag7
(g8
g9
NtRp115
(I0
S'0L'
I0
I0
tbag7
(g8
g9
NtRp116
(I0
S'0L'
I0
I0
tbag7
(g8
g9
NtRp117
(I0
S'0L'
I0
I0
tbag7
(g8
g9
NtRp118
(I0
S'0L'
I0
I0
tbag7
(g8
g9
NtRp119
(I0
S'0L'
I0
I0
tbag7
(g8
g9
NtRp120
(I0
S'0L'
I0
I0
tbag7
(g8
g9
NtRp121
(I0
S'0L'
I0
I0
tbag7
(g8
g9
NtRp122
(I0
S'0L'
I0
I0
tbag7
(g8
g9
NtRp123
(I0
S'0L'
I0
I0
tbag7
(g8
g9
NtRp124
(I0
S'0L'
I0
I0
tbag7
(g8
g9
NtRp125
(I0
S'0L'
I0
I0
tbag7
(g8
g9
NtRp126
(I0
S'0L'
I0
I0
tbag7
(g8
g9
NtRp127
(I0
S'0L'
I0
I0
tbag7
(g8
g9
NtRp128
(I0
S'0L'
I0
I0
tbag7
(g8
g9
NtRp129
(I0
S'0L'
I0
I0
tbag7
(g8
g9
NtRp130
(I0
S'0L'
I0
I0
tbag7
(g8
g9
NtRp131
(I0
S'0L'
I0
I0
tbag7
(g8
g9
NtRp132
(I0
S'0L'
I0
I0
tbag7
(g8
g9
NtRp133
(I0
S'0L'
I0
I0
tbag7
(g8
g9
NtRp134
(I0
S'0L'
I0
I0
tbag7
(g8
g9
NtRp135
(I0
S'0L'
I0
I0
tbag7
(g8
g9
NtRp136
(I0
S'0L'
I0
I0
tbag7
(g8
g9
NtRp137
(I0
S'0L'
I0
I0
tbag7
(g8
g9
NtRp138
(I0
S'0L'
I0
I0
tbag7
(g8
g9
NtRp139
(I0
S'0L'
I0
I0
tbag7
(g8
g9
NtRp140
(I0
S'f232b13be206b93df27a488cc6ea5a7e7c919015ecc58f9ae036a00bb019d16df57c9bb2fc354e021fb600e49a92dd2c3b940e631775e7cccbcf544e48a71d199311572f9c96c9bd83d46f34db1458225772d2dL'
I-695
I668
tbag7
(g8
g9
NtRp141
(I0
S'0L'
I0
I0
tbag7
(g8
g9
NtRp142
(I0
S'0L'
I0
I0
tbag7
(g8
g9
NtRp143
(I0
S'0L'
I0
I0
tbag7
(g8
g9
NtRp144
(I0
S'0L'
I0
I0
tbag7
(g8
g9
NtRp145
(I0
S'0L'
I0
I0
tbag7
(g8
g9
NtRp146
(I0
S'0L'
I0
I0
tbag7
(g8
g9
NtRp147
(I0
S'0L'
I0
I0
tbag7
(g8
g9
NtRp148
(I0
S'0L'
I0
I0
tbag7
(g8
g9
NtRp149
(I0
S'0L'
I0
I0
tbag7
(g8
g9
NtRp150
(I0
S'0L'
I0
I0
tbag7
(g8
g9
NtRp151
(I0
S'0L'
I0
I0
tbag7
(g8
g9
NtRp152
(I0
S'0L'
I0
I0
tbag7
(g8
g9
NtRp153
(I0
S'0L'
I0
I0
tbag7
(g8
g9
NtRp154
(I0
S'0L'
I0
I0
tbag7
(g8
g9
NtRp155
(I0
S'0L'
I0
I0
tbag7
(g8
g9
NtRp156
(I0
S'0L'
I0
I0
tbag7
(g8
g9
NtRp157
(I0
S'0L'
I0
I0
tbag7
(g8
g9
NtRp158
(I0
S'0L'
I0
I0
tbag7
(g8
g9
NtRp159
(I0
S'0L'
I0
I0
tbag7
(g8
g9
NtRp160
(I0
S'0L'
I0
I0
tbag7
(g8
g9
NtRp161
(I0
S'0L'
I0
I0
tbag7
(g8
g9
NtRp162
(I0
S'0L'
I0
I0
tbag7
(g8
g9
NtRp163
(I0
S'0L'
I0
I0
tbag7
(g8
g9
NtRp164
(I0
S'0L'
I0
I0
tbag7
(g8
g9
NtRp165
(I0
S'0L'
I0
I0
tbag7
(g8
g9
NtRp166
(I0
S'6fcec921abb1c81057f2273ff0e42454ab1b9501b2bfa175447af8918c84fc9652a2712d596797b46affdf274a6cc6f9307dd5c722e0fde1121c41f7333aa66cf96ec976ca52b250834345efe10c6b94d015fabL'
I-696
I667
tbag7
(g8
g9
NtRp167
(I0
S'0L'
I0
I0
tbag7
(g8
g9
NtRp168
(I0
S'0L'
I0
I0
tbag7
(g8
g9
NtRp169
(I0
S'0L'
I0
I0
tbag7
(g8
g9
NtRp170
(I0
S'0L'
I0
I0
tbag7
(g8
g9
NtRp171
(I0
S'0L'
I0
I0
tbag7
(g8
g9
NtRp172
(I0
S'0L'
I0
I0
tbag7
(g8
g9
NtRp173
(I0
S'0L'
I0
I0
tbag7
(g8
g9
NtRp174
(I0
S'0L'
I0
I0
tbag7
(g8
g9
NtRp175
(I0
S'0L'
I0
I0
tbag7
(g8
g9
NtRp176
(I0
S'0L'
I0
I0
tbag7
(g8
g9
NtRp177
(I0
S'0L'
I0
I0
tbag7
(g8
g9
NtRp178
(I0
S'0L'
I0
I0
tbag7
(g8
g9
NtRp179
(I0
S'0L'
I0
I0
tbag7
(g8
g9
NtRp180
(I0
S'0L'
I0
I0
tbag7
(g8
g9
NtRp181
(I0
S'0L'
I0
I0
tbag7
(g8
g9
NtRp182
(I0
S'0L'
I0
I0
tbag7
(g8
g9
NtRp183
(I0
S'0L'
I0
I0
tbag7
(g8
g9
NtRp184
(I0
S'0L'
I0
I0
tbag7
(g8
g9
NtRp185
(I0
S'0L'
I0
I0
tbag7
(g8
g9
NtRp186
(I0
S'0L'
I0
I0
tbag7
(g8
g9
NtRp187
(I0
S'0L'
I0
I0
tbag7
(g8
g9
NtRp188
(I0
S'0L'
I0
I0
tbag7
(g8
g9
NtRp189
(I0
S'0L'
I0
I0
tbag7
(g8
g9
NtRp190
(I0
S'0L'
I0
I0
tbag7
(g8
g9
NtRp191
(I0
S'0L'
I0
I0
tbag7
(g8
g9
NtRp192
(I0
S'5376c379bfac249ce15e6f1cbdca7e4b85a190dc8c34015c757222772bb9a9e3313bb057116a0fccb0ea4bff0a1059bbc5da9071fd0dd964d976add75f403db06fc801237b72f7976803430f0242132cd7adf8dL'
I-693
I667
tbag7
(g8
g9
NtRp193
(I0
S'0L'
I0
I0
tbag7
(g8
g9
NtRp194
(I0
S'0L'
I0
I0
tbag7
(g8
g9
NtRp195
(I0
S'0L'
I0
I0
tbag7
(g8
g9
NtRp196
(I0
S'0L'
I0
I0
tbag7
(g8
g9
NtRp197
(I0
S'0L'
I0
I0
tbag7
(g8
g9
NtRp198
(I0
S'0L'
I0
I0
tbag7
(g8
g9
NtRp199
(I0
S'0L'
I0
I0
tbag7
(g8
g9
NtRp200
(I0
S'0L'
I0
I0
tbag7
(g8
g9
NtRp201
(I0
S'0L'
I0
I0
tbag7
(g8
g9
NtRp202
(I0
S'0L'
I0
I0
tbag7
(g8
g9
NtRp203
(I0
S'0L'
I0
I0
tbag7
(g8
g9
NtRp204
(I0
S'0L'
I0
I0
tbag7
(g8
g9
NtRp205
(I0
S'0L'
I0
I0
tbag7
(g8
g9
NtRp206
(I0
S'0L'
I0
I0
tbag7
(g8
g9
NtRp207
(I0
S'0L'
I0
I0
tbag7
(g8
g9
NtRp208
(I0
S'0L'
I0
I0
tbag7
(g8
g9
NtRp209
(I0
S'0L'
I0
I0
tbag7
(g8
g9
NtRp210
(I0
S'0L'
I0
I0
tbag7
(g8
g9
NtRp211
(I0
S'0L'
I0
I0
tbag7
(g8
g9
NtRp212
(I0
S'0L'
I0
I0
tbag7
(g8
g9
NtRp213
(I0
S'0L'
I0
I0
tbag7
(g8
g9
NtRp214
(I0
S'0L'
I0
I0
tbag7
(g8
g9
NtRp215
(I0
S'0L'
I0
I0
tbag7
(g8
g9
NtRp216
(I0
S'0L'
I0
I0
tbag7
(g8
g9
NtRp217
(I0
S'0L'
I0
I0
tbag7
(g8
g9
NtRp218
(I0
S'999b70f2860c60fdc72b597478023fae1fd2bdfc9b03d4a02011e194bce5e97b007f9dac0fb212ee550ce559114c10114a2a9a7e997f3a257eac447a5107293c3d08c5bc640a8d61266083eb02fcf2984f13e75L'
I-691
I668
tbag7
(g8
g9
NtRp219
(I0
S'0L'
I0
I0
tbag7
(g8
g9
NtRp220
(I0
S'0L'
I0
I0
tbag7
(g8
g9
NtRp221
(I0
S'0L'
I0
I0
tbag7
(g8
g9
NtRp222
(I0
S'0L'
I0
I0
tbag7
(g8
g9
NtRp223
(I0
S'0L'
I0
I0
tbag7
(g8
g9
NtRp224
(I0
S'0L'
I0
I0
tbag7
(g8
g9
NtRp225
(I0
S'0L'
I0
I0
tbag7
(g8
g9
NtRp226
(I0
S'0L'
I0
I0
tbag7
(g8
g9
NtRp227
(I0
S'0L'
I0
I0
tbag7
(g8
g9
NtRp228
(I0
S'0L'
I0
I0
tbag7
(g8
g9
NtRp229
(I0
S'0L'
I0
I0
tbag7
(g8
g9
NtRp230
(I0
S'0L'
I0
I0
tbag7
(g8
g9
NtRp231
(I0
S'0L'
I0
I0
tbag7
(g8
g9
NtRp232
(I0
S'0L'
I0
I0
tbag7
(g8
g9
NtRp233
(I0
S'0L'
I0
I0
tbag7
(g8
g9
NtRp234
(I0
S'0L'
I0
I0
tbag7
(g8
g9
NtRp235
(I0
S'0L'
I0
I0
tbag7
(g8
g9
NtRp236
(I0
S'0L'
I0
I0
tbag7
(g8
g9
NtRp237
(I0
S'0L'
I0
I0
tbag7
(g8
g9
NtRp238
(I0
S'0L'
I0
I0
tbag7
(g8
g9
NtRp239
(I0
S'0L'
I0
I0
tbag7
(g8
g9
NtRp240
(I0
S'0L'
I0
I0
tbag7
(g8
g9
NtRp241
(I0
S'0L'
I0
I0
tbag7
(g8
g9
NtRp242
(I0
S'0L'
I0
I0
tbag7
(g8
g9
NtRp243
(I0
S'0L'
I0
I0
tbag7
(g8
g9
NtRp244
(I0
S'c83d26cd3024daab9dc60b4fd4aefb8cd90d79d7e199d259d806316bc8fd911d072784297cbc404f79615d568efe775ffb96a5d0237bc0d97d596c7b902a9199743796ad6450a67dfbd54a1f4ee3a126472f82dL'
I-696
I668
tbag7
(g8
g9
NtRp245
(I0
S'0L'
I0
I0
tbag7
(g8
g9
NtRp246
(I0
S'0L'
I0
I0
tbag7
(g8
g9
NtRp247
(I0
S'0L'
I0
I0
tbag7
(g8
g9
NtRp248
(I0
S'0L'
I0
I0
tbag7
(g8
g9
NtRp249
(I0
S'0L'
I0
I0
tbag7
(g8
g9
NtRp250
(I0
S'0L'
I0
I0
tbag7
(g8
g9
NtRp251
(I0
S'0L'
I0
I0
tbag7
(g8
g9
NtRp252
(I0
S'0L'
I0
I0
tbag7
(g8
g9
NtRp253
(I0
S'0L'
I0
I0
tbag7
(g8
g9
NtRp254
(I0
S'0L'
I0
I0
tbag7
(g8
g9
NtRp255
(I0
S'0L'
I0
I0
tbag7
(g8
g9
NtRp256
(I0
S'0L'
I0
I0
tbag7
(g8
g9
NtRp257
(I0
S'0L'
I0
I0
tbag7
(g8
g9
NtRp258
(I0
S'0L'
I0
I0
tbag7
(g8
g9
NtRp259
(I0
S'0L'
I0
I0
tbag7
(g8
g9
NtRp260
(I0
S'0L'
I0
I0
tbag7
(g8
g9
NtRp261
(I0
S'0L'
I0
I0
tbag7
(g8
g9
NtRp262
(I0
S'0L'
I0
I0
tbag7
(g8
g9
NtRp263
(I0
S'0L'
I0
I0
tbag7
(g8
g9
NtRp264
(I0
S'0L'
I0
I0
tbag7
(g8
g9
NtRp265
(I0
S'0L'
I0
I0
tbag7
(g8
g9
NtRp266
(I0
S'0L'
I0
I0
tbag7
(g8
g9
NtRp267
(I0
S'0L'
I0
I0
tbag7
(g8
g9
NtRp268
(I0
S'0L'
I0
I0
tbag7
(g8
g9
NtRp269
(I0
S'0L'
I0
I0
tbag7
(g8
g9
NtRp270
(I0
S'50fe24abf524f77de9ae86168c81e1365b7721a604ecccf373b367db8fdfe3ff099c6d57e3eb0404187e30c6c52d463315eafa28776d45046f15b7b9cbf387bf031848abee491e1d01a7f1d7543456ec7f1ae61L'
I-700
I667
tbag7
(g8
g9
NtRp271
(I0
S'0L'
I0
I0
tbag7
(g8
g9
NtRp272
(I0
S'0L'
I0
I0
tbag7
(g8
g9
NtRp273
(I0
S'0L'
I0
I0
tbag7
(g8
g9
NtRp274
(I0
S'0L'
I0
I0
tbag7
(g8
g9
NtRp275
(I0
S'0L'
I0
I0
tbag7
(g8
g9
NtRp276
(I0
S'0L'
I0
I0
tbag7
(g8
g9
NtRp277
(I0
S'0L'
I0
I0
tbag7
(g8
g9
NtRp278
(I0
S'0L'
I0
I0
tbag7
(g8
g9
NtRp279
(I0
S'0L'
I0
I0
tbag7
(g8
g9
NtRp280
(I0
S'0L'
I0
I0
tbag7
(g8
g9
NtRp281
(I0
S'0L'
I0
I0
tbag7
(g8
g9
NtRp282
(I0
S'0L'
I0
I0
tbag7
(g8
g9
NtRp283
(I0
S'0L'
I0
I0
tbag7
(g8
g9
NtRp284
(I0
S'0L'
I0
I0
tbag7
(g8
g9
NtRp285
(I0
S'0L'
I0
I0
tbag7
(g8
g9
NtRp286
(I0
S'0L'
I0
I0
tbag7
(g8
g9
NtRp287
(I0
S'0L'
I0
I0
tbag7
(g8
g9
NtRp288
(I0
S'0L'
I0
I0
tbag7
(g8
g9
NtRp289
(I0
S'0L'
I0
I0
tbag7
(g8
g9
NtRp290
(I0
S'0L'
I0
I0
tbag7
(g8
g9
NtRp291
(I0
S'0L'
I0
I0
tbag7
(g8
g9
NtRp292
(I0
S'0L'
I0
I0
tbag7
(g8
g9
NtRp293
(I0
S'0L'
I0
I0
tbag7
(g8
g9
NtRp294
(I0
S'0L'
I0
I0
tbag7
(g8
g9
NtRp295
(I0
S'0L'
I0
I0
tbag7
(g8
g9
NtRp296
(I0
S'3fb1ae8d6a7d8b2c8e7f64c3e66c1a5fbf64fc7c3e7111e1459c154b125fa0882142a9db0a7b9e93822d71416f3afd9df30865835254b1cc9b2adce41900996fe27157e28cd33e098881c48a1afee97cc78aa87L'
I-693
I666
tbag7
(g8
g9
NtRp297
(I0
S'0L'
I0
I0
tbag7
(g8
g9
NtRp298
(I0
S'0L'
I0
I0
tbag7
(g8
g9
NtRp299
(I0
S'0L'
I0
I0
tbag7
(g8
g9
NtRp300
(I0
S'0L'
I0
I0
tbag7
(g8
g9
NtRp301
(I0
S'0L'
I0
I0
tbag7
(g8
g9
NtRp302
(I0
S'0L'
I0
I0
tbag7
(g8
g9
NtRp303
(I0
S'0L'
I0
I0
tbag7
(g8
g9
NtRp304
(I0
S'0L'
I0
I0
tbag7
(g8
g9
NtRp305
(I0
S'0L'
I0
I0
tbag7
(g8
g9
NtRp306
(I0
S'0L'
I0
I0
tbag7
(g8
g9
NtRp307
(I0
S'0L'
I0
I0
tbag7
(g8
g9
NtRp308
(I0
S'0L'
I0
I0
tbag7
(g8
g9
NtRp309
(I0
S'0L'
I0
I0
tbag7
(g8
g9
NtRp310
(I0
S'0L'
I0
I0
tbag7
(g8
g9
NtRp311
(I0
S'0L'
I0
I0
tbag7
(g8
g9
NtRp312
(I0
S'0L'
I0
I0
tbag7
(g8
g9
NtRp313
(I0
S'0L'
I0
I0
tbag7
(g8
g9
NtRp314
(I0
S'0L'
I0
I0
tbag7
(g8
g9
NtRp315
(I0
S'0L'
I0
I0
tbag7
(g8
g9
NtRp316
(I0
S'0L'
I0
I0
tbag7
(g8
g9
NtRp317
(I0
S'0L'
I0
I0
tbag7
(g8
g9
NtRp318
(I0
S'0L'
I0
I0
tbag7
(g8
g9
NtRp319
(I0
S'0L'
I0
I0
tbag7
(g8
g9
NtRp320
(I0
S'0L'
I0
I0
tbag7
(g8
g9
NtRp321
(I0
S'0L'
I0
I0
tbag7
(g8
g9
NtRp322
(I0
S'cb662f352b82c6c081451f9589f0b406f36b765dc350912b12826adead6d7f2688b71eab8c71d9fe9a0ca62f2fef6e705c22ac472fb7ef4bd1da9b6a6fd969971c51eef632aceacb7f22e9554c492041a762addL'
I-695
I668
tbag7
(g8
g9
NtRp323
(I0
S'0L'
I0
I0
tbag7
(g8
g9
NtRp324
(I0
S'0L'
I0
I0
tbag7
(g8
g9
NtRp325
(I0
S'0L'
I0
I0
tbag7
(g8
g9
NtRp326
(I0
S'0L'
I0
I0
tbag7
(g8
g9
NtRp327
(I0
S'0L'
I0
I0
tbag7
(g8
g9
NtRp328
(I0
S'0L'
I0
I0
tbag7
(g8
g9
NtRp329
(I0
S'0L'
I0
I0
tbag7
(g8
g9
NtRp330
(I0
S'0L'
I0
I0
tbag7
(g8
g9
NtRp331
(I0
S'0L'
I0
I0
tbag7
(g8
g9
NtRp332
(I0
S'0L'
I0
I0
tbag7
(g8
g9
NtRp333
(I0
S'0L'
I0
I0
tbag7
(g8
g9
NtRp334
(I0
S'0L'
I0
I0
tbag7
(g8
g9
NtRp335
(I0
S'0L'
I0
I0
tbag7
(g8
g9
NtRp336
(I0
S'0L'
I0
I0
tbag7
(g8
g9
NtRp337
(I0
S'0L'
I0
I0
tbag7
(g8
g9
NtRp338
(I0
S'0L'
I0
I0
tbag7
(g8
g9
NtRp339
(I0
S'0L'
I0
I0
tbag7
(g8
g9
NtRp340
(I0
S'0L'
I0
I0
tbag7
(g8
g9
NtRp341
(I0
S'0L'
I0
I0
tbag7
(g8
g9
NtRp342
(I0
S'0L'
I0
I0
tbag7
(g8
g9
NtRp343
(I0
S'0L'
I0
I0
tbag7
(g8
g9
NtRp344
(I0
S'0L'
I0
I0
tbag7
(g8
g9
NtRp345
(I0
S'0L'
I0
I0
tbag7
(g8
g9
NtRp346
(I0
S'0L'
I0
I0
tbag7
(g8
g9
NtRp347
(I0
S'0L'
I0
I0
tbag7
(g8
g9
NtRp348
(I0
S'f596d39950fa6a74645221b27f6bbe5d32504d1f2fcdc99093cc5e8e347ccc366df1e4143b5518fcd8a9700864c3b5799e9884b6dc44a24a2590c5e5adae619a95f270ed2a687f5e70d6419e2caa84f95cc6fdbL'
I-702
I668
tbag7
(g8
g9
NtRp349
(I0
S'0L'
I0
I0
tbag7
(g8
g9
NtRp350
(I0
S'0L'
I0
I0
tbag7
(g8
g9
NtRp351
(I0
S'0L'
I0
I0
tbag7
(g8
g9
NtRp352
(I0
S'0L'
I0
I0
tbag7
(g8
g9
NtRp353
(I0
S'0L'
I0
I0
tbag7
(g8
g9
NtRp354
(I0
S'0L'
I0
I0
tbag7
(g8
g9
NtRp355
(I0
S'0L'
I0
I0
tbag7
(g8
g9
NtRp356
(I0
S'0L'
I0
I0
tbag7
(g8
g9
NtRp357
(I0
S'0L'
I0
I0
tbag7
(g8
g9
NtRp358
(I0
S'0L'
I0
I0
tbag7
(g8
g9
NtRp359
(I0
S'0L'
I0
I0
tbag7
(g8
g9
NtRp360
(I0
S'0L'
I0
I0
tbag7
(g8
g9
NtRp361
(I0
S'0L'
I0
I0
tbag7
(g8
g9
NtRp362
(I0
S'0L'
I0
I0
tbag7
(g8
g9
NtRp363
(I0
S'0L'
I0
I0
tbag7
(g8
g9
NtRp364
(I0
S'0L'
I0
I0
tbag7
(g8
g9
NtRp365
(I0
S'0L'
I0
I0
tbag7
(g8
g9
NtRp366
(I0
S'0L'
I0
I0
tbag7
(g8
g9
NtRp367
(I0
S'0L'
I0
I0
tbag7
(g8
g9
NtRp368
(I0
S'0L'
I0
I0
tbag7
(g8
g9
NtRp369
(I0
S'0L'
I0
I0
tbag7
(g8
g9
NtRp370
(I0
S'0L'
I0
I0
tbag7
(g8
g9
NtRp371
(I0
S'0L'
I0
I0
tbag7
(g8
g9
NtRp372
(I0
S'0L'
I0
I0
tbag7
(g8
g9
NtRp373
(I0
S'0L'
I0
I0
tbag7
(g8
g9
NtRp374
(I0
S'14a20995656edd8a0177d6b3484ef32e82829907efe2c9affa3a0ef8fc9060466bd56033be2cab9542fc5a90d6db94fa4f648b71eb1846365ceddf8b152a7a99f427223d0911f40f0dd26730aa623e974aa8149L'
I-695
I665
tbag7
(g8
g9
NtRp375
(I0
S'0L'
I0
I0
tbag7
(g8
g9
NtRp376
(I0
S'0L'
I0
I0
tbag7
(g8
g9
NtRp377
(I0
S'0L'
I0
I0
tbag7
(g8
g9
NtRp378
(I0
S'0L'
I0
I0
tbag7
(g8
g9
NtRp379
(I0
S'0L'
I0
I0
tbag7
(g8
g9
NtRp380
(I0
S'0L'
I0
I0
tbag7
(g8
g9
NtRp381
(I0
S'0L'
I0
I0
tbag7
(g8
g9
NtRp382
(I0
S'0L'
I0
I0
tbag7
(g8
g9
NtRp383
(I0
S'0L'
I0
I0
tbag7
(g8
g9
NtRp384
(I0
S'0L'
I0
I0
tbag7
(g8
g9
NtRp385
(I0
S'0L'
I0
I0
tbag7
(g8
g9
NtRp386
(I0
S'0L'
I0
I0
tbag7
(g8
g9
NtRp387
(I0
S'0L'
I0
I0
tbag7
(g8
g9
NtRp388
(I0
S'0L'
I0
I0
tbag7
(g8
g9
NtRp389
(I0
S'0L'
I0
I0
tbag7
(g8
g9
NtRp390
(I0
S'0L'
I0
I0
tbag7
(g8
g9
NtRp391
(I0
S'0L'
I0
I0
tbag7
(g8
g9
NtRp392
(I0
S'0L'
I0
I0
tbag7
(g8
g9
NtRp393
(I0
S'0L'
I0
I0
tbag7
(g8
g9
NtRp394
(I0
S'0L'
I0
I0
tbag7
(g8
g9
NtRp395
(I0
S'0L'
I0
I0
tbag7
(g8
g9
NtRp396
(I0
S'0L'
I0
I0
tbag7
(g8
g9
NtRp397
(I0
S'0L'
I0
I0
tbag7
(g8
g9
NtRp398
(I0
S'0L'
I0
I0
tbag7
(g8
g9
NtRp399
(I0
S'0L'
I0
I0
tbag7
(g8
g9
NtRp400
(I0
S'b3686a45efba5a2870393ed44aa78cd45a006e4dceefe9230862e5be5fccce3bb5cb166270027ddb70ba6632e83ab20136342aa08efff9b4e35edba9ce41b6784f4fb2e3efcf585e0c636f2327bd48b5d49bc77L'
I-694
I668
tbag7
(g8
g9
NtRp401
(I0
S'0L'
I0
I0
tbag7
(g8
g9
NtRp402
(I0
S'0L'
I0
I0
tbag7
(g8
g9
NtRp403
(I0
S'0L'
I0
I0
tbag7
(g8
g9
NtRp404
(I0
S'0L'
I0
I0
tbag7
(g8
g9
NtRp405
(I0
S'0L'
I0
I0
tbag7
(g8
g9
NtRp406
(I0
S'0L'
I0
I0
tbag7
(g8
g9
NtRp407
(I0
S'0L'
I0
I0
tbag7
(g8
g9
NtRp408
(I0
S'0L'
I0
I0
tbag7
(g8
g9
NtRp409
(I0
S'0L'
I0
I0
tbag7
(g8
g9
NtRp410
(I0
S'0L'
I0
I0
tbag7
(g8
g9
NtRp411
(I0
S'0L'
I0
I0
tbag7
(g8
g9
NtRp412
(I0
S'0L'
I0
I0
tbag7
(g8
g9
NtRp413
(I0
S'0L'
I0
I0
tbag7
(g8
g9
NtRp414
(I0
S'0L'
I0
I0
tbag7
(g8
g9
NtRp415
(I0
S'0L'
I0
I0
tbag7
(g8
g9
NtRp416
(I0
S'0L'
I0
I0
tbag7
(g8
g9
NtRp417
(I0
S'0L'
I0
I0
tbag7
(g8
g9
NtRp418
(I0
S'0L'
I0
I0
tbag7
(g8
g9
NtRp419
(I0
S'0L'
I0
I0
tbag7
(g8
g9
NtRp420
(I0
S'0L'
I0
I0
tbag7
(g8
g9
NtRp421
(I0
S'0L'
I0
I0
tbag7
(g8
g9
NtRp422
(I0
S'0L'
I0
I0
tbag7
(g8
g9
NtRp423
(I0
S'0L'
I0
I0
tbag7
(g8
g9
NtRp424
(I0
S'0L'
I0
I0
tbag7
(g8
g9
NtRp425
(I0
S'0L'
I0
I0
tbag7
(g8
g9
NtRp426
(I0
S'2cad6fb2b33b5a71c9cc6afcd44aea10f9ec5cf71022c9e4650063104c545845bbb5d06f6f8e62720d421fa4b5d5cb673b16528e178fc905a97bf81a81ff6ac4af2ee0792382e93b5dc3f38dbab763bc5f76fa3L'
I-695
I666
tbag7
(g8
g9
NtRp427
(I0
S'0L'
I0
I0
tbag7
(g8
g9
NtRp428
(I0
S'0L'
I0
I0
tbag7
(g8
g9
NtRp429
(I0
S'0L'
I0
I0
tbag7
(g8
g9
NtRp430
(I0
S'0L'
I0
I0
tbag7
(g8
g9
NtRp431
(I0
S'0L'
I0
I0
tbag7
(g8
g9
NtRp432
(I0
S'0L'
I0
I0
tbag7
(g8
g9
NtRp433
(I0
S'0L'
I0
I0
tbag7
(g8
g9
NtRp434
(I0
S'0L'
I0
I0
tbag7
(g8
g9
NtRp435
(I0
S'0L'
I0
I0
tbag7
(g8
g9
NtRp436
(I0
S'0L'
I0
I0
tbag7
(g8
g9
NtRp437
(I0
S'0L'
I0
I0
tbag7
(g8
g9
NtRp438
(I0
S'0L'
I0
I0
tbag7
(g8
g9
NtRp439
(I0
S'0L'
I0
I0
tbag7
(g8
g9
NtRp440
(I0
S'0L'
I0
I0
tbag7
(g8
g9
NtRp441
(I0
S'0L'
I0
I0
tbag7
(g8
g9
NtRp442
(I0
S'0L'
I0
I0
tbag7
(g8
g9
NtRp443
(I0
S'0L'
I0
I0
tbag7
(g8
g9
NtRp444
(I0
S'0L'
I0
I0
tbag7
(g8
g9
NtRp445
(I0
S'0L'
I0
I0
tbag7
(g8
g9
NtRp446
(I0
S'0L'
I0
I0
tbag7
(g8
g9
NtRp447
(I0
S'0L'
I0
I0
tbag7
(g8
g9
NtRp448
(I0
S'0L'
I0
I0
tbag7
(g8
g9
NtRp449
(I0
S'0L'
I0
I0
tbag7
(g8
g9
NtRp450
(I0
S'0L'
I0
I0
tbag7
(g8
g9
NtRp451
(I0
S'0L'
I0
I0
tbag7
(g8
g9
NtRp452
(I0
S'a9c9a781805516ca5dd17668e8e01b37428b7cd8197c0e2b7133acf8725c9e3e846b9e56d24bdd760d3ebfce5e7588df8d081a02f8d846b6cfa2640318da9ac014f81cba15b365c443d82f8b08c5e319f7e7645L'
I-694
I668
tbag7
(g8
g9
NtRp453
(I0
S'0L'
I0
I0
tbag7
(g8
g9
NtRp454
(I0
S'0L'
I0
I0
tbag7
(g8
g9
NtRp455
(I0
S'0L'
I0
I0
tbag7
(g8
g9
NtRp456
(I0
S'0L'
I0
I0
tbag7
(g8
g9
NtRp457
(I0
S'0L'
I0
I0
tbag7
(g8
g9
NtRp458
(I0
S'0L'
I0
I0
tbag7
(g8
g9
NtRp459
(I0
S'0L'
I0
I0
tbag7
(g8
g9
NtRp460
(I0
S'0L'
I0
I0
tbag7
(g8
g9
NtRp461
(I0
S'0L'
I0
I0
tbag7
(g8
g9
NtRp462
(I0
S'0L'
I0
I0
tbag7
(g8
g9
NtRp463
(I0
S'0L'
I0
I0
tbag7
(g8
g9
NtRp464
(I0
S'0L'
I0
I0
tbag7
(g8
g9
NtRp465
(I0
S'0L'
I0
I0
tbag7
(g8
g9
NtRp466
(I0
S'0L'
I0
I0
tbag7
(g8
g9
NtRp467
(I0
S'0L'
I0
I0
tbag7
(g8
g9
NtRp468
(I0
S'0L'
I0
I0
tbag7
(g8
g9
NtRp469
(I0
S'0L'
I0
I0
tbag7
(g8
g9
NtRp470
(I0
S'0L'
I0
I0
tbag7
(g8
g9
NtRp471
(I0
S'0L'
I0
I0
tbag7
(g8
g9
NtRp472
(I0
S'0L'
I0
I0
tbag7
(g8
g9
NtRp473
(I0
S'0L'
I0
I0
tbag7
(g8
g9
NtRp474
(I0
S'0L'
I0
I0
tbag7
(g8
g9
NtRp475
(I0
S'0L'
I0
I0
tbag7
(g8
g9
NtRp476
(I0
S'0L'
I0
I0
tbag7
(g8
g9
NtRp477
(I0
S'0L'
I0
I0
tbag7
(g8
g9
NtRp478
(I0
S'78c6b2eaefdf1889aac6762578fb17a89f7447359e5f823d13062193201ac287dd64525283d3f7859084f334740ee3465880734a92e4f87235c7a07594408414b3a2661fcf5489cf2bf1610f93847fa167abf79L'
I-692
I667
tbag7
(g8
g9
NtRp479
(I0
S'0L'
I0
I0
tbag7
(g8
g9
NtRp480
(I0
S'0L'
I0
I0
tbag7
(g8
g9
NtRp481
(I0
S'0L'
I0
I0
tbag7
(g8
g9
NtRp482
(I0
S'0L'
I0
I0
tbag7
(g8
g9
NtRp483
(I0
S'0L'
I0
I0
tbag7
(g8
g9
NtRp484
(I0
S'0L'
I0
I0
tbag7
(g8
g9
NtRp485
(I0
S'0L'
I0
I0
tbag7
(g8
g9
NtRp486
(I0
S'0L'
I0
I0
tbag7
(g8
g9
NtRp487
(I0
S'0L'
I0
I0
tbag7
(g8
g9
NtRp488
(I0
S'0L'
I0
I0
tbag7
(g8
g9
NtRp489
(I0
S'0L'
I0
I0
tbag7
(g8
g9
NtRp490
(I0
S'0L'
I0
I0
tbag7
(g8
g9
NtRp491
(I0
S'0L'
I0
I0
tbag7
(g8
g9
NtRp492
(I0
S'0L'
I0
I0
tbag7
(g8
g9
NtRp493
(I0
S'0L'
I0
I0
tbag7
(g8
g9
NtRp494
(I0
S'0L'
I0
I0
tbag7
(g8
g9
NtRp495
(I0
S'0L'
I0
I0
tbag7
(g8
g9
NtRp496
(I0
S'0L'
I0
I0
tbag7
(g8
g9
NtRp497
(I0
S'0L'
I0
I0
tbag7
(g8
g9
NtRp498
(I0
S'0L'
I0
I0
tbag7
(g8
g9
NtRp499
(I0
S'0L'
I0
I0
tbag7
(g8
g9
NtRp500
(I0
S'0L'
I0
I0
tbag7
(g8
g9
NtRp501
(I0
S'0L'
I0
I0
tbag7
(g8
g9
NtRp502
(I0
S'0L'
I0
I0
tbag7
(g8
g9
NtRp503
(I0
S'0L'
I0
I0
tbag7
(g8
g9
NtRp504
(I0
S'a6c0316f358c070e1a8d818fc8e8b38199634527f6802a6a00bf5edb3e26484c2537c007c7fe6020e00d582f9379d39c3da6e0f6acc342dcf24a1c1b652cdfa0971c4873f15390152f940dac861d54d3ef31ba3L'
I-694
I668
tbag7
(g8
g9
NtRp505
(I0
S'0L'
I0
I0
tbag7
(g8
g9
NtRp506
(I0
S'0L'
I0
I0
tbag7
(g8
g9
NtRp507
(I0
S'0L'
I0
I0
tbag7
(g8
g9
NtRp508
(I0
S'0L'
I0
I0
tbag7
(g8
g9
NtRp509
(I0
S'0L'
I0
I0
tbag7
(g8
g9
NtRp510
(I0
S'0L'
I0
I0
tbag7
(g8
g9
NtRp511
(I0
S'0L'
I0
I0
tbag7
(g8
g9
NtRp512
(I0
S'0L'
I0
I0
tbag7
(g8
g9
NtRp513
(I0
S'0L'
I0
I0
tbag7
(g8
g9
NtRp514
(I0
S'0L'
I0
I0
tbag7
(g8
g9
NtRp515
(I0
S'0L'
I0
I0
tbag7
(g8
g9
NtRp516
(I0
S'0L'
I0
I0
tbag7
(g8
g9
NtRp517
(I0
S'0L'
I0
I0
tbag7
(g8
g9
NtRp518
(I0
S'0L'
I0
I0
tbag7
(g8
g9
NtRp519
(I0
S'0L'
I0
I0
tbag7
(g8
g9
NtRp520
(I0
S'0L'
I0
I0
tbag7
(g8
g9
NtRp521
(I0
S'0L'
I0
I0
tbag7
(g8
g9
NtRp522
(I0
S'0L'
I0
I0
tbag7
(g8
g9
NtRp523
(I0
S'0L'
I0
I0
tbag7
(g8
g9
NtRp524
(I0
S'0L'
I0
I0
tbag7
(g8
g9
NtRp525
(I0
S'0L'
I0
I0
tbag7
(g8
g9
NtRp526
(I0
S'0L'
I0
I0
tbag7
(g8
g9
NtRp527
(I0
S'0L'
I0
I0
tbag7
(g8
g9
NtRp528
(I0
S'0L'
I0
I0
tbag7
(g8
g9
NtRp529
(I0
S'0L'
I0
I0
tbag7
(g8
g9
NtRp530
(I0
S'a9f1cdea121b9a843edcd973e57b0615f4b8b78fe7344327e18f4899afeb461e3e60e511377f302516ab3f9b1daaa8bbfa143ff2edc42181c74f1ef87e83d02a9e0d93b6eb39af81334a7a79b8fcacff7662dd9L'
I-698
I668
tbag7
(g8
g9
NtRp531
(I0
S'0L'
I0
I0
tbag7
(g8
g9
NtRp532
(I0
S'0L'
I0
I0
tbag7
(g8
g9
NtRp533
(I0
S'0L'
I0
I0
tbag7
(g8
g9
NtRp534
(I0
S'0L'
I0
I0
tbag7
(g8
g9
NtRp535
(I0
S'0L'
I0
I0
tbag7
(g8
g9
NtRp536
(I0
S'0L'
I0
I0
tbag7
(g8
g9
NtRp537
(I0
S'0L'
I0
I0
tbag7
(g8
g9
NtRp538
(I0
S'0L'
I0
I0
tbag7
(g8
g9
NtRp539
(I0
S'0L'
I0
I0
tbag7
(g8
g9
NtRp540
(I0
S'0L'
I0
I0
tbag7
(g8
g9
NtRp541
(I0
S'0L'
I0
I0
tbag7
(g8
g9
NtRp542
(I0
S'0L'
I0
I0
tbag7
(g8
g9
NtRp543
(I0
S'0L'
I0
I0
tbag7
(g8
g9
NtRp544
(I0
S'0L'
I0
I0
tbag7
(g8
g9
NtRp545
(I0
S'0L'
I0
I0
tbag7
(g8
g9
NtRp546
(I0
S'0L'
I0
I0
tbag7
(g8
g9
NtRp547
(I0
S'0L'
I0
I0
tbag7
(g8
g9
NtRp548
(I0
S'0L'
I0
I0
tbag7
(g8
g9
NtRp549
(I0
S'0L'
I0
I0
tbag7
(g8
g9
NtRp550
(I0
S'0L'
I0
I0
tbag7
(g8
g9
NtRp551
(I0
S'0L'
I0
I0
tbag7
(g8
g9
NtRp552
(I0
S'0L'
I0
I0
tbag7
(g8
g9
NtRp553
(I0
S'0L'
I0
I0
tbag7
(g8
g9
NtRp554
(I0
S'0L'
I0
I0
tbag7
(g8
g9
NtRp555
(I0
S'0L'
I0
I0
tbag7
(g8
g9
NtRp556
(I0
S'f675e78a9ebd4b786a2642148ac8ce806eb04796ca019efc66240ef858f7e8ec7e9f481160c012b358fee9c82672abe1457855de6de9e2a47ee0bc8b00427b1de3d746b23691a0d7521a0cc943f875870504761L'
I-695
I668
tbag7
(g8
g9
NtRp557
(I0
S'0L'
I0
I0
tbag7
(g8
g9
NtRp558
(I0
S'0L'
I0
I0
tbag7
(g8
g9
NtRp559
(I0
S'0L'
I0
I0
tbag7
(g8
g9
NtRp560
(I0
S'0L'
I0
I0
tbag7
(g8
g9
NtRp561
(I0
S'0L'
I0
I0
tbag7
(g8
g9
NtRp562
(I0
S'0L'
I0
I0
tbag7
(g8
g9
NtRp563
(I0
S'0L'
I0
I0
tbag7
(g8
g9
NtRp564
(I0
S'0L'
I0
I0
tbag7
(g8
g9
NtRp565
(I0
S'0L'
I0
I0
tbag7
(g8
g9
NtRp566
(I0
S'0L'
I0
I0
tbag7
(g8
g9
NtRp567
(I0
S'0L'
I0
I0
tbag7
(g8
g9
NtRp568
(I0
S'0L'
I0
I0
tbag7
(g8
g9
NtRp569
(I0
S'0L'
I0
I0
tbag7
(g8
g9
NtRp570
(I0
S'0L'
I0
I0
tbag7
(g8
g9
NtRp571
(I0
S'0L'
I0
I0
tbag7
(g8
g9
NtRp572
(I0
S'0L'
I0
I0
tbag7
(g8
g9
NtRp573
(I0
S'0L'
I0
I0
tbag7
(g8
g9
NtRp574
(I0
S'0L'
I0
I0
tbag7
(g8
g9
NtRp575
(I0
S'0L'
I0
I0
tbag7
(g8
g9
NtRp576
(I0
S'0L'
I0
I0
tbag7
(g8
g9
NtRp577
(I0
S'0L'
I0
I0
tbag7
(g8
g9
NtRp578
(I0
S'0L'
I0
I0
tbag7
(g8
g9
NtRp579
(I0
S'0L'
I0
I0
tbag7
(g8
g9
NtRp580
(I0
S'0L'
I0
I0
tbag7
(g8
g9
NtRp581
(I0
S'0L'
I0
I0
tbag7
(g8
g9
NtRp582
(I0
S'6564a9ddfcabb1184c3075dc5679be2d775674bb6420eb99185dac3dd9d4bf70efbf6129ccf62f99ec8d723e85afee72a7f39c48d6d7a156726db51f3dab4a57b476a2aa08194280e2f00a9d6820538f59bf359L'
I-693
I667
tbag7
(g8
g9
NtRp583
(I0
S'0L'
I0
I0
tbag7
(g8
g9
NtRp584
(I0
S'0L'
I0
I0
tbag7
(g8
g9
NtRp585
(I0
S'0L'
I0
I0
tbag7
(g8
g9
NtRp586
(I0
S'0L'
I0
I0
tbag7
(g8
g9
NtRp587
(I0
S'0L'
I0
I0
tbag7
(g8
g9
NtRp588
(I0
S'0L'
I0
I0
tbag7
(g8
g9
NtRp589
(I0
S'0L'
I0
I0
tbag7
(g8
g9
NtRp590
(I0
S'0L'
I0
I0
tbag7
(g8
g9
NtRp591
(I0
S'0L'
I0
I0
tbag7
(g8
g9
NtRp592
(I0
S'0L'
I0
I0
tbag7
(g8
g9
NtRp593
(I0
S'0L'
I0
I0
tbag7
(g8
g9
NtRp594
(I0
S'0L'
I0
I0
tbag7
(g8
g9
NtRp595
(I0
S'0L'
I0
I0
tbag7
(g8
g9
NtRp596
(I0
S'0L'
I0
I0
tbag7
(g8
g9
NtRp597
(I0
S'0L'
I0
I0
tbag7
(g8
g9
NtRp598
(I0
S'0L'
I0
I0
tbag7
(g8
g9
NtRp599
(I0
S'0L'
I0
I0
tbag7
(g8
g9
NtRp600
(I0
S'0L'
I0
I0
tbag7
(g8
g9
NtRp601
(I0
S'0L'
I0
I0
tbag7
(g8
g9
NtRp602
(I0
S'0L'
I0
I0
tbag7
(g8
g9
NtRp603
(I0
S'0L'
I0
I0
tbag7
(g8
g9
NtRp604
(I0
S'0L'
I0
I0
tbag7
(g8
g9
NtRp605
(I0
S'0L'
I0
I0
tbag7
(g8
g9
NtRp606
(I0
S'0L'
I0
I0
tbag7
(g8
g9
NtRp607
(I0
S'0L'
I0
I0
tbag7
(g8
g9
NtRp608
(I0
S'140030d79b9f61a74388b4f6b7cd660871c0e0d1da691a842f970cff7892b05f46e95bda31aeaf299c4dfa894a1e57cccf0f15e195f2d2573ff2a9aca9574c5c136ed78165f7486379fe85b89de3f5462fe923bL'
I-693
I665
tbag7
(g8
g9
NtRp609
(I0
S'0L'
I0
I0
tbag7
(g8
g9
NtRp610
(I0
S'0L'
I0
I0
tbag7
(g8
g9
NtRp611
(I0
S'0L'
I0
I0
tbag7
(g8
g9
NtRp612
(I0
S'0L'
I0
I0
tbag7
(g8
g9
NtRp613
(I0
S'0L'
I0
I0
tbag7
(g8
g9
NtRp614
(I0
S'0L'
I0
I0
tbag7
(g8
g9
NtRp615
(I0
S'0L'
I0
I0
tbag7
(g8
g9
NtRp616
(I0
S'0L'
I0
I0
tbag7
(g8
g9
NtRp617
(I0
S'0L'
I0
I0
tbag7
(g8
g9
NtRp618
(I0
S'0L'
I0
I0
tbag7
(g8
g9
NtRp619
(I0
S'0L'
I0
I0
tbag7
(g8
g9
NtRp620
(I0
S'0L'
I0
I0
tbag7
(g8
g9
NtRp621
(I0
S'0L'
I0
I0
tbag7
(g8
g9
NtRp622
(I0
S'0L'
I0
I0
tbag7
(g8
g9
NtRp623
(I0
S'0L'
I0
I0
tbag7
(g8
g9
NtRp624
(I0
S'0L'
I0
I0
tbag7
(g8
g9
NtRp625
(I0
S'0L'
I0
I0
tbag7
(g8
g9
NtRp626
(I0
S'0L'
I0
I0
tbag7
(g8
g9
NtRp627
(I0
S'0L'
I0
I0
tbag7
(g8
g9
NtRp628
(I0
S'0L'
I0
I0
tbag7
(g8
g9
NtRp629
(I0
S'0L'
I0
I0
tbag7
(g8
g9
NtRp630
(I0
S'0L'
I0
I0
tbag7
(g8
g9
NtRp631
(I0
S'0L'
I0
I0
tbag7
(g8
g9
NtRp632
(I0
S'0L'
I0
I0
tbag7
(g8
g9
NtRp633
(I0
S'0L'
I0
I0
tbag7
(g8
g9
NtRp634
(I0
S'9180ed24ea7a75f444ed0bdd2d2b11fae2ff5fd04042383ea27f8dccd8cfe0199f8fdc383eaa801a74dd86475e3a9e6bb31ab7e4665a01de6332cb3cc03f2c3b57a71611ee82884ac28f5c94c394fe085530bd7L'
I-697
I668
tbatb.