cnumpy.core.multiarray
_reconstruct
p1
(cnumpy
ndarray
p2
(I0
tS'b'
tRp3
(I1
(I10
I10
tcnumpy
dtype
p4
(S'O8'
I0
I1
tRp5
(I3
S'|'
NNNI-1
I-1
I63
tbI00
(lp6
ccopy_reg
_reconstructor
p7
(cmpmath.ctx_mp_python
mpf
p8
c__builtin__
object
p9
NtRp10
(I0
S'c96004562107d603da208a7f530fe67d3c511c0c706b7808353c0f4b543585d05924f1463d5c125eb457a820a5e881d33a40eb747e431d29177ba77e0f1a31184178bcc3b7877dc0f9ad2c4e28b05e888baa4d5L'
I-684
I668
tbag7
(g8
g9
NtRp11
(I1
S'72360453400448d985de1902b5abd49481891ed53f671aba9771f49b0732a773508bcb6d4402cb9972071fbe9e200a269535a61cc17178ce6b02c797692a2cea4601c754ca44327d8dcc7929f93b2d21dbe931dL'
I-686
I667
tbag7
(g8
g9
NtRp12
(I1
S'edf7e8bca398c8fb541023b7ba0c975c7d192b472b621c2cc6238f45e129398c834ecdecd0cd5689ef6ecf39689b50c5d1c9b560936595394003e50d30447538b16185c8775f53a74d26a0b2cf6aa5a9a85d683L'
I-685
I668
tbag7
(g8
g9
NtRp13
(I1
S'2d4b89b85f0bd4983ca75b04eb7ff8e6170682969b2daed8ecef5d95fdb684d51f782da4113bd69f17e095a98fb164be000132cb46520a25d59fed198bb3237de5463150f033b0c61aa33ea640bc4f6d83c2c7L'
I-680
I662
tbag7
(g8
g9
NtRp14
(I1
S'6cb6f281b1634ba8f84e179a0b26f675be3a1354e7131369b28fad1ed6a0d73995baa2c339f706c3c10d2116a6bc44b276fb519dd47d52bd6d262ce531bc84d297160e58ee4f3d17e9a699fb491484d30ad4b6fL'
I-686
I667
tbag7
(g8
g9
NtRp15
(I0
S'527bcac77512ed12e39f999e2e32fd86628b828724436a765071857699d6d784fbeb74440223cb8dbb5857b584b08563148a1e01516042e2a0fd63e2acc943336d8923bd15fd0b31f44a648a1d5e45195faa539L'
I-685
I667
tbag7
(g8
g9
NtRp16
(I1
S'7365967feb7b433620477abde5359b10e9658a996b3cc13ab6966b31e2cdca55f092c473c72ffdb8bc99af4f88af84cb22989dcb835c1c4d6a30ed345d7e8bddeb1402d2d1da5e7c43534e6b38484235d0f0eafL'
I-685
I667
tbag7
(g8
g9
NtRp17
(I0
S'480690730d75cdb35a7b02da570544f33b15f21634b29f213faadd6118525fdea9e37a8265877427808fa9eb1ec106bb67fef182589a171d449d1e1bdb72da479086446cd43f0fb45794a7d487e2ca2b4c919bdL'
I-684
I667
tbag7
(g8
g9
NtRp18
(I1
S'bdb85baddf9296ee7e7674bc66cebb26c402d8a3c2adae5085100a87703b32b4104103d6fbf8a167f97903d563a44b0299706ca918b2ce641260cc45876a13bde723502c19b396e6ebbea9b23f3729e9716073bL'
I-686
I668
tbag7
(g8
g9
NtRp19
(I0
S'520c7b61205d15cd117add48906623bc30121f498d45b9e3721ca6fd1e1c012191fa5312d3c1f0ac04ddd69b74328e3fbf175284a462d788a599160a0ba67b582cb9584427d7e969d69931dd1395cdef48754edL'
I-684
I667
tbag7
(g8
g9
NtRp20
(I1
S'72360453400448d985de1902b5abd49481891ed53f671aba9771f49b0732a773508bcb6d4402cb9972071fbe9e200a269535a61cc17178ce6b02c797692a2cea4601c754ca44327d8dcc7929f93b2d21dbe931dL'
I-686
I667
tbag7
(g8
g9
NtRp21
(I0
S'56b942ae4a310d4e44d945c4fd706da64fdf53082e394f2766edc077857fbf3ae016252ba1d79fddafe7bf2fcb5643f7490d4c21174244b0dcd10c6e96a48ffd6b41ddb722413f65e56138f5a10ba9f14193f5fL'
I-682
I667
tbag7
(g8
g9
NtRp22
(I1
S'd851c79a814872ac7aaa3e9d6795ba36bc8accdb591e2890529e1ec082d24dbedae33e6ecbf45967ee005ea9ac819f42b34e0d1294ef0cada7751910bd486776cbe5f6c787a60f0bf80882ec8e5f3c5f34f287bL'
I-687
I668
tbag7
(g8
g9
NtRp23
(I0
S'96c387ca36d2cf3687d2913e9f845fb9460775374e17a5878585962928181741d8b5e32c47bd6855c1c4edfcd0939364dc7eac36ee48fe2573f8b800149db76fb311f963d63a872c710017b95ff43b4bd861fd7L'
I-686
I668
tbag7
(g8
g9
NtRp24
(I0
S'10264ea05a6bd0349e72eba590378e48451ca4eae77932e6aa60e70afa4559bf7d1e378c45a85141ef9875b4912e4601d372e897bfa9a9debddaea0c77c7d04e52c8a2e8d73e4fd20ac570ab9c92d4822ac27e5L'
I-683
I665
tbag7
(g8
g9
NtRp25
(I0
S'712010ce4e16c96bb5842e319d2177ef4abe9b3f3701cc8d1cd31c6a7b18c2102c8a6f323a160580cc98e75d5849a8a20a1707f658102d99983198077a942642d4bb1043ada64edb35748b0b21389f1218857c1L'
I-686
I667
tbag7
(g8
g9
NtRp26
(I1
S'cc1723f8c4590236a9158cfb7ca6148d9cba2c7ad63be41f5896559e23bc0acc18d747d71759444c5d597ffc7a9ee1d3a9d93b488f052e9bf32b3ecad71c7974656b962d852b3276a75abdf984ad7ce96098f07L'
I-684
I668
tbag7
(g8
g9
NtRp27
(I1
S'3b6e6ce04aafb5eb3f091badcd8daa1ff2b8e53329d91427be8fd28a692d3243f6b8d1f000af860bcedd13eef8c62ce378f220ae4671e9767ad1330c9a603278075a44c4cffc3deb40a84cd342219d983b120c1L'
I-685
I666
tbag7
(g8
g9
NtRp28
(I1
S'300c4c3e9070b64dad928124a9d81c54e69c2733744d79c99652c0f87bb1dbc43b2f5afb9684b69fe91549dd8e808ffb84650cb85f92f6410dcceee02c3749d8c8f65e546e74f80daff87079343917f429d6137L'
I-683
I666
tbag7
(g8
g9
NtRp29
(I0
S'2282c80fa525cd0f525c19f49ffd60b7fabb5aebb1d342aa9c0e263b2fe23df57cb08daedad83ba64a4638b35e2e0936bdf40cfc52ad477885461f312300ac1df153fddeec863e5966f1aefcad9cd1650329cf5L'
I-683
I666
tbag7
(g8
g9
NtRp30
(I1
S'edf7e8bca398c8fb541023b7ba0c975c7d192b472b621c2cc6238f45e129398c834ecdecd0cd5689ef6ecf39689b50c5d1c9b560936595394003e50d30447538b16185c8775f53a74d26a0b2cf6aa5a9a85d683L'
I-685
I668
tbag7
(g8
g9
NtRp31
(I1
S'd851c79a814872ac7aaa3e9d6795ba36bc8accdb591e2890529e1ec082d24dbedae33e6ecbf45967ee005ea9ac819f42b34e0d1294ef0cada7751910bd486776cbe5f6c787a60f0bf80882ec8e5f3c5f34f287bL'
I-687
I668
tbag7
(g8
g9
NtRp32
(I0
S'fc43d7e4f213982011b547dad043779a6e54a6d1b1bbe02ece82bfa4c0fea60d3b899d636a01598ba8379b96b3e4eaae92e73c35ee5e8773dd2e158ce6551adbd00f5a9399b2b80665ebfcca9d7f105f1d2ab27L'
I-684
I668
tbag7
(g8
g9
NtRp33
(I1
S'8c7b404bff61e5065a737b79096a97e31972c355e96c2a0f73755553aa33566bb5837bf00b65df9409b542f1998bfb208df8c8d06a40fa45c65e24dc44d29d9883728c64b073f1c7154b289247c317903ebcfa7L'
I-689
I668
tbag7
(g8
g9
NtRp34
(I0
S'f4dc409f985356975671317a99447d00e098ccb11f02e52a1589a8d489a6c5220f97fd5d20ba3a413b1f47a76ff2c94ac7c6c831df52a0520d6aba06b64966753ef4bedfbb037f3721c14d0c8441b8c8461b2fL'
I-688
I664
tbag7
(g8
g9
NtRp35
(I1
S'3e7bb6a7fa4485214e70bd8f29dbf4f4165ae0817ac9758d67e9338328cce3031ff73bd4cb0df783f5fe2c8736707f36aadc183ecf887c26ffd0a14006657052f18ba6197a18beea7a92964c9a29cd5549392fdL'
I-683
I666
tbag7
(g8
g9
NtRp36
(I1
S'adf08f96d95a58372a601fce2fff3f14cb23ce9c8f5bf487c3e07b4a61edde7543cfa3ab67b8828977ff89d720e388e03c91d7b8367f9fc5fd08d9940e50f460df46f855d25132cd73de47adb19b42a9d3cb1e9L'
I-687
I668
tbag7
(g8
g9
NtRp37
(I1
S'ab6252ab9720ae688c4e2b425572005d1a392c6e137d5137534dea58c04c7db21430a4ee5a653d9d122f609c65c0d436777d075624121764f17190cd94c2290aab50cd37e3890e7b13a448b8508748c0ba5a9ebL'
I-685
I668
tbag7
(g8
g9
NtRp38
(I0
S'47e9eb7c82e1ff5550cf775ee2abe813339e225919a513164b68dc10e5cd381ab924033f715b527eb3d41e285e2a675bf4ee33097d0493805af30b30e4b1e0a2c0344fec20a8fca212769ee1ea92dfbe651528dL'
I-687
I667
tbag7
(g8
g9
NtRp39
(I1
S'110c1224290adfd566d6f97e21dc9e2c17cb7a27a82c36dbf276504def9ddc985af16cc0c3a18183c57b4cd40a3fc758ee4f3c98485ebb05c3e5321516a5de7f66f720c2e6395d3c551e3cea5c40ae250d0f99bL'
I-682
I665
tbag7
(g8
g9
NtRp40
(I1
S'2d4b89b85f0bd4983ca75b04eb7ff8e6170682969b2daed8ecef5d95fdb684d51f782da4113bd69f17e095a98fb164be000132cb46520a25d59fed198bb3237de5463150f033b0c61aa33ea640bc4f6d83c2c7L'
I-680
I662
tbag7
(g8
g9
NtRp41
(I0
S'96c387ca36d2cf3687d2913e9f845fb9460775374e17a5878585962928181741d8b5e32c47bd6855c1c4edfcd0939364dc7eac36ee48fe2573f8b800149db76fb311f963d63a872c710017b95ff43b4bd861fd7L'
I-686
I668
tbag7
(g8
g9
NtRp42
(I1
S'8c7b404bff61e5065a737b79096a97e31972c355e96c2a0f73755553aa33566bb5837bf00b65df9409b542f1998bfb208df8c8d06a40fa45c65e24dc44d29d9883728c64b073f1c7154b289247c317903ebcfa7L'
I-689
I668
tbag7
(g8
g9
NtRp43
(I0
S'10295aa2d0edb1f74d40c4b7dfdea75cce9b1f3288b4e67db350509823e82477735614840aff2f64ae49f6695d6d3eed97b0a27e2ada484cb17338bcd32c11f43bfcb254023d41f964f0f7c798bfab197230cffL'
I-682
I665
tbag7
(g8
g9
NtRp44
(I0
S'450fe5945f62a483869e503521a8809b5ae318d99bb33b27720aacb940ec0866799511fac1c41c3eeb5a3265aea78a12742d2d5b3ceeb24830ff3089ed05e736a37bb31c92544ffc52e66d24c745991d8cda8dfL'
I-685
I667
tbag7
(g8
g9
NtRp45
(I0
S'e4847b1594a8a1e1350a9d839d49b589d82cb753b43340054325e888114bff92d4acf3b23e91a2f415f1d8f781b5d817f041f7bf7998e5a7dfb1e262581bc5271423be58ca3d00f739db2fbfb3f650c31cc4f91L'
I-687
I668
tbag7
(g8
g9
NtRp46
(I0
S'ca9f540590d5a6144219dac3542dc9f7565a2aa335a851efb30dfb38bfdb5f7113b7fcf862be31cca3e4f15df35e867299da299284cdb58c3ef742e7c9dbd698f35a3e01a91d0f66fd8fe4de7be2737e7276987L'
I-688
I668
tbag7
(g8
g9
NtRp47
(I1
S'40b9c8b65fa0f6609d2784bb5bfe6a4935dedc41cfeb8a0ad61293847343bfda2c75c2e4bf0d778946d52a3880cb7ce6dcdbc1c6cad58f76a4ff51119e64766fa22072932e4f3a8b284adaf991680af96a871c3L'
I-685
I667
tbag7
(g8
g9
NtRp48
(I0
S'9d89284bb3fa5d5e208c0daf278fc2bc98d7af3a34b595d38ffaca5a9896ba06ba400438986068771ead7e94680a625dab7d72c2faefc33620e855af0efcf49c324480e8e58878b542eff10beb78e91c020d9cdL'
I-686
I668
tbag7
(g8
g9
NtRp49
(I1
S'1aa242cd45583d7e91c8c5f92f28322cf288bf0266467a3416210ad79c8b6fdebfe9757dc045f2b45c7c30df4361e3aa6e3d90f5cf216c8930706163aa0117cfbf567be3002ed45c42713fdd6e8ab6bd681079L'
I-680
I661
tbag7
(g8
g9
NtRp50
(I1
S'6cb6f281b1634ba8f84e179a0b26f675be3a1354e7131369b28fad1ed6a0d73995baa2c339f706c3c10d2116a6bc44b276fb519dd47d52bd6d262ce531bc84d297160e58ee4f3d17e9a699fb491484d30ad4b6fL'
I-686
I667
tbag7
(g8
g9
NtRp51
(I0
S'10264ea05a6bd0349e72eba590378e48451ca4eae77932e6aa60e70afa4559bf7d1e378c45a85141ef9875b4912e4601d372e897bfa9a9debddaea0c77c7d04e52c8a2e8d73e4fd20ac570ab9c92d4822ac27e5L'
I-683
I665
tbag7
(g8
g9
NtRp52
(I0
S'f4dc409f985356975671317a99447d00e098ccb11f02e52a1589a8d489a6c5220f97fd5d20ba3a413b1f47a76ff2c94ac7c6c831df52a0520d6aba06b64966753ef4bedfbb037f3721c14d0c8441b8c8461b2fL'
I-688
I664
tbag7
(g8
g9
NtRp53
(I0
S'450fe5945f62a483869e503521a8809b5ae318d99bb33b27720aacb940ec0866799511fac1c41c3eeb5a3265aea78a12742d2d5b3ceeb24830ff3089ed05e736a37bb31c92544ffc52e66d24c745991d8cda8dfL'
I-685
I667
tbag7
(g8
g9
NtRp54
(I0
S'db144d871b9b12a5cf4af682d331da901a681cc015bf9a3a9367cf38b6858dae247d24c790503b40012a9a06b9e112b607733bb817bf98645d9fcabe1ce488f23e402c9191fca8e53d149b943233c2733aa57cbL'
I-685
I668
tbag7
(g8
g9
NtRp55
(I0
S'aa2b917065a3579de7db0a0bcd7fe1fa3f1d660edeb41f4bfdbe61bf18da3d21730fb512ff807e1d3abbd133275bb17a545bf1d9d1d95a9304f8ab156213962f8eb24a0551735bbf8ce510392981d4817137d9fL'
I-689
I668
tbag7
(g8
g9
NtRp56
(I0
S'89ebfc80e834c08be7994d36dc94adbad1980fdba74370b4c536908a5104f4c806185b7305d2899b627a838a0e78854f3ff85b0f06df185d2bb8139c7d9667ad318a704dd52d03f4d573b19dba7fa2c25df707L'
I-683
I664
tbag7
(g8
g9
NtRp57
(I1
S'9eeeae64a642dc606106642f778c880203ff5116b72882a6be9f1ea0d0d0c8a35ab83996bb57c8bd6b1450104c8c8d69e3c770c2765290fb3a0448e2ed7e00b28f82b1aa00ff12bc82e3fb3c2f757ca7cc2f209L'
I-686
I668
tbag7
(g8
g9
NtRp58
(I1
S'a918b5f40046e7f364e4e1d87ebb507af6bf2201d8aaeed8497a0c6f41e552c92e9fbfded03281d13f8036cf8f28692ea7991c75b2122bfd6c059d6389a83364bb38c2c069121da50279184be056c7993965e63L'
I-687
I668
tbag7
(g8
g9
NtRp59
(I1
S'4769fbcc20864550b5a421c65a16df4d1838af8fd35b7e094a3acc93cb2d82e494acdc766681eb06ee7c3653ffc614cf2d167bbd329c9f2a9226a09f42a5980eab84443cd61b12803c2eb030d449c7cb78f04e9L'
I-686
I667
tbag7
(g8
g9
NtRp60
(I0
S'527bcac77512ed12e39f999e2e32fd86628b828724436a765071857699d6d784fbeb74440223cb8dbb5857b584b08563148a1e01516042e2a0fd63e2acc943336d8923bd15fd0b31f44a648a1d5e45195faa539L'
I-685
I667
tbag7
(g8
g9
NtRp61
(I0
S'712010ce4e16c96bb5842e319d2177ef4abe9b3f3701cc8d1cd31c6a7b18c2102c8a6f323a160580cc98e75d5849a8a20a1707f658102d99983198077a942642d4bb1043ada64edb35748b0b21389f1218857c1L'
I-686
I667
tbag7
(g8
g9
NtRp62
(I1
S'3e7bb6a7fa4485214e70bd8f29dbf4f4165ae0817ac9758d67e9338328cce3031ff73bd4cb0df783f5fe2c8736707f36aadc183ecf887c26ffd0a14006657052f18ba6197a18beea7a92964c9a29cd5549392fdL'
I-683
I666
tbag7
(g8
g9
NtRp63
(I0
S'e4847b1594a8a1e1350a9d839d49b589d82cb753b43340054325e888114bff92d4acf3b23e91a2f415f1d8f781b5d817f041f7bf7998e5a7dfb1e262581bc5271423be58ca3d00f739db2fbfb3f650c31cc4f91L'
I-687
I668
tbag7
(g8
g9
NtRp64
(I0
S'aa2b917065a3579de7db0a0bcd7fe1fa3f1d660edeb41f4bfdbe61bf18da3d21730fb512ff807e1d3abbd133275bb17a545bf1d9d1d95a9304f8ab156213962f8eb24a0551735bbf8ce510392981d4817137d9fL'
I-689
I668
tbag7
(g8
g9
NtRp65
(I0
S'428b93de1a4cbb0bc84c4502bf4d2f309fb50803681ff7e59adc3dd89ce8ef35967d4e50baec2a4ac17626f5420b95d3f951925692b3ab62fc36b6f6e3a4b89ccb141a9a3c2dfe43d323680e6dcd7159b5263efL'
I-683
I667
tbag7
(g8
g9
NtRp66
(I0
S'9795ae40f72f21f93806d9ded617a3c34443c0f76e5b9a3b730616e4dbd5366cae7cb446dc63a2e205bf6d3fc3d4ec4751745121e4fc60aa5a304b8558dbe40e24ea7e63f7cd6d50edd6ef3e3f5312a17199a7bL'
I-685
I668
tbag7
(g8
g9
NtRp67
(I0
S'3925ef9bb51c9eb51e847f3e458ec8599e8f78985d21208421532adc54063a07963b8b7a8d17b2ca7621a99d5b87882087df429d10af2176dfa999c5827911b1c58a9d5963be4cacbcbc198f0fcc584d6ec0fa7L'
I-684
I666
tbag7
(g8
g9
NtRp68
(I0
S'73e4fd880b29a694fdf15386531e9679bb4f93cb1b2d7b1a01a35381220b4161738c3573ef1944a4611e218cec6825f69096f65f028514500b09d5cfb63ebf90fb83efddec081445c44ec93e24090d7f30698a7L'
I-686
I667
tbag7
(g8
g9
NtRp69
(I1
S'214da20bc36d702801dafb6e7e15263f18c232734a10ca0d34144607b8c5e7a0fd5e4de83e5b1febe1b896656cbc505307f69b8739044382a4257ca2cc66302014732a6825111b83850aa69686d5c74cd6c0ed1L'
I-688
I666
tbag7
(g8
g9
NtRp70
(I1
S'7365967feb7b433620477abde5359b10e9658a996b3cc13ab6966b31e2cdca55f092c473c72ffdb8bc99af4f88af84cb22989dcb835c1c4d6a30ed345d7e8bddeb1402d2d1da5e7c43534e6b38484235d0f0eafL'
I-685
I667
tbag7
(g8
g9
NtRp71
(I1
S'cc1723f8c4590236a9158cfb7ca6148d9cba2c7ad63be41f5896559e23bc0acc18d747d71759444c5d597ffc7a9ee1d3a9d93b488f052e9bf32b3ecad71c7974656b962d852b3276a75abdf984ad7ce96098f07L'
I-684
I668
tbag7
(g8
g9
NtRp72
(I1
S'adf08f96d95a58372a601fce2fff3f14cb23ce9c8f5bf487c3e07b4a61edde7543cfa3ab67b8828977ff89d720e388e03c91d7b8367f9fc5fd08d9940e50f460df46f855d25132cd73de47adb19b42a9d3cb1e9L'
I-687
I668
tbag7
(g8
g9
NtRp73
(I0
S'ca9f540590d5a6144219dac3542dc9f7565a2aa335a851efb30dfb38bfdb5f7113b7fcf862be31cca3e4f15df35e867299da299284cdb58c3ef742e7c9dbd698f35a3e01a91d0f66fd8fe4de7be2737e7276987L'
I-688
I668
tbag7
(g8
g9
NtRp74
(I0
S'89ebfc80e834c08be7994d36dc94adbad1980fdba74370b4c536908a5104f4c806185b7305d2899b627a838a0e78854f3ff85b0f06df185d2bb8139c7d9667ad318a704dd52d03f4d573b19dba7fa2c25df707L'
I-683
I664
tbag7
(g8
g9
NtRp75
(I0
S'9795ae40f72f21f93806d9ded617a3c34443c0f76e5b9a3b730616e4dbd5366cae7cb446dc63a2e205bf6d3fc3d4ec4751745121e4fc60aa5a304b8558dbe40e24ea7e63f7cd6d50edd6ef3e3f5312a17199a7bL'
I-685
I668
tbag7
(g8
g9
NtRp76
(I0
S'5dd34a1ad97c37605fb267db0d9ae891f5bd1929a9bdd12db3c076d6bd0fbaf3b4f6d7ad87d9861bc6cd371db8cb44982d638f4fff09a88d73dae647ed15e31bfbe9e7054c0f98c16bbddec54ac2949da044bb7L'
I-682
I667
tbag7
(g8
g9
NtRp77
(I0
S'a63b20f3910a84254c71b240fc148e90239d6013e9f7ae660dff41d8e31e26cf4f7192b60d26f5ca76c28e17b805f909e21b8b44338bdfefaf1d90ae2cc0e9be3f76578ad072cbbe738a71cc1488bd9a16be9afL'
I-686
I668
tbag7
(g8
g9
NtRp78
(I0
S'878dc34361717244cb493960a04dd33c53a5ef1eea0457d7df4e1155a3aaf0640580d090cc85b254b5c82b2c772047896436ccfda8d63a09609e9963ed7d549d046ccdd3fbc2279f40904e100bba61d00a9d2d3L'
I-684
I668
tbag7
(g8
g9
NtRp79
(I1
S'3e0dac95cb4334a1c38aac945cfef5968164e78283de44cdd1274ce16bd025034f5ea777931053ea3ffc0d0a3ee5f6b38887c288e2ac87370bf1683080d6036d550c2a3385e17c37c0d784a63b177ab9235b33L'
I-679
I662
tbag7
(g8
g9
NtRp80
(I0
S'480690730d75cdb35a7b02da570544f33b15f21634b29f213faadd6118525fdea9e37a8265877427808fa9eb1ec106bb67fef182589a171d449d1e1bdb72da479086446cd43f0fb45794a7d487e2ca2b4c919bdL'
I-684
I667
tbag7
(g8
g9
NtRp81
(I1
S'3b6e6ce04aafb5eb3f091badcd8daa1ff2b8e53329d91427be8fd28a692d3243f6b8d1f000af860bcedd13eef8c62ce378f220ae4671e9767ad1330c9a603278075a44c4cffc3deb40a84cd342219d983b120c1L'
I-685
I666
tbag7
(g8
g9
NtRp82
(I1
S'ab6252ab9720ae688c4e2b425572005d1a392c6e137d5137534dea58c04c7db21430a4ee5a653d9d122f609c65c0d436777d075624121764f17190cd94c2290aab50cd37e3890e7b13a448b8508748c0ba5a9ebL'
I-685
I668
tbag7
(g8
g9
NtRp83
(I1
S'40b9c8b65fa0f6609d2784bb5bfe6a4935dedc41cfeb8a0ad61293847343bfda2c75c2e4bf0d778946d52a3880cb7ce6dcdbc1c6cad58f76a4ff51119e64766fa22072932e4f3a8b284adaf991680af96a871c3L'
I-685
I667
tbag7
(g8
g9
NtRp84
(I1
S'9eeeae64a642dc606106642f778c880203ff5116b72882a6be9f1ea0d0d0c8a35ab83996bb57c8bd6b1450104c8c8d69e3c770c2765290fb3a0448e2ed7e00b28f82b1aa00ff12bc82e3fb3c2f757ca7cc2f209L'
I-686
I668
tbag7
(g8
g9
NtRp85
(I0
S'3925ef9bb51c9eb51e847f3e458ec8599e8f78985d21208421532adc54063a07963b8b7a8d17b2ca7621a99d5b87882087df429d10af2176dfa999c5827911b1c58a9d5963be4cacbcbc198f0fcc584d6ec0fa7L'
I-684
I666
tbag7
(g8
g9
NtRp86
(I0
S'a63b20f3910a84254c71b240fc148e90239d6013e9f7ae660dff41d8e31e26cf4f7192b60d26f5ca76c28e17b805f909e21b8b44338bdfefaf1d90ae2cc0e9be3f76578ad072cbbe738a71cc1488bd9a16be9afL'
I-686
I668
tbag7
(g8
g9
NtRp87
(I0
S'bf28263ecd80ad7a82509fa8ecb0ce50ac5de7a5cf89ec97e6016e94b571f0126f21d682ce40bad108330454a77329b211a4ea3be58292db264fdbe6e7dc821272dadc573612faf1243720c9eec99913fe1959bL'
I-685
I668
tbag7
(g8
g9
NtRp88
(I1
S'11da8392b1fc7e2d5ed90a20497078f6b0b74951f71c07b129edea67c740c150f9826bc040e7eb9f8162c8abf4e7fd570ab8afc865212da48ef97615eeedda639c5752e3e799cda651be5b5d2ee9785da46a5b5L'
I-686
I665
tbag7
(g8
g9
NtRp89
(I1
S'23dd3da3f3c6e4932d86255bb400391c69d289ed7c8e6dfcc6d2a96ad3af0cf2489fc1b212d946e1a7f188944e5b29cb28d5ba1dd1fdd519fccdfad8acfd70cd7f16b7fcf646628ee791bde950808e3e8f76cd3L'
I-684
I666
tbag7
(g8
g9
NtRp90
(I1
S'bdb85baddf9296ee7e7674bc66cebb26c402d8a3c2adae5085100a87703b32b4104103d6fbf8a167f97903d563a44b0299706ca918b2ce641260cc45876a13bde723502c19b396e6ebbea9b23f3729e9716073bL'
I-686
I668
tbag7
(g8
g9
NtRp91
(I1
S'300c4c3e9070b64dad928124a9d81c54e69c2733744d79c99652c0f87bb1dbc43b2f5afb9684b69fe91549dd8e808ffb84650cb85f92f6410dcceee02c3749d8c8f65e546e74f80daff87079343917f429d6137L'
I-683
I666
tbag7
(g8
g9
NtRp92
(I0
S'47e9eb7c82e1ff5550cf775ee2abe813339e225919a513164b68dc10e5cd381ab924033f715b527eb3d41e285e2a675bf4ee33097d0493805af30b30e4b1e0a2c0344fec20a8fca212769ee1ea92dfbe651528dL'
I-687
I667
tbag7
(g8
g9
NtRp93
(I0
S'9d89284bb3fa5d5e208c0daf278fc2bc98d7af3a34b595d38ffaca5a9896ba06ba400438986068771ead7e94680a625dab7d72c2faefc33620e855af0efcf49c324480e8e58878b542eff10beb78e91c020d9cdL'
I-686
I668
tbag7
(g8
g9
NtRp94
(I1
S'a918b5f40046e7f364e4e1d87ebb507af6bf2201d8aaeed8497a0c6f41e552c92e9fbfded03281d13f8036cf8f28692ea7991c75b2122bfd6c059d6389a83364bb38c2c069121da50279184be056c7993965e63L'
I-687
I668
tbag7
(g8
g9
NtRp95
(I0
S'73e4fd880b29a694fdf15386531e9679bb4f93cb1b2d7b1a01a35381220b4161738c3573ef1944a4611e218cec6825f69096f65f028514500b09d5cfb63ebf90fb83efddec081445c44ec93e24090d7f30698a7L'
I-686
I667
tbag7
(g8
g9
NtRp96
(I0
S'878dc34361717244cb493960a04dd33c53a5ef1eea0457d7df4e1155a3aaf0640580d090cc85b254b5c82b2c772047896436ccfda8d63a09609e9963ed7d549d046ccdd3fbc2279f40904e100bba61d00a9d2d3L'
I-684
I668
tbag7
(g8
g9
NtRp97
(I1
S'11da8392b1fc7e2d5ed90a20497078f6b0b74951f71c07b129edea67c740c150f9826bc040e7eb9f8162c8abf4e7fd570ab8afc865212da48ef97615eeedda639c5752e3e799cda651be5b5d2ee9785da46a5b5L'
I-686
I665
tbag7
(g8
g9
NtRp98
(I0
S'ad556407c04b95e9f9eb8efcc2c0894ba0cefbc946c4fd65c6d1c77a90e6dac06e005155f8f0f7fb5fc6e8325e8680ade6281075f7b55212eb56b24e48c086cc6cd98e65a5400c524376f5d03673bebeaece997L'
I-684
I668
tbag7
(g8
g9
NtRp99
(I1
S'288ef996889fe31a1360708e15012624c0885b1eb0bd4e7aed2b1ac68fbb2ecd0f5f9036a2cb764296441ac3b44b4b930f01aa05e0a5bd4b7b0bda4b66357f5b7def7a9baf9d0593f0d23ff12dbb3969d80dce3L'
I-683
I666
tbag7
(g8
g9
NtRp100
(I0
S'520c7b61205d15cd117add48906623bc30121f498d45b9e3721ca6fd1e1c012191fa5312d3c1f0ac04ddd69b74328e3fbf175284a462d788a599160a0ba67b582cb9584427d7e969d69931dd1395cdef48754edL'
I-684
I667
tbag7
(g8
g9
NtRp101
(I0
S'2282c80fa525cd0f525c19f49ffd60b7fabb5aebb1d342aa9c0e263b2fe23df57cb08daedad83ba64a4638b35e2e0936bdf40cfc52ad477885461f312300ac1df153fddeec863e5966f1aefcad9cd1650329cf5L'
I-683
I666
tbag7
(g8
g9
NtRp102
(I1
S'110c1224290adfd566d6f97e21dc9e2c17cb7a27a82c36dbf276504def9ddc985af16cc0c3a18183c57b4cd40a3fc758ee4f3c98485ebb05c3e5321516a5de7f66f720c2e6395d3c551e3cea5c40ae250d0f99bL'
I-682
I665
tbag7
(g8
g9
NtRp103
(I1
S'1aa242cd45583d7e91c8c5f92f28322cf288bf0266467a3416210ad79c8b6fdebfe9757dc045f2b45c7c30df4361e3aa6e3d90f5cf216c8930706163aa0117cfbf567be3002ed45c42713fdd6e8ab6bd681079L'
I-680
I661
tbag7
(g8
g9
NtRp104
(I1
S'4769fbcc20864550b5a421c65a16df4d1838af8fd35b7e094a3acc93cb2d82e494acdc766681eb06ee7c3653ffc614cf2d167bbd329c9f2a9226a09f42a5980eab84443cd61b12803c2eb030d449c7cb78f04e9L'
I-686
I667
tbag7
(g8
g9
NtRp105
(I1
S'214da20bc36d702801dafb6e7e15263f18c232734a10ca0d34144607b8c5e7a0fd5e4de83e5b1febe1b896656cbc505307f69b8739044382a4257ca2cc66302014732a6825111b83850aa69686d5c74cd6c0ed1L'
I-688
I666
tbag7
(g8
g9
NtRp106
(I1
S'3e0dac95cb4334a1c38aac945cfef5968164e78283de44cdd1274ce16bd025034f5ea777931053ea3ffc0d0a3ee5f6b38887c288e2ac87370bf1683080d6036d550c2a3385e17c37c0d784a63b177ab9235b33L'
I-679
I662
tbag7
(g8
g9
NtRp107
(I1
S'23dd3da3f3c6e4932d86255bb400391c69d289ed7c8e6dfcc6d2a96ad3af0cf2489fc1b212d946e1a7f188944e5b29cb28d5ba1dd1fdd519fccdfad8acfd70cd7f16b7fcf646628ee791bde950808e3e8f76cd3L'
I-684
I666
tbag7
(g8
g9
NtRp108
(I1
S'288ef996889fe31a1360708e15012624c0885b1eb0bd4e7aed2b1ac68fbb2ecd0f5f9036a2cb764296441ac3b44b4b930f01aa05e0a5bd4b7b0bda4b66357f5b7def7a9baf9d0593f0d23ff12dbb3969d80dce3L'
I-683
I666
tbag7
(g8
g9
NtRp109
(I0
S'c7a9dcec8f08e7a5c3a75b7506bb998f4e96f347647733198143369e9fd1f57ea6a19f3e2f1a71f79551467a35795fe1a49cacc39e6aa8d7e631adc777c420321927cbc965ccfd8c60fb7e0f97703467f38be87L'
I-684
I668
tbatb.