cnumpy.core.multiarray
_reconstruct
p1
(cnumpy
ndarray
p2
(I0
tS'b'
tRp3
(I1
(I10
I10
tcnumpy
dtype
p4
(S'O8'
I0
I1
tRp5
(I3
S'|'
NNNI-1
I-1
I63
tbI00
(lp6
ccopy_reg
_reconstructor
p7
(cmpmath.ctx_mp_python
mpf
p8
c__builtin__
object
p9
NtRp10
(I0
S'a70a8873e888368f30f83773bceafe9da8c9dbe705d340ab784e69e5ab61bec520e18f065b9c169bb647'
I-351
I336
tbag7
(g8
g9
NtRp11
(I0
S'24f2b87cbf710cf6c9107a842b00fc33788cf1c96c3ec3ddb909ec792a6d33707c05362610b3b0398551'
I-352
I334
tbag7
(g8
g9
NtRp12
(I0
S'414337ac5853538efc345b3046c6e7a5093d2d32d60cd38f99503164836476927bb15c3c3108e543869b'
I-353
I335
tbag7
(g8
g9
NtRp13
(I1
S'96aa51b72e408b40a3b7b57ab1ffda5c18cb1d830e1d470823b178b97e6a8d0e46940e47580963adad5f'
I-352
I336
tbag7
(g8
g9
NtRp14
(I0
S'283351e6de8838231b7f24cfa92fa232e5de2121b9ef9cf67c5ea25460e27dbe73790d904a9af575e4d7'
I-354
I334
tbag7
(g8
g9
NtRp15
(I1
S'22351dc66f39c4c326c975e098ef14d07b3bf4d9027671f8df75dd6ce2a1f2ff86a70d383dc002c752cf'
I-351
I334
tbag7
(g8
g9
NtRp16
(I1
S'29f7fbd6c5d3b4959666717b85e0781c3dc7f26c0aa2cb459c36b688647651642de129d8c738bd7599f3'
I-352
I334
tbag7
(g8
g9
NtRp17
(I1
S'ef4779126d8facc6e639787f6975d9814427c721305029fe6a7973740b1dd56c4dcaf500b1fa8119e93'
I-354
I332
tbag7
(g8
g9
NtRp18
(I0
S'faa7e90b3f466ef9b2c7b0e0f0787578dd6c78df4b04941978983464850253310b723010eca2cd5c08eb'
I-354
I336
tbag7
(g8
g9
NtRp19
(I1
S'dc8cb3dcad7391596b8426ab725c49e6b22f96e90355f498da4ad6043475b8bdd6d2ad74bcfb956db75'
I-353
I332
tbag7
(g8
g9
NtRp20
(I0
S'24f2b87cbf710cf6c9107a842b00fc33788cf1c96c3ec3ddb909ec792a6d33707c05362610b3b0398551'
I-352
I334
tbag7
(g8
g9
NtRp21
(I0
S'95408ba63f5f55fc676e7d65215d28274f96d1b8e016f66db17f259f7e3da609498e3c2af4e8ab9d9005'
I-352
I336
tbag7
(g8
g9
NtRp22
(I0
S'9eb0ceff38f8f23aef4b13188087b67be21ff0a6d3f24d34ec46709ab8296781fcf67a4c7ef95cc7c107'
I-354
I336
tbag7
(g8
g9
NtRp23
(I1
S'3d2e90047a438d52addb0baa5b5672621eb9fd80f03cdc0aa8edfa5ce22a2f8e56c57862171b5c12a2ed'
I-355
I334
tbag7
(g8
g9
NtRp24
(I1
S'308a1f6785fa6c07ef96199fdea4d51c100c257209346526e0e45d2e0b1c90ed3fc3e8384f66c3f7aab3'
I-354
I334
tbag7
(g8
g9
NtRp25
(I0
S'733cd89e670cba6ca07d5af5c17d3c46bbdc6e7e48e983938421b8c2f6d48afe622535c0117af053dcd'
I-349
I331
tbag7
(g8
g9
NtRp26
(I1
S'8625a51c88ce5a9c6940b24914862956b6b42c8b8eadbae40081a9fa44992a39d1e5c465261cb40acf6b'
I-354
I336
tbag7
(g8
g9
NtRp27
(I1
S'5e05d3d289958c450373f86b26adda276d5409c67f64fbef4a5574a355cf8d4d797472852cb1d41235ed'
I-354
I335
tbag7
(g8
g9
NtRp28
(I1
S'6e33ec6811c5385f8c45d965af880c4235744a8e2244bb1f1f0cecff84da465d9f2051ffedbdb748eed5'
I-353
I335
tbag7
(g8
g9
NtRp29
(I0
S'909de877d325d191c63f4421a7e5c5675e16b59bfbc4253c4fdb0bf986a51e5f0c167d60811aa7fbfd9'
I-349
I332
tbag7
(g8
g9
NtRp30
(I0
S'414337ac5853538efc345b3046c6e7a5093d2d32d60cd38f99503164836476927bb15c3c3108e543869b'
I-353
I335
tbag7
(g8
g9
NtRp31
(I0
S'9eb0ceff38f8f23aef4b13188087b67be21ff0a6d3f24d34ec46709ab8296781fcf67a4c7ef95cc7c107'
I-354
I336
tbag7
(g8
g9
NtRp32
(I0
S'98b35d837a5424e4f021dfc699e2024067a930796632732f47661c2be4fa79d062f1b8169bba994c3f93'
I-352
I336
tbag7
(g8
g9
NtRp33
(I0
S'8f193de8f51c9b0214acfed84e61007304b36742f906c988ca58bd827a61817f62a771c7b483de51e24b'
I-354
I336
tbag7
(g8
g9
NtRp34
(I1
S'ad85594653b31ed18dd56301b25b35c42b92b16c63768fe8c189ad1808d9073aaf8f6a0b3a92d69fd01'
I-355
I332
tbag7
(g8
g9
NtRp35
(I0
S'3e7ad31fc68761c79589e634c35e3e8254468f7e4c4d76a80bcdb2b19326f0164355271914960af19953'
I-353
I334
tbag7
(g8
g9
NtRp36
(I0
S'840d095d34ecf52ee9b497a252f1bbe5fc2d7e6cad9fde3353e418b815eedf47630e0cb7e100ffbc2f3d'
I-354
I336
tbag7
(g8
g9
NtRp37
(I0
S'4d2b1fed8c518981692e6b278f8a7a05b1e970122685454aaf5e804b6ca09bef2ddeabbf10997472c5c7'
I-355
I335
tbag7
(g8
g9
NtRp38
(I0
S'53f31b8724bf2356245db01975c79e3dd721b578df15e968fd555af38b0a422b09bbdab9f066f8afd975'
I-354
I335
tbag7
(g8
g9
NtRp39
(I1
S'3d55594187602e8399343853434115d9c73582d97a4f704995d692fdce0f27fa66fa619dd28d2b5d411d'
I-355
I334
tbag7
(g8
g9
NtRp40
(I1
S'96aa51b72e408b40a3b7b57ab1ffda5c18cb1d830e1d470823b178b97e6a8d0e46940e47580963adad5f'
I-352
I336
tbag7
(g8
g9
NtRp41
(I1
S'3d2e90047a438d52addb0baa5b5672621eb9fd80f03cdc0aa8edfa5ce22a2f8e56c57862171b5c12a2ed'
I-355
I334
tbag7
(g8
g9
NtRp42
(I0
S'8f193de8f51c9b0214acfed84e61007304b36742f906c988ca58bd827a61817f62a771c7b483de51e24b'
I-354
I336
tbag7
(g8
g9
NtRp43
(I0
S'896a7710086824e0fe2b84223ffdd27cc289eda2f153f47b7239ea289f84f34f89d19a63ca687268ead'
I-348
I332
tbag7
(g8
g9
NtRp44
(I1
S'40fd3640fb8c39fdadde3dfaf910045ee101ae920e9d9b4f8527eceff719ff26f09fda9d1ba31fd7d823'
I-354
I335
tbag7
(g8
g9
NtRp45
(I0
S'35e660201c729becd80d34d23d93bcda5906a425231d2cfd103192879acbee6ea182050f3791b53f78f'
I-348
I330
tbag7
(g8
g9
NtRp46
(I0
S'294a13a54e3038dfca08917925394278000a198ca22ef9b634a89d60ebc2e9a8077c36d069c81e113105'
I-351
I334
tbag7
(g8
g9
NtRp47
(I1
S'680633ffcd1221f09ef81215ceb4b1ebbb0be14ae7d5ee3dd43148d98a24811e0d24f523e6c260105d85'
I-354
I335
tbag7
(g8
g9
NtRp48
(I1
S'32db5ab3a1aa19443d87ff3406a335b57ccf1be65acf91813f2cb5dfb92788ede37eb11d9ba511673bd'
I-351
I330
tbag7
(g8
g9
NtRp49
(I1
S'3130176953b760dbd419fa6c7f6a8752692532db24222194a482000f1e315350de53fee32a1d317adefb'
I-354
I334
tbag7
(g8
g9
NtRp50
(I0
S'283351e6de8838231b7f24cfa92fa232e5de2121b9ef9cf67c5ea25460e27dbe73790d904a9af575e4d7'
I-354
I334
tbag7
(g8
g9
NtRp51
(I1
S'308a1f6785fa6c07ef96199fdea4d51c100c257209346526e0e45d2e0b1c90ed3fc3e8384f66c3f7aab3'
I-354
I334
tbag7
(g8
g9
NtRp52
(I1
S'ad85594653b31ed18dd56301b25b35c42b92b16c63768fe8c189ad1808d9073aaf8f6a0b3a92d69fd01'
I-355
I332
tbag7
(g8
g9
NtRp53
(I1
S'40fd3640fb8c39fdadde3dfaf910045ee101ae920e9d9b4f8527eceff719ff26f09fda9d1ba31fd7d823'
I-354
I335
tbag7
(g8
g9
NtRp54
(I0
S'67f99c2b0272726ee3c21ed84e71d5d209b70967be51957f448937422f0c0b6a2405da70fef0e2b9083f'
I-351
I335
tbag7
(g8
g9
NtRp55
(I0
S'881db393b1ba7e08ebdd1d94f45f706b142050b67f2087073b432d7a06219580e83307f1206cd8c6b6e5'
I-355
I336
tbag7
(g8
g9
NtRp56
(I0
S'35e29925eaacf8320b7e3bef191115f53531c3fcedc2a36cd992dc87ef2b4307524a22531bc43508d5fd'
I-352
I334
tbag7
(g8
g9
NtRp57
(I1
S'98dc9470b39250511b5a831580663f2ba6e5a24c51dd024d24228d3ca82ef24ea02e30931596ea4180f3'
I-353
I336
tbag7
(g8
g9
NtRp58
(I1
S'f58dafd4c3eae2da52454096df2ad3b1eea3df968dd518d603e322d22d37ec754aad101c7456333f3b35'
I-355
I336
tbag7
(g8
g9
NtRp59
(I0
S'239cded6e4651b971f7d24b7b36c751fa43794a9b6af2a3746ee773f1fd89ccb4f87488fc48ec8196c2b'
I-352
I334
tbag7
(g8
g9
NtRp60
(I1
S'22351dc66f39c4c326c975e098ef14d07b3bf4d9027671f8df75dd6ce2a1f2ff86a70d383dc002c752cf'
I-351
I334
tbag7
(g8
g9
NtRp61
(I0
S'733cd89e670cba6ca07d5af5c17d3c46bbdc6e7e48e983938421b8c2f6d48afe622535c0117af053dcd'
I-349
I331
tbag7
(g8
g9
NtRp62
(I0
S'3e7ad31fc68761c79589e634c35e3e8254468f7e4c4d76a80bcdb2b19326f0164355271914960af19953'
I-353
I334
tbag7
(g8
g9
NtRp63
(I0
S'35e660201c729becd80d34d23d93bcda5906a425231d2cfd103192879acbee6ea182050f3791b53f78f'
I-348
I330
tbag7
(g8
g9
NtRp64
(I0
S'881db393b1ba7e08ebdd1d94f45f706b142050b67f2087073b432d7a06219580e83307f1206cd8c6b6e5'
I-355
I336
tbag7
(g8
g9
NtRp65
(I0
S'9eb7041410f1bfe8378f67c9ca52c18e29fee2131754293ae110279f53674799e55878c658b2535efcdb'
I-353
I336
tbag7
(g8
g9
NtRp66
(I0
S'8b105e65f81032cef4ca42754d5c471849c75299dfd7e96947d0f242341653f500833d4eb66a35ace0d'
I-350
I332
tbag7
(g8
g9
NtRp67
(I1
S'eff5654c5fbd673551795fe6297ab2aadef3bd19a41ce331ea7528a1be228e8257b75e1b383f1240af1d'
I-354
I336
tbag7
(g8
g9
NtRp68
(I1
S'd73bf27bfa44bd360fdd20fc760f71121aaae9c65ae3ebafdcc201514c8a510d670d0bdefb157e9f76b7'
I-354
I336
tbag7
(g8
g9
NtRp69
(I0
S'346103dd9861a5b98b4a4aa06c7457894710a3af14e3c333aa2385971a8381911e2a305bbf8ef98a566f'
I-352
I334
tbag7
(g8
g9
NtRp70
(I1
S'29f7fbd6c5d3b4959666717b85e0781c3dc7f26c0aa2cb459c36b688647651642de129d8c738bd7599f3'
I-352
I334
tbag7
(g8
g9
NtRp71
(I1
S'8625a51c88ce5a9c6940b24914862956b6b42c8b8eadbae40081a9fa44992a39d1e5c465261cb40acf6b'
I-354
I336
tbag7
(g8
g9
NtRp72
(I0
S'840d095d34ecf52ee9b497a252f1bbe5fc2d7e6cad9fde3353e418b815eedf47630e0cb7e100ffbc2f3d'
I-354
I336
tbag7
(g8
g9
NtRp73
(I0
S'294a13a54e3038dfca08917925394278000a198ca22ef9b634a89d60ebc2e9a8077c36d069c81e113105'
I-351
I334
tbag7
(g8
g9
NtRp74
(I0
S'35e29925eaacf8320b7e3bef191115f53531c3fcedc2a36cd992dc87ef2b4307524a22531bc43508d5fd'
I-352
I334
tbag7
(g8
g9
NtRp75
(I0
S'8b105e65f81032cef4ca42754d5c471849c75299dfd7e96947d0f242341653f500833d4eb66a35ace0d'
I-350
I332
tbag7
(g8
g9
NtRp76
(I0
S'bf1335356dec029cec2ff3634a5e89ab080580e7801314d696b071b7e06ff149a87dc21eed9d70d9ccb1'
I-352
I336
tbag7
(g8
g9
NtRp77
(I1
S'2fad0784fa378a1b32dc0345e2397e626db321557841f0748545607d5f59a85de9eb16a1ac04a87d393'
I-347
I330
tbag7
(g8
g9
NtRp78
(I0
S'14a85c31a17c287f8ea503d6f7beb3f5ae6deb86c82f74062c04468cb41e98140a90bb1804125eaead4f'
I-355
I333
tbag7
(g8
g9
NtRp79
(I0
S'1fbe9aa217ad3e5fca932d503eac3181507c51cd9920bfa8b6f5ad936e0913bd7bbe633b939fc1b5f4c9'
I-352
I333
tbag7
(g8
g9
NtRp80
(I1
S'ef4779126d8facc6e639787f6975d9814427c721305029fe6a7973740b1dd56c4dcaf500b1fa8119e93'
I-354
I332
tbag7
(g8
g9
NtRp81
(I1
S'5e05d3d289958c450373f86b26adda276d5409c67f64fbef4a5574a355cf8d4d797472852cb1d41235ed'
I-354
I335
tbag7
(g8
g9
NtRp82
(I0
S'4d2b1fed8c518981692e6b278f8a7a05b1e970122685454aaf5e804b6ca09bef2ddeabbf10997472c5c7'
I-355
I335
tbag7
(g8
g9
NtRp83
(I1
S'680633ffcd1221f09ef81215ceb4b1ebbb0be14ae7d5ee3dd43148d98a24811e0d24f523e6c260105d85'
I-354
I335
tbag7
(g8
g9
NtRp84
(I1
S'98dc9470b39250511b5a831580663f2ba6e5a24c51dd024d24228d3ca82ef24ea02e30931596ea4180f3'
I-353
I336
tbag7
(g8
g9
NtRp85
(I1
S'eff5654c5fbd673551795fe6297ab2aadef3bd19a41ce331ea7528a1be228e8257b75e1b383f1240af1d'
I-354
I336
tbag7
(g8
g9
NtRp86
(I1
S'2fad0784fa378a1b32dc0345e2397e626db321557841f0748545607d5f59a85de9eb16a1ac04a87d393'
I-347
I330
tbag7
(g8
g9
NtRp87
(I0
S'914c6d183bc05fc74bcc710f937fb6fc45c71a39b723e6c5421c33a6e506c912515039310efe8da4c76b'
I-352
I336
tbag7
(g8
g9
NtRp88
(I0
S'27c5ae14c9ea651f23b3e172e77b569d2eaeb2a9a3e1130ab0b3ed1775446b2556331c3dcd2023ab2531'
I-352
I334
tbag7
(g8
g9
NtRp89
(I1
S'15fcd0b63f2284a0f330a84e0cbeb2ebbee446fa8d12e532e69f086fee34fe0acae1946d48b3dd1b33f9'
I-350
I333
tbag7
(g8
g9
NtRp90
(I0
S'faa7e90b3f466ef9b2c7b0e0f0787578dd6c78df4b04941978983464850253310b723010eca2cd5c08eb'
I-354
I336
tbag7
(g8
g9
NtRp91
(I1
S'6e33ec6811c5385f8c45d965af880c4235744a8e2244bb1f1f0cecff84da465d9f2051ffedbdb748eed5'
I-353
I335
tbag7
(g8
g9
NtRp92
(I0
S'53f31b8724bf2356245db01975c79e3dd721b578df15e968fd555af38b0a422b09bbdab9f066f8afd975'
I-354
I335
tbag7
(g8
g9
NtRp93
(I1
S'32db5ab3a1aa19443d87ff3406a335b57ccf1be65acf91813f2cb5dfb92788ede37eb11d9ba511673bd'
I-351
I330
tbag7
(g8
g9
NtRp94
(I1
S'f58dafd4c3eae2da52454096df2ad3b1eea3df968dd518d603e322d22d37ec754aad101c7456333f3b35'
I-355
I336
tbag7
(g8
g9
NtRp95
(I1
S'd73bf27bfa44bd360fdd20fc760f71121aaae9c65ae3ebafdcc201514c8a510d670d0bdefb157e9f76b7'
I-354
I336
tbag7
(g8
g9
NtRp96
(I0
S'14a85c31a17c287f8ea503d6f7beb3f5ae6deb86c82f74062c04468cb41e98140a90bb1804125eaead4f'
I-355
I333
tbag7
(g8
g9
NtRp97
(I0
S'27c5ae14c9ea651f23b3e172e77b569d2eaeb2a9a3e1130ab0b3ed1775446b2556331c3dcd2023ab2531'
I-352
I334
tbag7
(g8
g9
NtRp98
(I0
S'a0a67f9d22de8c94f436207e864b9d47464093c420f9150ecdcd1e3dab3d1f37cc26b4cc3b3d8690745b'
I-352
I336
tbag7
(g8
g9
NtRp99
(I0
S'e3d789a573faea0631fd3ff38c991f84e8983b19ce01e87427d8137008404d2d0270350c55844a1e8d45'
I-354
I336
tbag7
(g8
g9
NtRp100
(I1
S'dc8cb3dcad7391596b8426ab725c49e6b22f96e90355f498da4ad6043475b8bdd6d2ad74bcfb956db75'
I-353
I332
tbag7
(g8
g9
NtRp101
(I0
S'909de877d325d191c63f4421a7e5c5675e16b59bfbc4253c4fdb0bf986a51e5f0c167d60811aa7fbfd9'
I-349
I332
tbag7
(g8
g9
NtRp102
(I1
S'3d55594187602e8399343853434115d9c73582d97a4f704995d692fdce0f27fa66fa619dd28d2b5d411d'
I-355
I334
tbag7
(g8
g9
NtRp103
(I1
S'3130176953b760dbd419fa6c7f6a8752692532db24222194a482000f1e315350de53fee32a1d317adefb'
I-354
I334
tbag7
(g8
g9
NtRp104
(I0
S'239cded6e4651b971f7d24b7b36c751fa43794a9b6af2a3746ee773f1fd89ccb4f87488fc48ec8196c2b'
I-352
I334
tbag7
(g8
g9
NtRp105
(I0
S'346103dd9861a5b98b4a4aa06c7457894710a3af14e3c333aa2385971a8381911e2a305bbf8ef98a566f'
I-352
I334
tbag7
(g8
g9
NtRp106
(I0
S'1fbe9aa217ad3e5fca932d503eac3181507c51cd9920bfa8b6f5ad936e0913bd7bbe633b939fc1b5f4c9'
I-352
I333
tbag7
(g8
g9
NtRp107
(I1
S'15fcd0b63f2284a0f330a84e0cbeb2ebbee446fa8d12e532e69f086fee34fe0acae1946d48b3dd1b33f9'
I-350
I333
tbag7
(g8
g9
NtRp108
(I0
S'e3d789a573faea0631fd3ff38c991f84e8983b19ce01e87427d8137008404d2d0270350c55844a1e8d45'
I-354
I336
tbag7
(g8
g9
NtRp109
(I0
S'912742724007f3984753a6c343d126daf6291e097ca9a442219d9cda9b5cf4051245d6d84a594c274d25'
I-351
I336
tbatb.