cnumpy.core.multiarray
_reconstruct
p1
(cnumpy
ndarray
p2
(I0
tS'b'
tRp3
(I1
(I10
I10
tcnumpy
dtype
p4
(S'O8'
I0
I1
tRp5
(I3
S'|'
NNNI-1
I-1
I63
tbI00
(lp6
ccopy_reg
_reconstructor
p7
(cmpmath.ctx_mp_python
mpf
p8
c__builtin__
object
p9
NtRp10
(I0
S'b44f1a295f6e7e8fc9c2e5704b24f97df5fbfd88d6ba2e0e4188f68cd8995d43cee659b876def0ceb95aa591f069bb4af697f77f723e2357ba936c75b749b03073e5928e2688f2fcbff40f257ba44dbda78b7f7L'
I-690
I668
tbag7
(g8
g9
NtRp11
(I1
S'2016761df6a5c1f6b81f573bb6191609471cea31a88154bfe1f62e179a57d6d4d5c17d20e36b29144429e4c23a47c7d4fde169790503f18d72aa695dd90a467dd08a9ec9dfc8b38b2c09bb6bc375713fc8d1b67L'
I-689
I666
tbag7
(g8
g9
NtRp12
(I0
S'8dd374fa2516a6cb6ddea0bcf205bea1fb2adc94e69b37e828d2004733b231690c4d9a95b813d01fccca40914285bb05ee40b770f61bcdf753cdae3da37adb7cd5aaf667f72f2055516a1914f0dd5cb7ef70cd7L'
I-691
I668
tbag7
(g8
g9
NtRp13
(I0
S'd1769f6a931887b11cfbb515e906a257929df430c65ba9566bf1c4786c2d02ee221c7e199814cefbb40e0119cb478ffa0eafbe439b41ed92f7d89c157dc89f86dcfd52dacf2f2a2ea72cf6fab4894b9bb2cec19L'
I-695
I668
tbag7
(g8
g9
NtRp14
(I1
S'326bae4f0b43aa8444d8e9b0542ba202b9277e88503963261e883d39d6ad69e201270d0fa3f261f54a1b7b2e4d2ece9f8306df584b953e3bdb8f26ce7fb00a5a3991b60c6fa7b842f6905bfa568ab33d8f3158dL'
I-691
I666
tbag7
(g8
g9
NtRp15
(I0
S'd0e7604c97371782cc4889baa490242087c82864b43e5bc6919bfaaa3331d318ada103b7c2f4db72b946095d2ea1b97662d3e16f82f5f837861b64aa86a613d2bc59afe267dd4a680228a0854af3014606979L'
I-685
I660
tbag7
(g8
g9
NtRp16
(I0
S'1b1d672c49e4eb89de076a82b0cff38eca714bc8192af7d34619b4c007353fb385dcf0340ee559aa63c70dd4d8581ff6189eae320d69ad6b5ab93fd6e2cf9b8561be984cb263b7e504d3f050d3eb01e13f8f997L'
I-691
I665
tbag7
(g8
g9
NtRp17
(I0
S'3633fb75673e25d4c324c46a613de844f449f55b8c7bb862e9ddb9043c2af391056b6d564924dea1d8a16dcf75e46efff9512c15524752ebe8fd7bdf7f642574068fcc2f38e8546b68fc238cf88dd3b2aea655L'
I-686
I662
tbag7
(g8
g9
NtRp18
(I1
S'4fc17844627e78fb66a9a1114fc962189381497591a3c0c2860e9f8eae590c2bf4002aef71b541dd9db4ecb35fcb62e39c78779a9ecfd448cfb497c98f68bcfc5d2bce81ee43e94c7f7ef627c893e9fc0c3c359L'
I-694
I667
tbag7
(g8
g9
NtRp19
(I1
S'cf2ad9cf2ba8a5cc715a423398f01cecaacdce23be1d68cfbdfb74bebe7c46a6b135524ae6ae3279294eb3dd8b7830c7cfee8edf393508f969fe0594d29c02c1ad09790686e98c9dbd1257741ecafe66817dd7dL'
I-693
I668
tbag7
(g8
g9
NtRp20
(I1
S'2016761df6a5c1f6b81f573bb6191609471cea31a88154bfe1f62e179a57d6d4d5c17d20e36b29144429e4c23a47c7d4fde169790503f18d72aa695dd90a467dd08a9ec9dfc8b38b2c09bb6bc375713fc8d1b67L'
I-689
I666
tbag7
(g8
g9
NtRp21
(I0
S'2778267d112a77f13a1804ae3c695d56ad08bd48f771d70e63473d573568b8c15d11d4e80ffbaa5edd36aaff58552bb84c11d63ae0b6160d27d61dc49cfd5cc0382a356600d29b145043668e0076f97a71eca13L'
I-689
I666
tbag7
(g8
g9
NtRp22
(I1
S'ea7ef71fef90a3ab893ddd53ea6fc85e0cc7354e66b93f9cf7b1461a39b8b89d547e2bdba9d2ccbc4ab8e0432c9cecb262c5f84712abcf30e9137b503f82678a2228ccedf9e2c146076df939a31205bbd4bf69fL'
I-694
I668
tbag7
(g8
g9
NtRp23
(I1
S'b2a9ca1f7612ef732ad079d54a567141386eedcda2d50f91663e65c6d0c7103cf8dd0db265ec5dccf112646841fe9a81b0a37e20a6f8ec263cb2f185db91c2bbba88a14bdf226b5c5d53fd598a65f14d84f8da5L'
I-693
I668
tbag7
(g8
g9
NtRp24
(I0
S'e19dd9e890ba93100582b9440cc717ac270763a9e60de77235df386020e6a15c8f109537fd53d759ae1fc23a2f1ff07858bf4bf54c67ca10d7ba9cbfbfd3e918f34bb893506a8f982c677529360b9fb27d53791L'
I-692
I668
tbag7
(g8
g9
NtRp25
(I1
S'ae5b8fed371412e1e2f881333586e6d33e5856c4ce3a9ed564acb25a610f749cb30b6222dca8dd4290bad3ea66e5d95f3c3a4f4d0d0c8cd220a05096fe2e196fff7f6ab3824bb35259baf08e7882a72a8252f0dL'
I-694
I668
tbag7
(g8
g9
NtRp26
(I1
S'9e4f6ee5459015c76e75b6d4d072304043eac4b6c0c011dc240814975ce27a7ea2dc6f35746e1fe42e5df59dd452eaffe0c413cbb94adbf123fcee4376de338b9a509efda3e4de7551248eeccedf45c157e86e1L'
I-693
I668
tbag7
(g8
g9
NtRp27
(I1
S'5b4b868dd70afeaa7d827550ea0a8377081595af65a3fd6cf275b324af09ce99206a88663501d96667631daf137c1d4e680b5016ef23bc323fadb593c9a0d5666208f2bfa0cda123fd84de28385f0e993c14481L'
I-692
I667
tbag7
(g8
g9
NtRp28
(I1
S'8c381ba5243bce3e88cef41f57cc3f3c871fd0f6a19a4255ca88efb7265ffbb9492062af1a547293ac859837305ee8cef0e5cbc7d00d9da09505361378daabf87271741da2dc468dd5148cc052a69aa135b657L'
I-690
I664
tbag7
(g8
g9
NtRp29
(I1
S'b6bdb1cf37749312bc98a7876a266ca16d3f396bca004b06f37e36be6f8e9b703e26775c32f7e2b2b5449c247b7536d53e9be6c3e3f400488ee5e415a8eb00c6d4979c7d897bf9c10edff48926d1cce202bc7bL'
I-692
I664
tbag7
(g8
g9
NtRp30
(I0
S'8dd374fa2516a6cb6ddea0bcf205bea1fb2adc94e69b37e828d2004733b231690c4d9a95b813d01fccca40914285bb05ee40b770f61bcdf753cdae3da37adb7cd5aaf667f72f2055516a1914f0dd5cb7ef70cd7L'
I-691
I668
tbag7
(g8
g9
NtRp31
(I1
S'ea7ef71fef90a3ab893ddd53ea6fc85e0cc7354e66b93f9cf7b1461a39b8b89d547e2bdba9d2ccbc4ab8e0432c9cecb262c5f84712abcf30e9137b503f82678a2228ccedf9e2c146076df939a31205bbd4bf69fL'
I-694
I668
tbag7
(g8
g9
NtRp32
(I0
S'1f381ce8b391178dc679f2e3ad863774a0b7588f80ef532b38fd0c518e333ae9d005e32ba3f9c384a9d2945fe8fbe09be01a0a5959a1cf81c85b01407eb76c8117060a9811193441c4fb95bcbb316baa9dd7bbL'
I-684
I661
tbag7
(g8
g9
NtRp33
(I1
S'80fb32bfb2541a52e96ffa24ca51293fc5d9a7bf31f4d266fc734644d5c50ec0d68497a868d851ed46befab69f99ff7a228b12905620b83a6096318a5c1c4777164b0307d7d5e40e84dfcf99048b977a9f3ad51L'
I-691
I668
tbag7
(g8
g9
NtRp34
(I1
S'a66c73ffe65fd1bd405336d5efbaaa0cbf1700bdd84ff5caf8db95e0d26301958315b46c5f7ebcf147c8a10ecc11843d931f2c8e015cc308ab314d4cd23c39d8c328bba56a8f2c14d98177985a7c616dcb0423bL'
I-694
I668
tbag7
(g8
g9
NtRp35
(I0
S'8efa7d07617eace5ca7f50e2516e6bf8b344b8aeed32ed8af533c0dcacdcb398653d83aed9937a673670a2a5144ca87f1d4718e8580b68784b03c86f9459a1466b35572dd696263c15482cce0feddb60a753d01L'
I-691
I668
tbag7
(g8
g9
NtRp36
(I0
S'8200d4fee053a6a3bdfd0f41ce5f295e55e4f605a3b0548911a8f21ee4679c5b4976a22769360a189195f1d743ccad345f872ad19c930499ec36dd3e2eb30f036def35df3ff803012eb61cef02c2655cd14a5c3L'
I-693
I668
tbag7
(g8
g9
NtRp37
(I1
S'c2515cdd6d9f123d14a14cf9ca3c6121e02790cf83fb416147d70d4a11d67d93a02b782eaefc66156650c0b119b19df4b5c64d681286bb32c940bd8b25ede61eea69c34b5a8c2e99de729b10aae36d4778e978fL'
I-692
I668
tbag7
(g8
g9
NtRp38
(I1
S'70ff3f3b4c1a09f77859c5312c72fd7d15b7de4f537d6f2a33ff8ce54d22b76e1076673f4bdc8368d5b1d8d70ce3e418ba8701be2c968fb81536ea9800a5b4526e4d0c7d6faead49ce2612001a15ddfcc83c01fL'
I-691
I667
tbag7
(g8
g9
NtRp39
(I1
S'6dd9dee5e120740c3f0c18b8653a10fba3ba8a35c6a0578d0f93004c5f069f8925970b7e9412c99b0e61353e32670980a68132a49696694744fb67f324989b346561697dc0e1b56261c7663222c1bce0f28ced1L'
I-693
I667
tbag7
(g8
g9
NtRp40
(I0
S'd1769f6a931887b11cfbb515e906a257929df430c65ba9566bf1c4786c2d02ee221c7e199814cefbb40e0119cb478ffa0eafbe439b41ed92f7d89c157dc89f86dcfd52dacf2f2a2ea72cf6fab4894b9bb2cec19L'
I-695
I668
tbag7
(g8
g9
NtRp41
(I1
S'b2a9ca1f7612ef732ad079d54a567141386eedcda2d50f91663e65c6d0c7103cf8dd0db265ec5dccf112646841fe9a81b0a37e20a6f8ec263cb2f185db91c2bbba88a14bdf226b5c5d53fd598a65f14d84f8da5L'
I-693
I668
tbag7
(g8
g9
NtRp42
(I1
S'80fb32bfb2541a52e96ffa24ca51293fc5d9a7bf31f4d266fc734644d5c50ec0d68497a868d851ed46befab69f99ff7a228b12905620b83a6096318a5c1c4777164b0307d7d5e40e84dfcf99048b977a9f3ad51L'
I-691
I668
tbag7
(g8
g9
NtRp43
(I0
S'fef3e21ed340efaa87310e041b0104e5a6ae3f9aec2b5ece23e7bacd53f4ae626e6fd2d7888d73b3aafda32fdf6c75bc3c61c527f8f6c38b7ee756e6503f311d9d5226bc219e3b22baa8893792a40431782565fL'
I-691
I668
tbag7
(g8
g9
NtRp44
(I1
S'1c2730aa9127762e6f69c4d284962d7906db267379c009b581f894f9d185dd7a68be2bf11c678236064ceee3f57a8a914ef907d1eee22a238302c2d5c9ecffbccd552ce71b8bc623a8b38fa97a31a1e0413d67fL'
I-690
I665
tbag7
(g8
g9
NtRp45
(I0
S'5216adc42f82936fd8d8f464eaf613746bfdd6d7123bbb34abeefe8009982b77cbf3853726c36b33010165f59d6b09081d33a5db88a5770ac20a62c638643bc15688e0a876e121842efac92efa78b30af898605L'
I-693
I667
tbag7
(g8
g9
NtRp46
(I0
S'd9c528cfd58f7bbf250a438bca441e36a6d0b9c6105a2c2852e381e53c64b8e63df42685e43dd26a815e36bf26ae8d990f708a9ec072761a9b0905c024c98f2be305fe1db5b44316f9a5212b95ada76f3807bebL'
I-693
I668
tbag7
(g8
g9
NtRp47
(I0
S'aea63af1ce044b01e426d8ab42752ca5ab9abddb6c9702099d54fc5eccde2d596776ba2853ee46eae956fffd7ac299cbb50221d1e2c657d884adf1456640538a4a9e04775532875081d44e25ef75af51569be67L'
I-692
I668
tbag7
(g8
g9
NtRp48
(I0
S'42ce928177d4230e1db2fbe345d24791105700f0f95eb16129b7d734599a915d49f855f86388f00eec4d855029b52e021536be08436acf8b40583a99a1dd4c63c2cce1597ba73e68def7890e9d7f8a9920dc8cdL'
I-690
I667
tbag7
(g8
g9
NtRp49
(I0
S'c0a1f3b4124943bcb2199c71d82f74f404104290a45c589df65b45d88833d92c62b5f94a4f312e32639174399749f4bb45d6e1da807a497fdcf54d7d4140c74a909ed25bca285d011aa467cff73d40ee6f7b71fL'
I-694
I668
tbag7
(g8
g9
NtRp50
(I1
S'326bae4f0b43aa8444d8e9b0542ba202b9277e88503963261e883d39d6ad69e201270d0fa3f261f54a1b7b2e4d2ece9f8306df584b953e3bdb8f26ce7fb00a5a3991b60c6fa7b842f6905bfa568ab33d8f3158dL'
I-691
I666
tbag7
(g8
g9
NtRp51
(I0
S'e19dd9e890ba93100582b9440cc717ac270763a9e60de77235df386020e6a15c8f109537fd53d759ae1fc23a2f1ff07858bf4bf54c67ca10d7ba9cbfbfd3e918f34bb893506a8f982c677529360b9fb27d53791L'
I-692
I668
tbag7
(g8
g9
NtRp52
(I1
S'a66c73ffe65fd1bd405336d5efbaaa0cbf1700bdd84ff5caf8db95e0d26301958315b46c5f7ebcf147c8a10ecc11843d931f2c8e015cc308ab314d4cd23c39d8c328bba56a8f2c14d98177985a7c616dcb0423bL'
I-694
I668
tbag7
(g8
g9
NtRp53
(I1
S'1c2730aa9127762e6f69c4d284962d7906db267379c009b581f894f9d185dd7a68be2bf11c678236064ceee3f57a8a914ef907d1eee22a238302c2d5c9ecffbccd552ce71b8bc623a8b38fa97a31a1e0413d67fL'
I-690
I665
tbag7
(g8
g9
NtRp54
(I0
S'158526be9f982665ead1146ae062ddac638d5411a3d96accad5fca2ba0b0bd9d34ad894f3f9d6bcb83d381ecbb02864a0c06e4c807003aeaf7a5a846772acab9d24c39dcc0848a64b168932df5c2e488eb40a03L'
I-687
I665
tbag7
(g8
g9
NtRp55
(I0
S'10aae4db56f068337a35fb5d02a90f1ccb19ee956145cdc48588c1922bd8240976e574d0c559ec66b209f941bdbab76fa7e59d08df66c70010ff1b6e6a677dff33b3704c69e8bb143a808b5e8541b04196ca7c1L'
I-692
I665
tbag7
(g8
g9
NtRp56
(I1
S'159fb985257a16be6849a7752b1d58231ccc5fcc45a552a2e6a9c44352f2dbd01f79434f7cb4eb21226a48c1b683574669c7e5f87679aef99643bd27e2ca4978ec8702603dbbb0b4d741f4e587f1c8c6f9e3039L'
I-689
I665
tbag7
(g8
g9
NtRp57
(I0
S'17a898e91fcf6b029bee58b8a5fe8a17a875251a5342adc754ecda2e74e35607341877d0c67108b9cfc54bb60935d2da2583176aed9927c2f59f638df89730769b9ff46f485d612be84e919858dd28b6ca5adb1L'
I-690
I665
tbag7
(g8
g9
NtRp58
(I1
S'b890b43ae894a9e6c0c170ca0db915f04cae0c5c2f6c990093127ba8ee600d3bf4afa84169304552c61dcf58491da48e922f24bdea0150349e20aa9c5b38f24eafd81e9b444e5774591c807e04377af0db5aa17L'
I-693
I668
tbag7
(g8
g9
NtRp59
(I0
S'a7c6e03eaf0e82dac8ea27067c899294a5982a154e07520b22227403b8ef11f18fdc6fc1bb1c7499aa3058e59b730a67187b73e55d7d7e425e7dc9431c5afaffa761aef11e8e0cc95b2ef482495cbdb0620c48dL'
I-692
I668
tbag7
(g8
g9
NtRp60
(I0
S'd0e7604c97371782cc4889baa490242087c82864b43e5bc6919bfaaa3331d318ada103b7c2f4db72b946095d2ea1b97662d3e16f82f5f837861b64aa86a613d2bc59afe267dd4a680228a0854af3014606979L'
I-685
I660
tbag7
(g8
g9
NtRp61
(I1
S'ae5b8fed371412e1e2f881333586e6d33e5856c4ce3a9ed564acb25a610f749cb30b6222dca8dd4290bad3ea66e5d95f3c3a4f4d0d0c8cd220a05096fe2e196fff7f6ab3824bb35259baf08e7882a72a8252f0dL'
I-694
I668
tbag7
(g8
g9
NtRp62
(I0
S'8efa7d07617eace5ca7f50e2516e6bf8b344b8aeed32ed8af533c0dcacdcb398653d83aed9937a673670a2a5144ca87f1d4718e8580b68784b03c86f9459a1466b35572dd696263c15482cce0feddb60a753d01L'
I-691
I668
tbag7
(g8
g9
NtRp63
(I0
S'5216adc42f82936fd8d8f464eaf613746bfdd6d7123bbb34abeefe8009982b77cbf3853726c36b33010165f59d6b09081d33a5db88a5770ac20a62c638643bc15688e0a876e121842efac92efa78b30af898605L'
I-693
I667
tbag7
(g8
g9
NtRp64
(I0
S'10aae4db56f068337a35fb5d02a90f1ccb19ee956145cdc48588c1922bd8240976e574d0c559ec66b209f941bdbab76fa7e59d08df66c70010ff1b6e6a677dff33b3704c69e8bb143a808b5e8541b04196ca7c1L'
I-692
I665
tbag7
(g8
g9
NtRp65
(I0
S'49a13466b241d779387487eaf8ecb4bf4aa39c44ddbe2d41172b5d9125bc4e784a62fa33566f19659a7417590d8e3c0b90a4f1bfd92e55bb520aace479dd04f16a7201676fd9ce6bd5dabf9eeca15d9f34f8da3L'
I-689
I667
tbag7
(g8
g9
NtRp66
(I0
S'5927bac316a28f384af1c42ab679f26b08ef61ec70b322d565e07ebc78584661122d0b4d7418d60617417976ed9c2e52a3c823bfce00a92114e6aa8c258b05cb8125dd84bab4d4a251118ec0196c058b7b235c9L'
I-692
I667
tbag7
(g8
g9
NtRp67
(I1
S'8ff98ca2d06814b16c75ff801829bc841912e717bb16a2ba58aa23bc90cf526464f18e8a3cbab081f7fc47d75134021016af2d8c86c9984f5cfa734fdafc451cf78fb6bcffb75567b32a695e305a7b8d1b959ffL'
I-691
I668
tbag7
(g8
g9
NtRp68
(I1
S'8f5e12cc4e3110f41d314b6de2974c9972c8a0691c30a1f5898e7a99908bac0cffaf2298e5540ca97ba07eed607da26c155396c5d9c20260f8f4cf2e849226ab05742b0b9c861b592a82696333684f54b3a3277L'
I-691
I668
tbag7
(g8
g9
NtRp69
(I0
S'2be20fb8ec6c590884ae3acad4e17e78e09b9cedc03ae50f615299f02ed8504ec07edf7b020be2fcff0165f6d467017c9ab3d86f69da2e5373581591bea2b41a9379e70c45c2498a814583d463dc86bce63e081L'
I-690
I666
tbag7
(g8
g9
NtRp70
(I0
S'1b1d672c49e4eb89de076a82b0cff38eca714bc8192af7d34619b4c007353fb385dcf0340ee559aa63c70dd4d8581ff6189eae320d69ad6b5ab93fd6e2cf9b8561be984cb263b7e504d3f050d3eb01e13f8f997L'
I-691
I665
tbag7
(g8
g9
NtRp71
(I1
S'9e4f6ee5459015c76e75b6d4d072304043eac4b6c0c011dc240814975ce27a7ea2dc6f35746e1fe42e5df59dd452eaffe0c413cbb94adbf123fcee4376de338b9a509efda3e4de7551248eeccedf45c157e86e1L'
I-693
I668
tbag7
(g8
g9
NtRp72
(I0
S'8200d4fee053a6a3bdfd0f41ce5f295e55e4f605a3b0548911a8f21ee4679c5b4976a22769360a189195f1d743ccad345f872ad19c930499ec36dd3e2eb30f036def35df3ff803012eb61cef02c2655cd14a5c3L'
I-693
I668
tbag7
(g8
g9
NtRp73
(I0
S'd9c528cfd58f7bbf250a438bca441e36a6d0b9c6105a2c2852e381e53c64b8e63df42685e43dd26a815e36bf26ae8d990f708a9ec072761a9b0905c024c98f2be305fe1db5b44316f9a5212b95ada76f3807bebL'
I-693
I668
tbag7
(g8
g9
NtRp74
(I1
S'159fb985257a16be6849a7752b1d58231ccc5fcc45a552a2e6a9c44352f2dbd01f79434f7cb4eb21226a48c1b683574669c7e5f87679aef99643bd27e2ca4978ec8702603dbbb0b4d741f4e587f1c8c6f9e3039L'
I-689
I665
tbag7
(g8
g9
NtRp75
(I0
S'5927bac316a28f384af1c42ab679f26b08ef61ec70b322d565e07ebc78584661122d0b4d7418d60617417976ed9c2e52a3c823bfce00a92114e6aa8c258b05cb8125dd84bab4d4a251118ec0196c058b7b235c9L'
I-692
I667
tbag7
(g8
g9
NtRp76
(I0
S'94819c5e20b810da7164d88dc446b77bf7112af1fd869178d2c547ab9956f5c302d498d58ba605fc718b1906ccaa66825a49c94482fc8200af752da213c5438127f9f07eb0ba5d61f3cb2cb9c7e750e5cc4b4f7L'
I-692
I668
tbag7
(g8
g9
NtRp77
(I1
S'3e931a99d25fa3a739c7928439c181c86a1907cc8d041cc83195ce3bda98e7ee169f19cbea2e8a3624085971eb46054ef909905dd3f123d68c6ed9b995881d393f191c5fe793a9c6926451144499d23d0753251L'
I-693
I666
tbag7
(g8
g9
NtRp78
(I0
S'4690086728031f9ef454b534bc1d64551699b394c4cb7ed2b4baa66b76af217a84fb33bd411066dccd6555a61331141a7945c5bc646ba377404c5f69f8f0e89373268bc769ddd0682426853717fdaf3ae29597dL'
I-691
I667
tbag7
(g8
g9
NtRp79
(I1
S'848f44bd1dba80467b7c5824cfcd9451ab0d363e81aa50f109dd9783c808f568cbd07aa5918a7698d778ed79f06d81aa4b9ef86acea7ad2237f907e8552ad0664e8713a9303bb674914514708d5bcc3813d9c7dL'
I-693
I668
tbag7
(g8
g9
NtRp80
(I0
S'3633fb75673e25d4c324c46a613de844f449f55b8c7bb862e9ddb9043c2af391056b6d564924dea1d8a16dcf75e46efff9512c15524752ebe8fd7bdf7f642574068fcc2f38e8546b68fc238cf88dd3b2aea655L'
I-686
I662
tbag7
(g8
g9
NtRp81
(I1
S'5b4b868dd70afeaa7d827550ea0a8377081595af65a3fd6cf275b324af09ce99206a88663501d96667631daf137c1d4e680b5016ef23bc323fadb593c9a0d5666208f2bfa0cda123fd84de28385f0e993c14481L'
I-692
I667
tbag7
(g8
g9
NtRp82
(I1
S'c2515cdd6d9f123d14a14cf9ca3c6121e02790cf83fb416147d70d4a11d67d93a02b782eaefc66156650c0b119b19df4b5c64d681286bb32c940bd8b25ede61eea69c34b5a8c2e99de729b10aae36d4778e978fL'
I-692
I668
tbag7
(g8
g9
NtRp83
(I0
S'aea63af1ce044b01e426d8ab42752ca5ab9abddb6c9702099d54fc5eccde2d596776ba2853ee46eae956fffd7ac299cbb50221d1e2c657d884adf1456640538a4a9e04775532875081d44e25ef75af51569be67L'
I-692
I668
tbag7
(g8
g9
NtRp84
(I0
S'17a898e91fcf6b029bee58b8a5fe8a17a875251a5342adc754ecda2e74e35607341877d0c67108b9cfc54bb60935d2da2583176aed9927c2f59f638df89730769b9ff46f485d612be84e919858dd28b6ca5adb1L'
I-690
I665
tbag7
(g8
g9
NtRp85
(I1
S'8ff98ca2d06814b16c75ff801829bc841912e717bb16a2ba58aa23bc90cf526464f18e8a3cbab081f7fc47d75134021016af2d8c86c9984f5cfa734fdafc451cf78fb6bcffb75567b32a695e305a7b8d1b959ffL'
I-691
I668
tbag7
(g8
g9
NtRp86
(I1
S'3e931a99d25fa3a739c7928439c181c86a1907cc8d041cc83195ce3bda98e7ee169f19cbea2e8a3624085971eb46054ef909905dd3f123d68c6ed9b995881d393f191c5fe793a9c6926451144499d23d0753251L'
I-693
I666
tbag7
(g8
g9
NtRp87
(I0
S'c3f888bc02ba4ff0b356a561849cc8eb5ed74fccbd5ab2ec232041410e31c229a112490cf0ddf879c619b28a426336164993659cb29ab8eec037293fd03ef3902b84e66f1790a4fe865effc13e6e2e82b4e21bL'
I-686
I664
tbag7
(g8
g9
NtRp88
(I0
S'8af4c440d538b7425d793083654716ae5e1f71626f95f6340b294ce7420038881a5151c9392c9582f69b1fdcb1b03f5bb4a184e9b50103009bfd423b1ac52be10980413cd81a377a0f81c5d025a28fb32692d2bL'
I-692
I668
tbag7
(g8
g9
NtRp89
(I0
S'3c2b869ba9a011034d93deb467586cc9267aec5293f023acdde47d8df599b634fe3eb5621963c8b1f6ca626996cf5d28d81654a9397178cda216b6e2b8f04a64bd14887ba747270e5aea0f5b48dae437fa538d7L'
I-692
I666
tbag7
(g8
g9
NtRp90
(I1
S'4fc17844627e78fb66a9a1114fc962189381497591a3c0c2860e9f8eae590c2bf4002aef71b541dd9db4ecb35fcb62e39c78779a9ecfd448cfb497c98f68bcfc5d2bce81ee43e94c7f7ef627c893e9fc0c3c359L'
I-694
I667
tbag7
(g8
g9
NtRp91
(I1
S'8c381ba5243bce3e88cef41f57cc3f3c871fd0f6a19a4255ca88efb7265ffbb9492062af1a547293ac859837305ee8cef0e5cbc7d00d9da09505361378daabf87271741da2dc468dd5148cc052a69aa135b657L'
I-690
I664
tbag7
(g8
g9
NtRp92
(I1
S'70ff3f3b4c1a09f77859c5312c72fd7d15b7de4f537d6f2a33ff8ce54d22b76e1076673f4bdc8368d5b1d8d70ce3e418ba8701be2c968fb81536ea9800a5b4526e4d0c7d6faead49ce2612001a15ddfcc83c01fL'
I-691
I667
tbag7
(g8
g9
NtRp93
(I0
S'42ce928177d4230e1db2fbe345d24791105700f0f95eb16129b7d734599a915d49f855f86388f00eec4d855029b52e021536be08436acf8b40583a99a1dd4c63c2cce1597ba73e68def7890e9d7f8a9920dc8cdL'
I-690
I667
tbag7
(g8
g9
NtRp94
(I1
S'b890b43ae894a9e6c0c170ca0db915f04cae0c5c2f6c990093127ba8ee600d3bf4afa84169304552c61dcf58491da48e922f24bdea0150349e20aa9c5b38f24eafd81e9b444e5774591c807e04377af0db5aa17L'
I-693
I668
tbag7
(g8
g9
NtRp95
(I1
S'8f5e12cc4e3110f41d314b6de2974c9972c8a0691c30a1f5898e7a99908bac0cffaf2298e5540ca97ba07eed607da26c155396c5d9c20260f8f4cf2e849226ab05742b0b9c861b592a82696333684f54b3a3277L'
I-691
I668
tbag7
(g8
g9
NtRp96
(I0
S'4690086728031f9ef454b534bc1d64551699b394c4cb7ed2b4baa66b76af217a84fb33bd411066dccd6555a61331141a7945c5bc646ba377404c5f69f8f0e89373268bc769ddd0682426853717fdaf3ae29597dL'
I-691
I667
tbag7
(g8
g9
NtRp97
(I0
S'8af4c440d538b7425d793083654716ae5e1f71626f95f6340b294ce7420038881a5151c9392c9582f69b1fdcb1b03f5bb4a184e9b50103009bfd423b1ac52be10980413cd81a377a0f81c5d025a28fb32692d2bL'
I-692
I668
tbag7
(g8
g9
NtRp98
(I0
S'92466a3336f1703b97be1e84f543f0058a99a7e3d2f6e2528b61ae137e3817612c1b42840f21105f9784127ddbceccc72b328f13145a40b1316776fbdbd19bfde705f9056b8b84c82e452801aa8a465cccf4571L'
I-690
I668
tbag7
(g8
g9
NtRp99
(I1
S'd71054a0822a2ff3d3dedd45bcaf861122cc2dcedaf1fd7aea24521ca57f0714b5b3aa9eca444523835d0325b62c96c328de38b7b45b44c7a1882c1414f2c8303baa398009c825b7963ae17b4d09f6b55462adbL'
I-692
I668
tbag7
(g8
g9
NtRp100
(I1
S'cf2ad9cf2ba8a5cc715a423398f01cecaacdce23be1d68cfbdfb74bebe7c46a6b135524ae6ae3279294eb3dd8b7830c7cfee8edf393508f969fe0594d29c02c1ad09790686e98c9dbd1257741ecafe66817dd7dL'
I-693
I668
tbag7
(g8
g9
NtRp101
(I1
S'b6bdb1cf37749312bc98a7876a266ca16d3f396bca004b06f37e36be6f8e9b703e26775c32f7e2b2b5449c247b7536d53e9be6c3e3f400488ee5e415a8eb00c6d4979c7d897bf9c10edff48926d1cce202bc7bL'
I-692
I664
tbag7
(g8
g9
NtRp102
(I1
S'6dd9dee5e120740c3f0c18b8653a10fba3ba8a35c6a0578d0f93004c5f069f8925970b7e9412c99b0e61353e32670980a68132a49696694744fb67f324989b346561697dc0e1b56261c7663222c1bce0f28ced1L'
I-693
I667
tbag7
(g8
g9
NtRp103
(I0
S'c0a1f3b4124943bcb2199c71d82f74f404104290a45c589df65b45d88833d92c62b5f94a4f312e32639174399749f4bb45d6e1da807a497fdcf54d7d4140c74a909ed25bca285d011aa467cff73d40ee6f7b71fL'
I-694
I668
tbag7
(g8
g9
NtRp104
(I0
S'a7c6e03eaf0e82dac8ea27067c899294a5982a154e07520b22227403b8ef11f18fdc6fc1bb1c7499aa3058e59b730a67187b73e55d7d7e425e7dc9431c5afaffa761aef11e8e0cc95b2ef482495cbdb0620c48dL'
I-692
I668
tbag7
(g8
g9
NtRp105
(I0
S'2be20fb8ec6c590884ae3acad4e17e78e09b9cedc03ae50f615299f02ed8504ec07edf7b020be2fcff0165f6d467017c9ab3d86f69da2e5373581591bea2b41a9379e70c45c2498a814583d463dc86bce63e081L'
I-690
I666
tbag7
(g8
g9
NtRp106
(I1
S'848f44bd1dba80467b7c5824cfcd9451ab0d363e81aa50f109dd9783c808f568cbd07aa5918a7698d778ed79f06d81aa4b9ef86acea7ad2237f907e8552ad0664e8713a9303bb674914514708d5bcc3813d9c7dL'
I-693
I668
tbag7
(g8
g9
NtRp107
(I0
S'3c2b869ba9a011034d93deb467586cc9267aec5293f023acdde47d8df599b634fe3eb5621963c8b1f6ca626996cf5d28d81654a9397178cda216b6e2b8f04a64bd14887ba747270e5aea0f5b48dae437fa538d7L'
I-692
I666
tbag7
(g8
g9
NtRp108
(I1
S'd71054a0822a2ff3d3dedd45bcaf861122cc2dcedaf1fd7aea24521ca57f0714b5b3aa9eca444523835d0325b62c96c328de38b7b45b44c7a1882c1414f2c8303baa398009c825b7963ae17b4d09f6b55462adbL'
I-692
I668
tbag7
(g8
g9
NtRp109
(I0
S'82fa45ba638f0f401b0d9ad8cad15dd8c7f901cb18499e205cc1d1861b3b05958f05298313fa4b8e8c98b05460b6e28d75998283cb1f2b65868812b49c675458aacc12513317e3229e305790edce66842ab1607L'
I-691
I668
tbatb.