cnumpy.core.multiarray
_reconstruct
p1
(cnumpy
ndarray
p2
(I0
tS'b'
tRp3
(I1
(I10
I10
tcnumpy
dtype
p4
(S'O8'
I0
I1
tRp5
(I3
S'|'
NNNI-1
I-1
I63
tbI00
(lp6
ccopy_reg
_reconstructor
p7
(cmpmath.ctx_mp_python
mpf
p8
c__builtin__
object
p9
NtRp10
(I0
S'8cddcc70528e50ba1339ac7d3ecaac161095fea27eb6b59b505fdc25a0b519e2e42f7bb7a2ad41b53ba9d519413edcdb6842733b4564009981fd02a435060e2dae9de68c6bb7c9d0d05db6e52f8ca743e1eb793'
I-683
I668
tbag7
(g8
g9
NtRp11
(I1
S'6446311da2c5fc9b4d3214d6c3ac733eb7a5fd7087ac019ddf964b32e6e28f3c71ca74cd995dd0aad3ca234a8e4ba310c387b68e969c1e215851867f138298a7331c71eca91ddc6d98497dcf186d54ab4189765'
I-684
I667
tbag7
(g8
g9
NtRp12
(I0
S'6ecd33636cf9b09e1c453131edbb75ddcfb3ec6d7a1b509822e170424dffaa9054bd91c5f7d4565a50011bd0ad8de918cdb6d235848cdce437cebbbb2806c95efec5b6aee9903d636cba3e2d2fc06689b57c371'
I-684
I667
tbag7
(g8
g9
NtRp13
(I0
S'a3a4ac8b42eb27832362a57bb77c252b35c0fa251053187269be2260a5e1193f84ac7a7d3730e5e50ed4aa45a56872fe1feb39057b391d79b55e9ab72fbd36e0574ca4bfb56484a05baa58b8b923ce6ed90a15'
I-684
I664
tbag7
(g8
g9
NtRp14
(I1
S'2764202dc0ccdc9d76abc3d8a184a0055b3d618a715a8c8463d07fb3114c54731b4a54d5817dec7f7fff36c7391c53b373f8256d6efae9b69fca483a761333f0024976ac172922139e1d446568d4e86b05f93b1'
I-684
I666
tbag7
(g8
g9
NtRp15
(I0
S'a334c33bd62307e0a97e09dd57bb245787ae7f973be77f7ddf59123ea456c0df39cd8ac89d1cba0e059b100b8ccb5b7614cfed879c6306d897506660cd0320f7c99aa00c69c73cb6e532c06c5944b9d9b1fbab'
I-682
I664
tbag7
(g8
g9
NtRp16
(I0
S'a977c4d4cdd6bd87afd57a6cc240b2b76ae2be6b957b813266aad7eb6fc00cd53eb6e71c7c78b330b68fe2764da984f73c218c0d2e2c05f27050185e3be284d4b83fdcedc239e59a9cf32099de5c10559fea033'
I-687
I668
tbag7
(g8
g9
NtRp17
(I0
S'a96271cee2a233a3394655a726491a95fa3bfd5511a98c56ea3a9a3680077e3c1e183a58277b33255233d952069fc3f0b2012e3a61a292c3e500b79d3e9ccf45da227d15d79e6f039f8bd3c464b265c5f4ebd43'
I-685
I668
tbag7
(g8
g9
NtRp18
(I1
S'3e4f25f56cf2cd9103083f23f1e2d59650335deeb08c3ad5f4bb420d2c060e621e081ff2643ce27d2f2bf651efb081cc34b4e67c551d7370fe05890e40daabc3127d4dcc0fbdbba902a3306b76ffb07c4321673'
I-687
I666
tbag7
(g8
g9
NtRp19
(I1
S'143b2f453b4377e1efe12a078a63519fd8990a09ad3ec5a3383dec4fb31254e3e31bba2a8f180717e875e73d81e011d6d760d85f89d35f2df9496912355216b5c52bc11b858ff1d609d95ebb95ff143b2bd59cf'
I-683
I665
tbag7
(g8
g9
NtRp20
(I1
S'6446311da2c5fc9b4d3214d6c3ac733eb7a5fd7087ac019ddf964b32e6e28f3c71ca74cd995dd0aad3ca234a8e4ba310c387b68e969c1e215851867f138298a7331c71eca91ddc6d98497dcf186d54ab4189765'
I-684
I667
tbag7
(g8
g9
NtRp21
(I0
S'f6aef08dab4969e00fba73dbe2ceec839b1cb7040035a3c51db9f5be6258a13200ebddede0f007dfb03f608ecf9cc0c8aa4569a54dc52f56a5e3531935c8fada29d1ddfba67c486ecbb6fbd5be102777567803'
I-681
I664
tbag7
(g8
g9
NtRp22
(I1
S'2dcccc443cca3f4498d02aacedc30ed2e040faf45654b293623a70dc03fb04a22f4b1ded53aa48f716af2a9fa4e3aead451b847f3677d3c1535882ae40fcdec70153cc642b757a597e91cd6f19b82a54113c09'
I-681
I662
tbag7
(g8
g9
NtRp23
(I1
S'45ca52f44a1f64785e656555c669dcbf9df4dc23d6cc16b358cf91d95400f1cbbd98fc9583d154328c8d91763f2c7f2e388e26c4cd2f14cdb2020bc9a8db684c4421a508d7bef8ace4cdea42d8cf503e1f95aa9'
I-685
I667
tbag7
(g8
g9
NtRp24
(I0
S'b043523db111c033fd54dfc17ca627cf916bbdca8ff1a309d1a642df25044417649e3927ea2f6d60c882de4f933dcc6993d9bf116da13df2e884cbb2508131f46d79b1a32b2f69191c1b410b640f85081c64593'
I-685
I668
tbag7
(g8
g9
NtRp25
(I1
S'441bc438a983d65630329521d5ebfcc0c4c990d3c00043af9df3aa90cba00a0e3dc48963718af75336c6671e11ef452fb104c45aa1b6229e2f74018ed4c12a6d1a9d39c85379b7c2f9880573c912ec28060ba7'
I-682
I663
tbag7
(g8
g9
NtRp26
(I1
S'3dd707518f2c4790573164d3dc758d75db9cac705251d3b86f05523b640f074aeb4edd79aca8cbcc1a84309d44824f4a51f37f068f08a65155222ce878602ac00eb4f89a3fe2500713243d6275972f217d087d3'
I-685
I666
tbag7
(g8
g9
NtRp27
(I1
S'4753011ed00095de95d18b4ab48f5b118b63318bea990d1a4eafd98288d5fba56d5b4c26b7c03b8ee8cb1e432ca696212758a5b9553487d71b2ec5cc8678b61269e017d434b6d18d20205f5e37f8c0d8975770b'
I-685
I667
tbag7
(g8
g9
NtRp28
(I1
S'1b62f5664113addd3c29d43fea46f425f5a260d4b37e2dadf11cd77869a25bc122eacf7830af9a3e3f52518a1d1531d1e6ad4b53ba9407cd19ec01bbd2afb1e40e049a67c80ab76e8325114c6c26d4f8b6ab84b'
I-685
I665
tbag7
(g8
g9
NtRp29
(I1
S'47621974f1a9885c7a7830a0e73aeb254e1bcac5f13fb083b12895c045057032fc4acafd5333e9d6ad51b48c0a1f3260f566b81d7433d2a8a3eda84d790e6c81602ba0e53522bd76e3786e56368176bdc59d6d'
I-684
I663
tbag7
(g8
g9
NtRp30
(I0
S'6ecd33636cf9b09e1c453131edbb75ddcfb3ec6d7a1b509822e170424dffaa9054bd91c5f7d4565a50011bd0ad8de918cdb6d235848cdce437cebbbb2806c95efec5b6aee9903d636cba3e2d2fc06689b57c371'
I-684
I667
tbag7
(g8
g9
NtRp31
(I1
S'2dcccc443cca3f4498d02aacedc30ed2e040faf45654b293623a70dc03fb04a22f4b1ded53aa48f716af2a9fa4e3aead451b847f3677d3c1535882ae40fcdec70153cc642b757a597e91cd6f19b82a54113c09'
I-681
I662
tbag7
(g8
g9
NtRp32
(I0
S'c31eb4ae624ad03be88864df084aff89b03f31625b0d20d065d304471097d0d06c8be2822fe864c96d3c7c6447ddde2606c3e7f557d0057d0d0417e1c29cf15467ed5be45dcc7018a3be74c33f17d535a855b0b'
I-684
I668
tbag7
(g8
g9
NtRp33
(I1
S'c9887f4b86a3660e4f8db7d38dd9c49eeb5500d35e79725a73cc8b66994f65b05af99d7a13443e15923a2427baf624cfaafef0e689fc877033ce03a4ae1d447269f3bc08569fdf3a42ca62f9205d993f8407e7'
I-681
I664
tbag7
(g8
g9
NtRp34
(I1
S'8204ba9febfad9dff7c802255767cbd29b57f3c79dbf5e7805375bccb0b5ed828a43078bb261343befecc301280ab586a183e42a46e0ed01310bb5ee4c906c99691dca80d9bf228531fc21f9f3f714ada79f9bb'
I-687
I668
tbag7
(g8
g9
NtRp35
(I0
S'df67635b8855eabe608ad0d50fa159d56f1317df72d370c4adffca377666cba1502938677856448ccc14901a892630381f07b18951b85eaaef977f4bbffea4c3c1a39e2127c075137f22ede496ff6c04b7caf61'
I-685
I668
tbag7
(g8
g9
NtRp36
(I0
S'19642999c7d05628cbd8ec46547e3aa2e23b23d11851d8ab9b84d6d8644c7bb6edc3ca32630a3dc35a17ce3efc75035c09ab982593bb17f728cf369e0b648518f878b26749c396e56c3ff3ed9fda0b8ed249b71'
I-684
I665
tbag7
(g8
g9
NtRp37
(I1
S'25f3e4233f6910fbad5457591715c1756a1a583dbed9bd4f72cdf3cceaff8ad9af3ff7214fd587bfcca05ae1cb4d0ce87b7258e2a9ed286986c8f3a8172a354e12e8f19a37a717363810e2d2c5ef3bb4cf161cd'
I-683
I666
tbag7
(g8
g9
NtRp38
(I1
S'58476966537456707f126a586c48e319dc9a658a2ceae8bf1bb1e128e106120102b6bb4cd534bf60b7c073056efd9ff73b2f3e2d1919095d265e1fec65aba839f2113731690713df3594c6e019bd7044a26ff87'
I-684
I667
tbag7
(g8
g9
NtRp39
(I1
S'55d2362397e1595a541df846c6d103e6036a4e5d37bc86d501de4258a5d523df5bd39dfb3b9b83a8aa4be7534e43c9af15709a57ac4498c006193a261b7e68b919d76abbd4c0ecb1be44467ba8fe409d671a8f9'
I-686
I667
tbag7
(g8
g9
NtRp40
(I0
S'a3a4ac8b42eb27832362a57bb77c252b35c0fa251053187269be2260a5e1193f84ac7a7d3730e5e50ed4aa45a56872fe1feb39057b391d79b55e9ab72fbd36e0574ca4bfb56484a05baa58b8b923ce6ed90a15'
I-684
I664
tbag7
(g8
g9
NtRp41
(I1
S'45ca52f44a1f64785e656555c669dcbf9df4dc23d6cc16b358cf91d95400f1cbbd98fc9583d154328c8d91763f2c7f2e388e26c4cd2f14cdb2020bc9a8db684c4421a508d7bef8ace4cdea42d8cf503e1f95aa9'
I-685
I667
tbag7
(g8
g9
NtRp42
(I1
S'c9887f4b86a3660e4f8db7d38dd9c49eeb5500d35e79725a73cc8b66994f65b05af99d7a13443e15923a2427baf624cfaafef0e689fc877033ce03a4ae1d447269f3bc08569fdf3a42ca62f9205d993f8407e7'
I-681
I664
tbag7
(g8
g9
NtRp43
(I0
S'639744540a855c1995ec4130819d6d99ad0301a143d5cbe62cb473faa1329679c539463469e8c2afb5468e5f90658a5880a93c0601d38b0e7ac08f6fa892fc107e2e128d2d214edb1807ab11cf1562e9106fca1'
I-683
I667
tbag7
(g8
g9
NtRp44
(I1
S'2bfd3c0a82cda7fcb8e2ba79fbd2cdcc7d81bd681f67bf91c7997e454ad376e320f1802eb35b3bf7996e128220ff5b7fda4be16623a359b1f543ef83982f843f5239ccf838bca1c02af77f0b3317b2e48c15e45'
I-684
I666
tbag7
(g8
g9
NtRp45
(I0
S'4021b7c1451e0234ddb3b3f8da5823d1df8f8885aa3ffc048ce4c1bdeb2d907ec6f06db3cacf34eb93ff95801219451a62089be29a128ca5f85311a1c394d169d8835cd0180ccb8f06fb774d37b1333b2fd1b13'
I-686
I667
tbag7
(g8
g9
NtRp46
(I0
S'551103f12f6c0b0a60009c415cf8293551469ea4afb72242ab6da91e342db0b4f5b217f7d4fdc9db89f7adb9a0f64570b9d7e7189793d25e6909340e9bacd6a4d4fbe9c49c2d50323906461c636c541f5bc259b'
I-685
I667
tbag7
(g8
g9
NtRp47
(I0
S'4438ef067479ac423eb97b6beaad6e29dbb9176489d07e52f530a849de695cd2b9d5f8895efb8aa344abaf7b71f0c5aea530d1d717d07b73df81bfcae18a3895d77b05563c3946e307d2b2b28e414d42ec9824b'
I-684
I667
tbag7
(g8
g9
NtRp48
(I0
S'34316275259dba97264b3b2e9e6bd43378a531bb1f5c11bf2e86ce6dc765ec64fb8182ec248ea5e3e7a70201dc4b9dc0a64b11cc4f19a9fcf6970012d32f856b73c1aaae12e3a17b3a1060d071e1f6fb5d14e8f'
I-683
I666
tbag7
(g8
g9
NtRp49
(I0
S'4b3f433257249d4fc6738478116ca3eb484e230a5e025966cde5c4eca7a7ed2a237abe970aaeb80d73dfdd2aca0c25d0368b1b7c7e07cab3e1eabfaa9d708e60954a8d04b328d758bdb20d105042acbd1a4af9b'
I-686
I667
tbag7
(g8
g9
NtRp50
(I1
S'2764202dc0ccdc9d76abc3d8a184a0055b3d618a715a8c8463d07fb3114c54731b4a54d5817dec7f7fff36c7391c53b373f8256d6efae9b69fca483a761333f0024976ac172922139e1d446568d4e86b05f93b1'
I-684
I666
tbag7
(g8
g9
NtRp51
(I0
S'b043523db111c033fd54dfc17ca627cf916bbdca8ff1a309d1a642df25044417649e3927ea2f6d60c882de4f933dcc6993d9bf116da13df2e884cbb2508131f46d79b1a32b2f69191c1b410b640f85081c64593'
I-685
I668
tbag7
(g8
g9
NtRp52
(I1
S'8204ba9febfad9dff7c802255767cbd29b57f3c79dbf5e7805375bccb0b5ed828a43078bb261343befecc301280ab586a183e42a46e0ed01310bb5ee4c906c99691dca80d9bf228531fc21f9f3f714ada79f9bb'
I-687
I668
tbag7
(g8
g9
NtRp53
(I1
S'2bfd3c0a82cda7fcb8e2ba79fbd2cdcc7d81bd681f67bf91c7997e454ad376e320f1802eb35b3bf7996e128220ff5b7fda4be16623a359b1f543ef83982f843f5239ccf838bca1c02af77f0b3317b2e48c15e45'
I-684
I666
tbag7
(g8
g9
NtRp54
(I0
S'868032276576edef96d6d5b7a1d98c92f58ce5a463c769e81aca81956ab0d1add3ef6a67556aa0f1b87cebffd345d22b45e7f3ebfa058428825ec7ad3a929c48b49ef37e66e9187b44d2460f2c7e4c163048177'
I-683
I668
tbag7
(g8
g9
NtRp55
(I0
S'34160b2d6faf44d567cd080663abd81c544467a9678e57110c61763d758a5cc35fc395074837c7e6e15da244f05851e5662aed813240678bb6a23a891b0212ecc14e2e385f6a61a1d0e42ba112b60cafa71d40f'
I-687
I666
tbag7
(g8
g9
NtRp56
(I1
S'439323c0151d860b0f2284fbab68a265c59043755760eb2c751f680e548bb4fdf537b083f8773c8e718c1c5cfc32769d44e528f8914800f0e79a3c1c036377ade0a4ad12f4fb24ee5fb9c31ab7cf1fa66907393'
I-684
I667
tbag7
(g8
g9
NtRp57
(I0
S'93ddbbb106d05a8eb46c7eff6f964ff9c480d8774aea164415f8f1a6cc076eae5be92a98321df771da3e4e21ec0f72447964c8becb59fdb863386199d9fd46b7232c70b5999895e2e4d72cc43075dcdd887d16f'
I-686
I668
tbag7
(g8
g9
NtRp58
(I1
S'90310cce05b4228906fd1b579312d8b3b9d3ab5b064a3bef64e7b97f9e8b8ca895ea6f2f30309345eef2ea7aaaa2f19706cd4a4de9b925fabaa55987fb105ff2a9418e58b7cc709f42ea424ad7d5e39808354d7'
I-686
I668
tbag7
(g8
g9
NtRp59
(I0
S'4189af987c61aa1d74a58b98ab25c0335fff7ce5b8f6aecdfe1e48f2125e559633ae0775021ab2dbfc32a40d9308cfb2e3e98724d59a9ad77e9b4e14ed6d32506e8c3257a76a478d25823e4b12788e33f98db95'
I-684
I667
tbag7
(g8
g9
NtRp60
(I0
S'a334c33bd62307e0a97e09dd57bb245787ae7f973be77f7ddf59123ea456c0df39cd8ac89d1cba0e059b100b8ccb5b7614cfed879c6306d897506660cd0320f7c99aa00c69c73cb6e532c06c5944b9d9b1fbab'
I-682
I664
tbag7
(g8
g9
NtRp61
(I1
S'441bc438a983d65630329521d5ebfcc0c4c990d3c00043af9df3aa90cba00a0e3dc48963718af75336c6671e11ef452fb104c45aa1b6229e2f74018ed4c12a6d1a9d39c85379b7c2f9880573c912ec28060ba7'
I-682
I663
tbag7
(g8
g9
NtRp62
(I0
S'df67635b8855eabe608ad0d50fa159d56f1317df72d370c4adffca377666cba1502938677856448ccc14901a892630381f07b18951b85eaaef977f4bbffea4c3c1a39e2127c075137f22ede496ff6c04b7caf61'
I-685
I668
tbag7
(g8
g9
NtRp63
(I0
S'4021b7c1451e0234ddb3b3f8da5823d1df8f8885aa3ffc048ce4c1bdeb2d907ec6f06db3cacf34eb93ff95801219451a62089be29a128ca5f85311a1c394d169d8835cd0180ccb8f06fb774d37b1333b2fd1b13'
I-686
I667
tbag7
(g8
g9
NtRp64
(I0
S'34160b2d6faf44d567cd080663abd81c544467a9678e57110c61763d758a5cc35fc395074837c7e6e15da244f05851e5662aed813240678bb6a23a891b0212ecc14e2e385f6a61a1d0e42ba112b60cafa71d40f'
I-687
I666
tbag7
(g8
g9
NtRp65
(I0
S'e617c3c0ed0dbdd803977f204c37f77ef8c77ae04591ca803b77848e32be414eb33c6427b386cd639fdb74740b12ea1343f9660737a24b7200b4530a334d580eee8123a30b7e5d8c9974ca00f61f4d22761a77'
I-680
I664
tbag7
(g8
g9
NtRp66
(I0
S'45a709e869aefed3e60e2d648afc6813b1ebd9588df8b7e9717ebcd1e9834463bb5fd093b5c89ea3226bb1dc70db37d0d6fc8808f9203646c3db7107591a44b991005bcd526231773a721031cb9de54a0e56353'
I-685
I667
tbag7
(g8
g9
NtRp67
(I1
S'e0f5ebbe65a29ce678d77f7b228e1e3f3198ad05c931fc0be5f0c6d715600962d430d50daa90978d1a2dd3230b236f8a772f86cfde17cd7917d63848e04c20a6af8865b8c8c4b4a3617c993c6b5272af7265abb'
I-685
I668
tbag7
(g8
g9
NtRp68
(I1
S'e002fd5f3a2ca71261ef49e073a191e951914b633c186db7d1c2c6bdb3fb7a23b5a7d69763e0518d97116537d2d3b381a666811e6d2ab8ee2aa19b62b563ac620107be922ce5c893ca74c19e1ec1d500e4a6b37'
I-685
I668
tbag7
(g8
g9
NtRp69
(I0
S'89227121e2d29422f0168b5bd2af1b254207a4ef6ee64aaef97f51ce3b3619d94967189cdb5f9e66e1cda00224e4aa1e4c61e664df081ad2fc0d23ace6e8b82617ebfadad9802f4b200639df44491b07695e28f'
I-685
I668
tbag7
(g8
g9
NtRp70
(I0
S'a977c4d4cdd6bd87afd57a6cc240b2b76ae2be6b957b813266aad7eb6fc00cd53eb6e71c7c78b330b68fe2764da984f73c218c0d2e2c05f27050185e3be284d4b83fdcedc239e59a9cf32099de5c10559fea033'
I-687
I668
tbag7
(g8
g9
NtRp71
(I1
S'3dd707518f2c4790573164d3dc758d75db9cac705251d3b86f05523b640f074aeb4edd79aca8cbcc1a84309d44824f4a51f37f068f08a65155222ce878602ac00eb4f89a3fe2500713243d6275972f217d087d3'
I-685
I666
tbag7
(g8
g9
NtRp72
(I0
S'19642999c7d05628cbd8ec46547e3aa2e23b23d11851d8ab9b84d6d8644c7bb6edc3ca32630a3dc35a17ce3efc75035c09ab982593bb17f728cf369e0b648518f878b26749c396e56c3ff3ed9fda0b8ed249b71'
I-684
I665
tbag7
(g8
g9
NtRp73
(I0
S'551103f12f6c0b0a60009c415cf8293551469ea4afb72242ab6da91e342db0b4f5b217f7d4fdc9db89f7adb9a0f64570b9d7e7189793d25e6909340e9bacd6a4d4fbe9c49c2d50323906461c636c541f5bc259b'
I-685
I667
tbag7
(g8
g9
NtRp74
(I1
S'439323c0151d860b0f2284fbab68a265c59043755760eb2c751f680e548bb4fdf537b083f8773c8e718c1c5cfc32769d44e528f8914800f0e79a3c1c036377ade0a4ad12f4fb24ee5fb9c31ab7cf1fa66907393'
I-684
I667
tbag7
(g8
g9
NtRp75
(I0
S'45a709e869aefed3e60e2d648afc6813b1ebd9588df8b7e9717ebcd1e9834463bb5fd093b5c89ea3226bb1dc70db37d0d6fc8808f9203646c3db7107591a44b991005bcd526231773a721031cb9de54a0e56353'
I-685
I667
tbag7
(g8
g9
NtRp76
(I0
S'1d01508a6263f2d95d0315bb59e96a1142526a1948e7478a0c65729e5756b5152da42765b75b625b0785581cb7835ff7c75d95a9c3c37993da36c595d5d95ef8923d7d56daa04ba3d98f3d0e60dce8653706f47'
I-683
I665
tbag7
(g8
g9
NtRp77
(I1
S'61c5d99058b56e375d6df91415889a6e2a3b3a1cf74a19b87586980e4f688a6eed4e495ad18a1357adf5a6272a60648b6bdf9f306b4d6ebc7f4aa1838afad09792b3706b35efdcf1411ab69ed9a72cc273c4869'
I-687
I667
tbag7
(g8
g9
NtRp78
(I0
S'dc821a425d09bf735f5223095dc9c1bbd25885b62b8d11886492d3f096b54791aa2c7d9fc8907312ca7240d93c53975e4d043f186abb37d6368e114213d076d77269d1dcf40612e368bd14d0d5c181d0acb2837'
I-686
I668
tbag7
(g8
g9
NtRp79
(I1
S'19e3fb6cefce6ca8a19027ae723de930eeb320bd960d25ff7323141ae8d61b5c94a279c5b52afbadadcdc866507226e5ad3066bf28a01c5277462f79dca97d85f28b4e5203d555becfee2ee252061af93174bdd'
I-684
I665
tbag7
(g8
g9
NtRp80
(I0
S'a96271cee2a233a3394655a726491a95fa3bfd5511a98c56ea3a9a3680077e3c1e183a58277b33255233d952069fc3f0b2012e3a61a292c3e500b79d3e9ccf45da227d15d79e6f039f8bd3c464b265c5f4ebd43'
I-685
I668
tbag7
(g8
g9
NtRp81
(I1
S'4753011ed00095de95d18b4ab48f5b118b63318bea990d1a4eafd98288d5fba56d5b4c26b7c03b8ee8cb1e432ca696212758a5b9553487d71b2ec5cc8678b61269e017d434b6d18d20205f5e37f8c0d8975770b'
I-685
I667
tbag7
(g8
g9
NtRp82
(I1
S'25f3e4233f6910fbad5457591715c1756a1a583dbed9bd4f72cdf3cceaff8ad9af3ff7214fd587bfcca05ae1cb4d0ce87b7258e2a9ed286986c8f3a8172a354e12e8f19a37a717363810e2d2c5ef3bb4cf161cd'
I-683
I666
tbag7
(g8
g9
NtRp83
(I0
S'4438ef067479ac423eb97b6beaad6e29dbb9176489d07e52f530a849de695cd2b9d5f8895efb8aa344abaf7b71f0c5aea530d1d717d07b73df81bfcae18a3895d77b05563c3946e307d2b2b28e414d42ec9824b'
I-684
I667
tbag7
(g8
g9
NtRp84
(I0
S'93ddbbb106d05a8eb46c7eff6f964ff9c480d8774aea164415f8f1a6cc076eae5be92a98321df771da3e4e21ec0f72447964c8becb59fdb863386199d9fd46b7232c70b5999895e2e4d72cc43075dcdd887d16f'
I-686
I668
tbag7
(g8
g9
NtRp85
(I1
S'e0f5ebbe65a29ce678d77f7b228e1e3f3198ad05c931fc0be5f0c6d715600962d430d50daa90978d1a2dd3230b236f8a772f86cfde17cd7917d63848e04c20a6af8865b8c8c4b4a3617c993c6b5272af7265abb'
I-685
I668
tbag7
(g8
g9
NtRp86
(I1
S'61c5d99058b56e375d6df91415889a6e2a3b3a1cf74a19b87586980e4f688a6eed4e495ad18a1357adf5a6272a60648b6bdf9f306b4d6ebc7f4aa1838afad09792b3706b35efdcf1411ab69ed9a72cc273c4869'
I-687
I667
tbag7
(g8
g9
NtRp87
(I0
S'991a2ad2e2218c1dfde46970dc9060db8ecbe5b7d979929cf9165336f54b63d9e8295eb70a5c16a1b5fb815bb29ab99b3cb5831304a73a4c163d13f5a3ac0ea08953a4ec31aea00cb8fdc3926ec0be049f3c08f'
I-683
I668
tbag7
(g8
g9
NtRp88
(I0
S'1b23ce54a9a51360f263b0c2fcf467393f28e617962faab4088f1e6f08ee755bb61de4e8ef38d729d85212fdadda7aec57f035ecf85288f5a5146408174963fd065241c60976778e97a991af85002fcb4ebdb5b'
I-683
I665
tbag7
(g8
g9
NtRp89
(I0
S'2f0201299c850c92f4c6fb718904570ea60a5a19960213a685d4433a4341f75877a46952bfca52e67022f66d5ebf2d36b866e1dcc339ad816fe366df834894cad8b4b9b765ff15e7ae241d6e320e569fc2e4745'
I-685
I666
tbag7
(g8
g9
NtRp90
(I1
S'3e4f25f56cf2cd9103083f23f1e2d59650335deeb08c3ad5f4bb420d2c060e621e081ff2643ce27d2f2bf651efb081cc34b4e67c551d7370fe05890e40daabc3127d4dcc0fbdbba902a3306b76ffb07c4321673'
I-687
I666
tbag7
(g8
g9
NtRp91
(I1
S'1b62f5664113addd3c29d43fea46f425f5a260d4b37e2dadf11cd77869a25bc122eacf7830af9a3e3f52518a1d1531d1e6ad4b53ba9407cd19ec01bbd2afb1e40e049a67c80ab76e8325114c6c26d4f8b6ab84b'
I-685
I665
tbag7
(g8
g9
NtRp92
(I1
S'58476966537456707f126a586c48e319dc9a658a2ceae8bf1bb1e128e106120102b6bb4cd534bf60b7c073056efd9ff73b2f3e2d1919095d265e1fec65aba839f2113731690713df3594c6e019bd7044a26ff87'
I-684
I667
tbag7
(g8
g9
NtRp93
(I0
S'34316275259dba97264b3b2e9e6bd43378a531bb1f5c11bf2e86ce6dc765ec64fb8182ec248ea5e3e7a70201dc4b9dc0a64b11cc4f19a9fcf6970012d32f856b73c1aaae12e3a17b3a1060d071e1f6fb5d14e8f'
I-683
I666
tbag7
(g8
g9
NtRp94
(I1
S'90310cce05b4228906fd1b579312d8b3b9d3ab5b064a3bef64e7b97f9e8b8ca895ea6f2f30309345eef2ea7aaaa2f19706cd4a4de9b925fabaa55987fb105ff2a9418e58b7cc709f42ea424ad7d5e39808354d7'
I-686
I668
tbag7
(g8
g9
NtRp95
(I1
S'e002fd5f3a2ca71261ef49e073a191e951914b633c186db7d1c2c6bdb3fb7a23b5a7d69763e0518d97116537d2d3b381a666811e6d2ab8ee2aa19b62b563ac620107be922ce5c893ca74c19e1ec1d500e4a6b37'
I-685
I668
tbag7
(g8
g9
NtRp96
(I0
S'dc821a425d09bf735f5223095dc9c1bbd25885b62b8d11886492d3f096b54791aa2c7d9fc8907312ca7240d93c53975e4d043f186abb37d6368e114213d076d77269d1dcf40612e368bd14d0d5c181d0acb2837'
I-686
I668
tbag7
(g8
g9
NtRp97
(I0
S'1b23ce54a9a51360f263b0c2fcf467393f28e617962faab4088f1e6f08ee755bb61de4e8ef38d729d85212fdadda7aec57f035ecf85288f5a5146408174963fd065241c60976778e97a991af85002fcb4ebdb5b'
I-683
I665
tbag7
(g8
g9
NtRp98
(I0
S'724702f802ec9df02928ef0c73550b0c9e843d0227fbdd979c7748383624f9626700f861d64b474e4f772f05287edf6051601fe886b6150e3e21167c4b4a20682f7daf6793a09f6c529a89862f163759d8d0ea1'
I-683
I667
tbag7
(g8
g9
NtRp99
(I1
S'5402610eb2d879731577ed04a01ad298727565a1e4722ecb5f47cbe67eb4a389ec45cc39d203a8376cba65392bd59b09289cc6fec8be6f5acceaf742c3fb86a44f6a85da04013761594090d47385646c78e9a35'
I-684
I667
tbag7
(g8
g9
NtRp100
(I1
S'143b2f453b4377e1efe12a078a63519fd8990a09ad3ec5a3383dec4fb31254e3e31bba2a8f180717e875e73d81e011d6d760d85f89d35f2df9496912355216b5c52bc11b858ff1d609d95ebb95ff143b2bd59cf'
I-683
I665
tbag7
(g8
g9
NtRp101
(I1
S'47621974f1a9885c7a7830a0e73aeb254e1bcac5f13fb083b12895c045057032fc4acafd5333e9d6ad51b48c0a1f3260f566b81d7433d2a8a3eda84d790e6c81602ba0e53522bd76e3786e56368176bdc59d6d'
I-684
I663
tbag7
(g8
g9
NtRp102
(I1
S'55d2362397e1595a541df846c6d103e6036a4e5d37bc86d501de4258a5d523df5bd39dfb3b9b83a8aa4be7534e43c9af15709a57ac4498c006193a261b7e68b919d76abbd4c0ecb1be44467ba8fe409d671a8f9'
I-686
I667
tbag7
(g8
g9
NtRp103
(I0
S'4b3f433257249d4fc6738478116ca3eb484e230a5e025966cde5c4eca7a7ed2a237abe970aaeb80d73dfdd2aca0c25d0368b1b7c7e07cab3e1eabfaa9d708e60954a8d04b328d758bdb20d105042acbd1a4af9b'
I-686
I667
tbag7
(g8
g9
NtRp104
(I0
S'4189af987c61aa1d74a58b98ab25c0335fff7ce5b8f6aecdfe1e48f2125e559633ae0775021ab2dbfc32a40d9308cfb2e3e98724d59a9ad77e9b4e14ed6d32506e8c3257a76a478d25823e4b12788e33f98db95'
I-684
I667
tbag7
(g8
g9
NtRp105
(I0
S'89227121e2d29422f0168b5bd2af1b254207a4ef6ee64aaef97f51ce3b3619d94967189cdb5f9e66e1cda00224e4aa1e4c61e664df081ad2fc0d23ace6e8b82617ebfadad9802f4b200639df44491b07695e28f'
I-685
I668
tbag7
(g8
g9
NtRp106
(I1
S'19e3fb6cefce6ca8a19027ae723de930eeb320bd960d25ff7323141ae8d61b5c94a279c5b52afbadadcdc866507226e5ad3066bf28a01c5277462f79dca97d85f28b4e5203d555becfee2ee252061af93174bdd'
I-684
I665
tbag7
(g8
g9
NtRp107
(I0
S'2f0201299c850c92f4c6fb718904570ea60a5a19960213a685d4433a4341f75877a46952bfca52e67022f66d5ebf2d36b866e1dcc339ad816fe366df834894cad8b4b9b765ff15e7ae241d6e320e569fc2e4745'
I-685
I666
tbag7
(g8
g9
NtRp108
(I1
S'5402610eb2d879731577ed04a01ad298727565a1e4722ecb5f47cbe67eb4a389ec45cc39d203a8376cba65392bd59b09289cc6fec8be6f5acceaf742c3fb86a44f6a85da04013761594090d47385646c78e9a35'
I-684
I667
tbag7
(g8
g9
NtRp109
(I0
S'3329c33ccee3e12d2f6eaaf4851298c419f41ed19619ae5ca6d236a1ab4fe043e50dc1d218234477c18e7427e8d7fe3df416dcd9b243dd82bc99e0e829822087d15aa141608083dccf9919de21708d7666a0801'
I-683
I666
tbatb.