cnumpy.core.multiarray
_reconstruct
p1
(cnumpy
ndarray
p2
(I0
tS'b'
tRp3
(I1
(I10
I10
tcnumpy
dtype
p4
(S'O8'
I0
I1
tRp5
(I3
S'|'
NNNI-1
I-1
I63
tbI00
(lp6
ccopy_reg
_reconstructor
p7
(cmpmath.ctx_mp_python
mpf
p8
c__builtin__
object
p9
NtRp10
(I0
S'3a28f9944c7ac60b46964829941c5867602f0bee275a9e560d2f29cd6fca096d02bcf94dfa0655f1b10e91b76519b710d6b1726f49102bd273c8c666b08bd9dde91291b3913c6421530069ed847ccc7d289be39L'
I-696
I666
tbag7
(g8
g9
NtRp11
(I1
S'8c1583d5a72332d562c14de5e49093525f4dd5a71758b110d4df12df45423a0a5157b588b8fdeae1cd743fb9f3fd164aba6ae9770d8ce6f66f055cc616ffb2d8369c57661af55c5ea629f8fc6d5f8cf304604d5L'
I-698
I668
tbag7
(g8
g9
NtRp12
(I1
S'3a69dc4861ad2f35ab31e6131aafadbd6f782127189eeabef8a8bd406ae5bd2e9ed597aa23bef42fd949d17343a32a653eb3dfb260c28448c7b6983b1c5840b45a4d632a1682cd9834838a305a6fd358caf0a8bL'
I-700
I666
tbag7
(g8
g9
NtRp13
(I0
S'fa651efff2f19c26939ff80632c8794cd62605d3d2bd908784765de61a212efd020036d64230dcd5840eca452b5b0236602c660f7e526f6f8a685ce42df290f634fde45f2b718f9b0724bbb6131952d78d7f8cdL'
I-701
I668
tbag7
(g8
g9
NtRp14
(I1
S'4ead7a4514db0f9493fc43b0e57b5adecd8c3c4a1b1fb03e33e1b9ddfa25cd7e8ffcfac7cae549a18958653551c24efe83b8299ef5c10846ecfa7731108d916e8a102811503633dd1d8680505f46788cab39d5fL'
I-702
I667
tbag7
(g8
g9
NtRp15
(I1
S'e18fa375ae7094285361ac33ac865d20f9ea760070ccd68670d6b5af86431956e3e549289832d35b5ee1f57577ffb91991e570ae68c09b513aebd44027df1cb4c6df98e1388c99d4227aa8c0a1b23a1b02f1e5bL'
I-700
I668
tbag7
(g8
g9
NtRp16
(I1
S'db0462237d6fc87d79eb2c7f82461063ef34f0ea96f2eba1b4a0c37ee91a0e4284c3b1f47d0075affb11a8be9a4dc18d48835978df4c124cc0d5cbac07aaeb50aca01928a431f88ac88e6e8c9096a139ffe908fL'
I-701
I668
tbag7
(g8
g9
NtRp17
(I1
S'1ae2de0a3deefce3983cb78d476a294972a10da4fd30dd7901a7c2651aa099c33e2b33f7cf2a8faa8390dd97574af462871eefe0c096188b632083f0547dabce36cf54928cd63dcf60449b4a68976e43569433bL'
I-697
I665
tbag7
(g8
g9
NtRp18
(I0
S'8874f612483b52c4527b30b62ce5597a98fa2720fcac03fb75a6283fe4069575e2ef55a56619bcc0a50273a88dc4759e423ace06316452bf214559c8cb1c37230c4d4611b126f1b0055225989eed6cac63b7a3dL'
I-700
I668
tbag7
(g8
g9
NtRp19
(I0
S'12975ddd6eb6c8d068766b7ad30116254af4e1a8672720fcad1d8ad78a80dff1db58766063581150404bbb48c5a1901e23e3258f5d6b5195baf8d5417b7bc0f07f3ca4697bea4df720b618595866461f296dfa9L'
I-696
I665
tbag7
(g8
g9
NtRp20
(I1
S'8c1583d5a72332d562c14de5e49093525f4dd5a71758b110d4df12df45423a0a5157b588b8fdeae1cd743fb9f3fd164aba6ae9770d8ce6f66f055cc616ffb2d8369c57661af55c5ea629f8fc6d5f8cf304604d5L'
I-698
I668
tbag7
(g8
g9
NtRp21
(I0
S'1886316262ab9a963084644c04d43b098f66e5a0986a40a0fc3b8bf29f9fde2436fb5d0ac6bebc50ebf2738222b09f6366c68ec100399d960041019f17a5c8ced59540a7ae77334d6a2e13c4b470a2a7e5f0315L'
I-694
I665
tbag7
(g8
g9
NtRp22
(I1
S'98e6e529a148cdbbd5b2aa9cbfc1cf4def29bc4c02583e0bfcb87c0a4c311171570fbf6bb7038a0ec9ce82d3e3895a6f410d474c676cb7fdd111e1033c68b3b2225f55063a8db9db3694496084ed2fee5420d81L'
I-700
I668
tbag7
(g8
g9
NtRp23
(I1
S'42243f244454033d16303eeedf1a5ec06e33433e904398798edf1114582033469581c24f8bf0be771602c7b1be82e7469b220716531cac4ad2e96a6af5f8066990916871bfe699663edaecc6ae6f7fc07ecc055L'
I-698
I667
tbag7
(g8
g9
NtRp24
(I1
S'9561cf90fa54437a8b0ba408f659a125275a52c1944ccba5965ffea553a3d1b4fb6e27af27aa2b9a6eb21d1dffcdd507bf64c602d5710a893df9132191a88a0d1376f9eeb697c0203c75b67fa535664207b233fL'
I-699
I668
tbag7
(g8
g9
NtRp25
(I0
S'56f359a69366526f4cb82f7debc59272759e691d39c06e830b2f7ed415323bae8c9cc108721caf3d11de7f10ed2f505615a4450593e5f1aebe8f3ab895322e1e01f41f33652aba45ded07b62f20f1d1d46cbd53L'
I-698
I667
tbag7
(g8
g9
NtRp26
(I1
S'4d5e2b45e85b17822339b88f346e9d2769b0509db35ea5c36b66509ded5c1a21b47acb03841d68c5ae7ae22052637938bdcb98dd88dc92640b8785d54c8fa385f0c93df35e17e61687eccc3a2b2f81d0f301d03L'
I-697
I667
tbag7
(g8
g9
NtRp27
(I1
S'1aee68662e112b23ac5836e87649952944f9c1d1c350592914ad0047f5d60faad503ac0f6c9284315c8918506eaa8b9c1b2697a8fdbdb60f88fdf2d03bcfaa1d91d9089936217a2de20d7474ff3979337dc67d3L'
I-696
I665
tbag7
(g8
g9
NtRp28
(I0
S'd21f2637e6853567ca1363f29401c239ff9929e1fc6591fcd0615b88a473497b86f85133a6d465a01bc07ccfe128eaa0ce9919e0a074d2cffc6546473d5d4ae7bf6f044ed33546067128d36b3ac2d483d3459e9L'
I-700
I668
tbag7
(g8
g9
NtRp29
(I1
S'62a5f09b3a179c206fb0c7a72c7dcf316d4a9ccde9abd7995c4b38b212f414a06de463bfe214784289bb6700033257634305345d9143b81222ce22b22d2e7986a6243dfd4e0a94eb800472e219499eef8a1db6dL'
I-697
I667
tbag7
(g8
g9
NtRp30
(I1
S'3a69dc4861ad2f35ab31e6131aafadbd6f782127189eeabef8a8bd406ae5bd2e9ed597aa23bef42fd949d17343a32a653eb3dfb260c28448c7b6983b1c5840b45a4d632a1682cd9834838a305a6fd358caf0a8bL'
I-700
I666
tbag7
(g8
g9
NtRp31
(I1
S'98e6e529a148cdbbd5b2aa9cbfc1cf4def29bc4c02583e0bfcb87c0a4c311171570fbf6bb7038a0ec9ce82d3e3895a6f410d474c676cb7fdd111e1033c68b3b2225f55063a8db9db3694496084ed2fee5420d81L'
I-700
I668
tbag7
(g8
g9
NtRp32
(I0
S'e38e5e75bd7586f01eae0f6c6b4f6f7fce21430a31c3e98151dfaf41989d76dcc4713206678f6ca99bcaee3a3fd83da3a1568eeac78cebc2e66b4bd59fd919a384877386911808e448e44589528d7284e57f0a1L'
I-698
I668
tbag7
(g8
g9
NtRp33
(I1
S'51a1cdf6649324992db6a24a459d6e66620d6482f827378382f5d9d5e793e5946a5bbe4a5066958226b71aeb7f9d909a3c607b7cf2c30be3d49d8a79a4ab9699ac6b94a1b2e7ad62c21c3476b8f86c4867bb2cfL'
I-700
I667
tbag7
(g8
g9
NtRp34
(I0
S'3cd82d5d11a67f9e2a6738f486fa74173a0002a7d65d06eceb72377d6428dd4ab7b64c11e396f1d91a9126ad5b31941cfdec328a0d191fb1ce3dd22142c7bcc8c35319f593611bf137cbe82219156ae72196475L'
I-698
I666
tbag7
(g8
g9
NtRp35
(I1
S'a020e95d80a3a45d6d4fd68a76494899b734927836413721331a7fe848b4776336f085ca5fa9f0a685aa98390362309641847fafc44b357bde580a463c7887db900db0411a7877037de447d0f859d44b38b175L'
I-701
I664
tbag7
(g8
g9
NtRp36
(I1
S'5d7d12313468c7d7f65bfc73f83b30e97824d26aad9d4abc552fcb6e5f525317739e671c22069d59a94347ec2643c3fe91a110092aca51c8c59344d70ecebcd01bfeca97b9651eea013eb92bcfc5bf7738f6b1L'
I-694
I663
tbag7
(g8
g9
NtRp37
(I0
S'87e780d2ac9aaa290df53d04971060ff2f80b35819c7b23763378e00b7e5bd425bb7034de313693c149005051323f33a565aee60a52b6998987ae99a73395fd01de4aee64b3404c72d4a31606eb73792d4e4f4bL'
I-699
I668
tbag7
(g8
g9
NtRp38
(I1
S'2855b5fa6e42bf9d211179fa6f8d283a460bcd32c816a7e813cb3f0714149efbe92bb253115cd4b72bc7163ea15891ba710a68054983047d12929d79a8fe5a87047763acff757a82e01141788bb76615d11d349L'
I-699
I666
tbag7
(g8
g9
NtRp39
(I0
S'8c450d7142e82a8d2979823f80fc8d47e2607fb6e414eb022ec63347ff2e8882c7134916cf05af68e5ebeda3adf46ee8d8e1d1d4218c9640b4b368c817fdbbcf97bc289de3c22ab7617615e5da74004c041cef7L'
I-699
I668
tbag7
(g8
g9
NtRp40
(I0
S'fa651efff2f19c26939ff80632c8794cd62605d3d2bd908784765de61a212efd020036d64230dcd5840eca452b5b0236602c660f7e526f6f8a685ce42df290f634fde45f2b718f9b0724bbb6131952d78d7f8cdL'
I-701
I668
tbag7
(g8
g9
NtRp41
(I1
S'42243f244454033d16303eeedf1a5ec06e33433e904398798edf1114582033469581c24f8bf0be771602c7b1be82e7469b220716531cac4ad2e96a6af5f8066990916871bfe699663edaecc6ae6f7fc07ecc055L'
I-698
I667
tbag7
(g8
g9
NtRp42
(I1
S'51a1cdf6649324992db6a24a459d6e66620d6482f827378382f5d9d5e793e5946a5bbe4a5066958226b71aeb7f9d909a3c607b7cf2c30be3d49d8a79a4ab9699ac6b94a1b2e7ad62c21c3476b8f86c4867bb2cfL'
I-700
I667
tbag7
(g8
g9
NtRp43
(I0
S'337681d33817384efeed8b8146d8bd1d29b5c502fccb144ffe11979f4ee665c39ed2b938735a96e177a8e39c9f69a81148f605f696045beeddb77f8ff92fd072fcd8444f639b43f232cb1161fa11868dd8b3aafL'
I-696
I666
tbag7
(g8
g9
NtRp44
(I0
S'81d342a503a0b98e038bdf2b0303a920b4044334ef8c1a8a1b7f53e827f3c181a571f49b31f72545127945009c227c3260f25fc330fcec9f544804fece36e112ed6abd1ccaa332351c8bb802d85c82ff4154b07L'
I-701
I668
tbag7
(g8
g9
NtRp45
(I1
S'e94a6db9d187149f2122dc8d9ea4a83711239c2ef28c24bfb721c3000ad377701e1cdb9255618396f95373bee7c1a0a656003d18df2fe7c7d27767ae997972fbd09517145941a413c9eead690d5080eeacaaf11L'
I-700
I668
tbag7
(g8
g9
NtRp46
(I0
S'b8f2b57e936727dab53fa8efc75800e90ce204219cf8f834a3ae31c74fbed67351f048f1f0830978292dafdff1b3991c75f68dd0b8a2680341881a479e768da15851b3fe77630f74b720017d0b7c5badb2da399L'
I-699
I668
tbag7
(g8
g9
NtRp47
(I1
S'826d9fe6871c25c868b1104dd0301fab5f6f6a145e16a942fcdad43ea4961230329d824f6c401257b2972c29d2073967e2bbbda657bd9ea1ea97a8a5e00e7b577d448844c482dc528c1251b3fdbacc036996341L'
I-702
I668
tbag7
(g8
g9
NtRp48
(I0
S'9dfcdb7966425a736249c20d9ec6c1af5330712ed76e2a947114a2380145a6aec7202dcce0b0331030a6468adc00046c01ad6c80342377d4468e9d7f12c9f9f3f90a11ad64ed92de9a40e9372d438e236ee0389L'
I-700
I668
tbag7
(g8
g9
NtRp49
(I0
S'5a43f7ac6b5682fb4936001a1ec36754d93a008af69ac348ed0f1d53f2083dd0431a42aa2efdd3f7f16957e6b7b327d01c15193582996f615bc0b342ab7af65c271aae3098437e34bce1a1bcc8ef076396d572dL'
I-698
I667
tbag7
(g8
g9
NtRp50
(I1
S'4ead7a4514db0f9493fc43b0e57b5adecd8c3c4a1b1fb03e33e1b9ddfa25cd7e8ffcfac7cae549a18958653551c24efe83b8299ef5c10846ecfa7731108d916e8a102811503633dd1d8680505f46788cab39d5fL'
I-702
I667
tbag7
(g8
g9
NtRp51
(I1
S'9561cf90fa54437a8b0ba408f659a125275a52c1944ccba5965ffea553a3d1b4fb6e27af27aa2b9a6eb21d1dffcdd507bf64c602d5710a893df9132191a88a0d1376f9eeb697c0203c75b67fa535664207b233fL'
I-699
I668
tbag7
(g8
g9
NtRp52
(I0
S'3cd82d5d11a67f9e2a6738f486fa74173a0002a7d65d06eceb72377d6428dd4ab7b64c11e396f1d91a9126ad5b31941cfdec328a0d191fb1ce3dd22142c7bcc8c35319f593611bf137cbe82219156ae72196475L'
I-698
I666
tbag7
(g8
g9
NtRp53
(I0
S'81d342a503a0b98e038bdf2b0303a920b4044334ef8c1a8a1b7f53e827f3c181a571f49b31f72545127945009c227c3260f25fc330fcec9f544804fece36e112ed6abd1ccaa332351c8bb802d85c82ff4154b07L'
I-701
I668
tbag7
(g8
g9
NtRp54
(I0
S'557b4f7df76d9a619d11e3ed925dbf81a481a1bf667ced48518b256d78ecc85f560fa918556bee4d2c0aa4c653b931ea194ed86262f988753f49096493b4648884fbdc75080960fce8daa94c7a0944f17dfb9fdL'
I-697
I667
tbag7
(g8
g9
NtRp55
(I1
S'3861b69001d4487523b9dc360d333b2e2ced6c8807776d576289f5cc2edba0d84fe354521e0bea58752259282899375a23ab277da35e604c318027647c3e91f5e5592bf537c117421254be3e8b73ef12e4d14bL'
I-702
I662
tbag7
(g8
g9
NtRp56
(I0
S'6aab9fe6ff56f1c317a9d8714adcf233dfd5930e22c5ba36615c7e7056b2ab6596b2a66108589441e7b183c9c0c71edcee6c775f81f4ce3b6823259d52bd04653bc8f553f02c071da68906a61e101240ce074bdL'
I-704
I667
tbag7
(g8
g9
NtRp57
(I1
S'4c19c94bb29484ee9564aaba5c7244f07727c968cfbd30657a24a348d7ee428b15b118730b2f25e8e5e380b21f5d2a6d52e8fbffce1b8ca246e9f0c3484b76f36b506bd85085bc604aa70fe7332aa221be2bdfbL'
I-698
I667
tbag7
(g8
g9
NtRp58
(I1
S'f5d59ac3b3f5e0e19a02cbd4366101557b765938315673f5922aeb9d35d756935d219ea50ca97fa88c41873eaf09d1943b3bd0d408fba817cad73419c320d8337335beff4a77d9c58e1bba6b2e990915ad57899L'
I-701
I668
tbag7
(g8
g9
NtRp59
(I0
S'718309200e840b7d3679d1d8efb3bf6ca95ffa1de7ba270ae8ae0d6a504102e59bda7b5caefb2e5eabed456daa3cf07bab913ee9eb7c88f1e23262bb990e134dd1345dbad035972e67d50c5ae6b3dfde3b9497L'
I-703
I663
tbag7
(g8
g9
NtRp60
(I1
S'e18fa375ae7094285361ac33ac865d20f9ea760070ccd68670d6b5af86431956e3e549289832d35b5ee1f57577ffb91991e570ae68c09b513aebd44027df1cb4c6df98e1388c99d4227aa8c0a1b23a1b02f1e5bL'
I-700
I668
tbag7
(g8
g9
NtRp61
(I0
S'56f359a69366526f4cb82f7debc59272759e691d39c06e830b2f7ed415323bae8c9cc108721caf3d11de7f10ed2f505615a4450593e5f1aebe8f3ab895322e1e01f41f33652aba45ded07b62f20f1d1d46cbd53L'
I-698
I667
tbag7
(g8
g9
NtRp62
(I1
S'a020e95d80a3a45d6d4fd68a76494899b734927836413721331a7fe848b4776336f085ca5fa9f0a685aa98390362309641847fafc44b357bde580a463c7887db900db0411a7877037de447d0f859d44b38b175L'
I-701
I664
tbag7
(g8
g9
NtRp63
(I1
S'e94a6db9d187149f2122dc8d9ea4a83711239c2ef28c24bfb721c3000ad377701e1cdb9255618396f95373bee7c1a0a656003d18df2fe7c7d27767ae997972fbd09517145941a413c9eead690d5080eeacaaf11L'
I-700
I668
tbag7
(g8
g9
NtRp64
(I1
S'3861b69001d4487523b9dc360d333b2e2ced6c8807776d576289f5cc2edba0d84fe354521e0bea58752259282899375a23ab277da35e604c318027647c3e91f5e5592bf537c117421254be3e8b73ef12e4d14bL'
I-702
I662
tbag7
(g8
g9
NtRp65
(I0
S'616b5c49df2e5be1c6785015679b06234de082e25988d66ad4e3129190467ca460d8ed3fc103d3fe195d4c2f4e7d35a39559af8575ed08adcfccccc52f815a421e5720f224b4071dbfd777c0974e43c78fd15edL'
I-697
I667
tbag7
(g8
g9
NtRp66
(I0
S'6e23c36dca6df7a3cb46c7a462fc385b2cb11d4b9c7b6b7e3717596298730c1e7a95201929d7596c18887b5f1f1caa6ae881644baee9e9142624ae36436806fd67cd072e688449e5a779c8bdcdf07aceecde1d7L'
I-699
I667
tbag7
(g8
g9
NtRp67
(I0
S'e05823eba63b2da5ee5018c672da1197a53bf4df685917889a4d29bb8c6f9ea02b91281aa629ed11fda6e29ecebc25dfc2356dd6f6e8189ce68b4710630b21ad0cbe682044554046f11d387e57c658b520e09d5L'
I-700
I668
tbag7
(g8
g9
NtRp68
(I1
S'6d47610354206e0457bb1c3acdcd9a126c8d45c711010fb883b4fe8d5dac0551881ae668702e51d0ebe9c5695efb5a417a6b1e623036b66d106544b4f549b1362fd77beefcaa7c13e7d747276cc4d93d18d87b9L'
I-699
I667
tbag7
(g8
g9
NtRp69
(I1
S'e7caa8676008c4507170d1641b6abee28102c4e35f75d1024e62b38ce9ea2553fff40981d4e708a543ad817ca7f6454e75ce7f171d36a98d20a5119b31ce3d69b1c664337644812d8078c1294c07bef00c6ebc3L'
I-700
I668
tbag7
(g8
g9
NtRp70
(I1
S'db0462237d6fc87d79eb2c7f82461063ef34f0ea96f2eba1b4a0c37ee91a0e4284c3b1f47d0075affb11a8be9a4dc18d48835978df4c124cc0d5cbac07aaeb50aca01928a431f88ac88e6e8c9096a139ffe908fL'
I-701
I668
tbag7
(g8
g9
NtRp71
(I1
S'4d5e2b45e85b17822339b88f346e9d2769b0509db35ea5c36b66509ded5c1a21b47acb03841d68c5ae7ae22052637938bdcb98dd88dc92640b8785d54c8fa385f0c93df35e17e61687eccc3a2b2f81d0f301d03L'
I-697
I667
tbag7
(g8
g9
NtRp72
(I1
S'5d7d12313468c7d7f65bfc73f83b30e97824d26aad9d4abc552fcb6e5f525317739e671c22069d59a94347ec2643c3fe91a110092aca51c8c59344d70ecebcd01bfeca97b9651eea013eb92bcfc5bf7738f6b1L'
I-694
I663
tbag7
(g8
g9
NtRp73
(I0
S'b8f2b57e936727dab53fa8efc75800e90ce204219cf8f834a3ae31c74fbed67351f048f1f0830978292dafdff1b3991c75f68dd0b8a2680341881a479e768da15851b3fe77630f74b720017d0b7c5badb2da399L'
I-699
I668
tbag7
(g8
g9
NtRp74
(I0
S'6aab9fe6ff56f1c317a9d8714adcf233dfd5930e22c5ba36615c7e7056b2ab6596b2a66108589441e7b183c9c0c71edcee6c775f81f4ce3b6823259d52bd04653bc8f553f02c071da68906a61e101240ce074bdL'
I-704
I667
tbag7
(g8
g9
NtRp75
(I0
S'6e23c36dca6df7a3cb46c7a462fc385b2cb11d4b9c7b6b7e3717596298730c1e7a95201929d7596c18887b5f1f1caa6ae881644baee9e9142624ae36436806fd67cd072e688449e5a779c8bdcdf07aceecde1d7L'
I-699
I667
tbag7
(g8
g9
NtRp76
(I0
S'fcc10621b76e9e8a03088c90a0787d5052ccffb2afbe172826bec9e7bef513a3ad0f09439dc5b3dfd8633b7289f2deba80cc8ecd5e75fb02b9c60403cb06ae651838bc90e55d7ed7f5900dfec8b2497f3b6390dL'
I-698
I668
tbag7
(g8
g9
NtRp77
(I0
S'370edc4802d45f039897d586fe531923631d6dcdafc265a7dae4cbd5fb315bc6c40e86e76a0a6963a71c5878129b4ab44551b165b4f21a4cb0a04ccbc69366989f6dc2b92d672fb3ce043c076081dfc7d0788c5L'
I-697
I666
tbag7
(g8
g9
NtRp78
(I1
S'a927ce88456b8fdc970bcfdd7efa8d6dc459b45e75c57fe95e08d856f09cfe3e973b9159d59fbed989406c0c77beabcfea7fb2634ae677f0a4c3d82c56d4c2e69b9dce17d6047599f72c7bdbbd236077b04cc57L'
I-700
I668
tbag7
(g8
g9
NtRp79
(I0
S'd4238e6a235231d41c9676b178239dc30f8ebb2b20118397634d14ce6162f50bc823ffce6c7dedb8b7b924cb7c914ab92eaf25219127fa9070c760ab5c56cfe3e869c5a9c52672269a9c5a690b67464aaeb09ffL'
I-700
I668
tbag7
(g8
g9
NtRp80
(I1
S'1ae2de0a3deefce3983cb78d476a294972a10da4fd30dd7901a7c2651aa099c33e2b33f7cf2a8faa8390dd97574af462871eefe0c096188b632083f0547dabce36cf54928cd63dcf60449b4a68976e43569433bL'
I-697
I665
tbag7
(g8
g9
NtRp81
(I1
S'1aee68662e112b23ac5836e87649952944f9c1d1c350592914ad0047f5d60faad503ac0f6c9284315c8918506eaa8b9c1b2697a8fdbdb60f88fdf2d03bcfaa1d91d9089936217a2de20d7474ff3979337dc67d3L'
I-696
I665
tbag7
(g8
g9
NtRp82
(I0
S'87e780d2ac9aaa290df53d04971060ff2f80b35819c7b23763378e00b7e5bd425bb7034de313693c149005051323f33a565aee60a52b6998987ae99a73395fd01de4aee64b3404c72d4a31606eb73792d4e4f4bL'
I-699
I668
tbag7
(g8
g9
NtRp83
(I1
S'826d9fe6871c25c868b1104dd0301fab5f6f6a145e16a942fcdad43ea4961230329d824f6c401257b2972c29d2073967e2bbbda657bd9ea1ea97a8a5e00e7b577d448844c482dc528c1251b3fdbacc036996341L'
I-702
I668
tbag7
(g8
g9
NtRp84
(I1
S'4c19c94bb29484ee9564aaba5c7244f07727c968cfbd30657a24a348d7ee428b15b118730b2f25e8e5e380b21f5d2a6d52e8fbffce1b8ca246e9f0c3484b76f36b506bd85085bc604aa70fe7332aa221be2bdfbL'
I-698
I667
tbag7
(g8
g9
NtRp85
(I0
S'e05823eba63b2da5ee5018c672da1197a53bf4df685917889a4d29bb8c6f9ea02b91281aa629ed11fda6e29ecebc25dfc2356dd6f6e8189ce68b4710630b21ad0cbe682044554046f11d387e57c658b520e09d5L'
I-700
I668
tbag7
(g8
g9
NtRp86
(I0
S'370edc4802d45f039897d586fe531923631d6dcdafc265a7dae4cbd5fb315bc6c40e86e76a0a6963a71c5878129b4ab44551b165b4f21a4cb0a04ccbc69366989f6dc2b92d672fb3ce043c076081dfc7d0788c5L'
I-697
I666
tbag7
(g8
g9
NtRp87
(I0
S'84d3eca3858a04af5cde208ab4b12b718c8eca47dc7da91f8f1905c8b5162e6722bd836c2082ac035becbf78bf038aa677dba6e38dafa7129caf1edbc53d80f9dae9d8c8c1046c150736730ac26ff658f042d3dL'
I-697
I668
tbag7
(g8
g9
NtRp88
(I1
S'95aea5d6150325be5c93566da5d4ca73cbbdbebc1dcf4593c3da39b5661d3d28ddac1b8b5a0b7abd92d9341bb20e92edf38acc01923956890445e3675ff02f91e432e744208635cdaa4cc8ebf013bc702591719L'
I-699
I668
tbag7
(g8
g9
NtRp89
(I0
S'8d5abad0acc9bc189fc9788ed81655a7bd151f98f204c456ee46af6cc5e0a40f6263f7ab33b00b7589329bed1083d14f1efb30200f2abb1e230af173b8cfaa109a2cff4c400af006496c986e21234691af485abL'
I-698
I668
tbag7
(g8
g9
NtRp90
(I0
S'8874f612483b52c4527b30b62ce5597a98fa2720fcac03fb75a6283fe4069575e2ef55a56619bcc0a50273a88dc4759e423ace06316452bf214559c8cb1c37230c4d4611b126f1b0055225989eed6cac63b7a3dL'
I-700
I668
tbag7
(g8
g9
NtRp91
(I0
S'd21f2637e6853567ca1363f29401c239ff9929e1fc6591fcd0615b88a473497b86f85133a6d465a01bc07ccfe128eaa0ce9919e0a074d2cffc6546473d5d4ae7bf6f044ed33546067128d36b3ac2d483d3459e9L'
I-700
I668
tbag7
(g8
g9
NtRp92
(I1
S'2855b5fa6e42bf9d211179fa6f8d283a460bcd32c816a7e813cb3f0714149efbe92bb253115cd4b72bc7163ea15891ba710a68054983047d12929d79a8fe5a87047763acff757a82e01141788bb76615d11d349L'
I-699
I666
tbag7
(g8
g9
NtRp93
(I0
S'9dfcdb7966425a736249c20d9ec6c1af5330712ed76e2a947114a2380145a6aec7202dcce0b0331030a6468adc00046c01ad6c80342377d4468e9d7f12c9f9f3f90a11ad64ed92de9a40e9372d438e236ee0389L'
I-700
I668
tbag7
(g8
g9
NtRp94
(I1
S'f5d59ac3b3f5e0e19a02cbd4366101557b765938315673f5922aeb9d35d756935d219ea50ca97fa88c41873eaf09d1943b3bd0d408fba817cad73419c320d8337335beff4a77d9c58e1bba6b2e990915ad57899L'
I-701
I668
tbag7
(g8
g9
NtRp95
(I1
S'6d47610354206e0457bb1c3acdcd9a126c8d45c711010fb883b4fe8d5dac0551881ae668702e51d0ebe9c5695efb5a417a6b1e623036b66d106544b4f549b1362fd77beefcaa7c13e7d747276cc4d93d18d87b9L'
I-699
I667
tbag7
(g8
g9
NtRp96
(I1
S'a927ce88456b8fdc970bcfdd7efa8d6dc459b45e75c57fe95e08d856f09cfe3e973b9159d59fbed989406c0c77beabcfea7fb2634ae677f0a4c3d82c56d4c2e69b9dce17d6047599f72c7bdbbd236077b04cc57L'
I-700
I668
tbag7
(g8
g9
NtRp97
(I1
S'95aea5d6150325be5c93566da5d4ca73cbbdbebc1dcf4593c3da39b5661d3d28ddac1b8b5a0b7abd92d9341bb20e92edf38acc01923956890445e3675ff02f91e432e744208635cdaa4cc8ebf013bc702591719L'
I-699
I668
tbag7
(g8
g9
NtRp98
(I0
S'b8e6bdeaf73f74934857cdd0cb617f5d9df47b90dacb672a88ae564bbceee1d24530eea7c641fb62671ae76b8df7d9a61baaa14661010bfaf352a32ee4b1f36874508d755ce84188959adcf009d06c864310299L'
I-699
I668
tbag7
(g8
g9
NtRp99
(I1
S'baac7faed695c2ecad844f8b0de2b2eb031d23fa5f2f981b1b93772b6a2e79546d30a90cf0d49cc85cceace3335c47511e7b3cd119df540b46f8f08ca7ece58bdcb178957d3112fdd63ef0d6f4ebf27273c4c49L'
I-702
I668
tbag7
(g8
g9
NtRp100
(I0
S'12975ddd6eb6c8d068766b7ad30116254af4e1a8672720fcad1d8ad78a80dff1db58766063581150404bbb48c5a1901e23e3258f5d6b5195baf8d5417b7bc0f07f3ca4697bea4df720b618595866461f296dfa9L'
I-696
I665
tbag7
(g8
g9
NtRp101
(I1
S'62a5f09b3a179c206fb0c7a72c7dcf316d4a9ccde9abd7995c4b38b212f414a06de463bfe214784289bb6700033257634305345d9143b81222ce22b22d2e7986a6243dfd4e0a94eb800472e219499eef8a1db6dL'
I-697
I667
tbag7
(g8
g9
NtRp102
(I0
S'8c450d7142e82a8d2979823f80fc8d47e2607fb6e414eb022ec63347ff2e8882c7134916cf05af68e5ebeda3adf46ee8d8e1d1d4218c9640b4b368c817fdbbcf97bc289de3c22ab7617615e5da74004c041cef7L'
I-699
I668
tbag7
(g8
g9
NtRp103
(I0
S'5a43f7ac6b5682fb4936001a1ec36754d93a008af69ac348ed0f1d53f2083dd0431a42aa2efdd3f7f16957e6b7b327d01c15193582996f615bc0b342ab7af65c271aae3098437e34bce1a1bcc8ef076396d572dL'
I-698
I667
tbag7
(g8
g9
NtRp104
(I0
S'718309200e840b7d3679d1d8efb3bf6ca95ffa1de7ba270ae8ae0d6a504102e59bda7b5caefb2e5eabed456daa3cf07bab913ee9eb7c88f1e23262bb990e134dd1345dbad035972e67d50c5ae6b3dfde3b9497L'
I-703
I663
tbag7
(g8
g9
NtRp105
(I1
S'e7caa8676008c4507170d1641b6abee28102c4e35f75d1024e62b38ce9ea2553fff40981d4e708a543ad817ca7f6454e75ce7f171d36a98d20a5119b31ce3d69b1c664337644812d8078c1294c07bef00c6ebc3L'
I-700
I668
tbag7
(g8
g9
NtRp106
(I0
S'd4238e6a235231d41c9676b178239dc30f8ebb2b20118397634d14ce6162f50bc823ffce6c7dedb8b7b924cb7c914ab92eaf25219127fa9070c760ab5c56cfe3e869c5a9c52672269a9c5a690b67464aaeb09ffL'
I-700
I668
tbag7
(g8
g9
NtRp107
(I0
S'8d5abad0acc9bc189fc9788ed81655a7bd151f98f204c456ee46af6cc5e0a40f6263f7ab33b00b7589329bed1083d14f1efb30200f2abb1e230af173b8cfaa109a2cff4c400af006496c986e21234691af485abL'
I-698
I668
tbag7
(g8
g9
NtRp108
(I1
S'baac7faed695c2ecad844f8b0de2b2eb031d23fa5f2f981b1b93772b6a2e79546d30a90cf0d49cc85cceace3335c47511e7b3cd119df540b46f8f08ca7ece58bdcb178957d3112fdd63ef0d6f4ebf27273c4c49L'
I-702
I668
tbag7
(g8
g9
NtRp109
(I0
S'f7b1f05221f558c1beb8ca45bdf2327bbf55f390e143501e117e217fd9bc93ef52e92bc410e412df3bf9b3b5817c3a9be6697971befc2d1bc85e25e8ce10548d94dcc9761094cdce40e50b43f88ac80a64a87a5L'
I-698
I668
tbatb.