cnumpy.core.multiarray
_reconstruct
p1
(cnumpy
ndarray
p2
(I0
tS'b'
tRp3
(I1
(I10
I10
tcnumpy
dtype
p4
(S'O8'
I0
I1
tRp5
(I3
S'|'
NNNI-1
I-1
I63
tbI00
(lp6
ccopy_reg
_reconstructor
p7
(cmpmath.ctx_mp_python
mpf
p8
c__builtin__
object
p9
NtRp10
(I0
S'b5c00bef6effaae33c95a181eed894430c9305483afb2ecce93362a1fd575d74a88e8b13ad53cc93494d875d1bf05c149eea859bc45288f1a9d36c00e7b508d5785a075125dcb8e823614b063e05ff071ee7271L'
I-691
I668
tbag7
(g8
g9
NtRp11
(I1
S'dae19dfdd526ff6d6a4e09b73521e630b4e99dd5147a94aa4c9c8d7cdc377ab01f190ba5a10cbf00d105a3928d3b72d4c3470cca052c28e10d7860f583ef8771d554488f8a1f6053e3a1950a6ae54c3bb6d679L'
I-688
I664
tbag7
(g8
g9
NtRp12
(I1
S'b68ad062313d3387b6fbeefbb364feeffc57679a2cf09d94c90f4f694e0def31b05b79f3afb4bb158706ae88335de47c63f21b0d6e5fdd63701a9bb8b893ca339a31d5e38658c27ba41b0fd71a9d74757a300f3L'
I-695
I668
tbag7
(g8
g9
NtRp13
(I0
S'61cf801bfae660ff11aa7ce26bd64f6203a6da46be520c74efbe3cade234f65ad4c8156bb1db16436795c70304ef8cdd3d9157de0d5833879210c44921f2c0a02cb32d352cf85c188eca59531f75e45c3345d2fL'
I-693
I667
tbag7
(g8
g9
NtRp14
(I1
S'7aef0f0bf0964858273a29c46690bdfc212b1e33ca6183613110b26ad6db1115c0fb47d82d06430c669a1e234fbf9b6dadcfc1085ffd9ceed2475a3ca9dd333cb7b93e9b0d54b1097e22287d94de1c5bcb8a5e5L'
I-696
I667
tbag7
(g8
g9
NtRp15
(I1
S'b03837b3f047f3bf81244e885ec8f8c1c33f2c30582007990827bdf120e46bcbe20b2127b6e7b51f622087c3c5bfc89bf9fb400841d6795776083dd21f264e6d3b5eaf6ff42dd82dbaefd3d67e533d651a4cfb7L'
I-693
I668
tbag7
(g8
g9
NtRp16
(I1
S'ab1b6cabb9ff54a2073fbac39dc6bcce12e15c3745edc816551d98bb261c5b23f7b8e30701a85bf17c25cbd4e88cbf3660a69de66e736e4bf6a7071e65fd87d706dd13a7c0470a2c6caf465dd0f5adf54fee0fL'
I-690
I664
tbag7
(g8
g9
NtRp17
(I1
S'5404f5e0018ad6473bbdbd997f2bc10586374aa39738b41a252c3f7bf335e08222470266676500f4db24b478f0ca3bb3e640ad9e59d50cb395c59c4f0808b8e46b47e849f81d81280cd6654886d938926e8f219L'
I-692
I667
tbag7
(g8
g9
NtRp18
(I0
S'd536c07c90dcb152c0e07c1ca6265bcf8f06dd238accc638e7d39ee3d44a49883295f5d26f8836ed01d3d4b75d82f7c7477be1e9ad2cc14aa3fc5c49bd5c1626c338bd7ba4ccd9a308505abe7852f9cd5bceefdL'
I-694
I668
tbag7
(g8
g9
NtRp19
(I0
S'74320aa7f3f667168ce41fbfa6c6ca69147a825c84b48e2b39f8a3c321a577a79ae8e3da6ce66c3591d95286d331c4bc604baac007debde7d09334d943c575df1b3b0393467867488c72182e687f3642c2ef5e1L'
I-692
I667
tbag7
(g8
g9
NtRp20
(I1
S'dae19dfdd526ff6d6a4e09b73521e630b4e99dd5147a94aa4c9c8d7cdc377ab01f190ba5a10cbf00d105a3928d3b72d4c3470cca052c28e10d7860f583ef8771d554488f8a1f6053e3a1950a6ae54c3bb6d679L'
I-688
I664
tbag7
(g8
g9
NtRp21
(I0
S'9946b4a6e8b0862aaf3b72db1e2e70fbc0431b2bb89813ee28742aac65a72c6257a305835a2818f9c2ab51ed58cfe42d4258fc36416818e981964a2253cc270cb6e4d418026900a3d79ffb8d67bff8995d1d343L'
I-690
I668
tbag7
(g8
g9
NtRp22
(I1
S'3bba31844300705d5f79caa53ae7b4fa716c4d8db0ea783caeb8107405c32ad0460226c6137d61edc6d4ab1ac4e1a75375692fd9d86677df25aafbe54398e631956d3d366edf5c99a151eca9b3eca6b918dcd47L'
I-692
I666
tbag7
(g8
g9
NtRp23
(I1
S'33ac51545561a287b955b12a9e4c9a0656180c88e0b4cf1ef79e4557e4d9280f24cd5fce255414cd09322c02dcd644af2932958970ee669a74c65b239029c50278f19998ddec27d7e11b08fb38471bce630f643L'
I-691
I666
tbag7
(g8
g9
NtRp24
(I1
S'e968d4528723a96f7942304e00ec0bca0d7d214e77b7fe32baf5fde252aff7aac8dc1e01adf9e4214cf64d7edfb19cdc1b0d75646d80a07670d52de4739757b46e69e684fd4d1c325e77ed2772236fc72c06711L'
I-693
I668
tbag7
(g8
g9
NtRp25
(I0
S'87dc3c14464fe0cde7dfca34c064b4d2d7c7843daa3cacacc17a362b611e7d40bbb4ed9d324cd1cf6beba68a7299ed8681d0abd8b71749a109bfcbc0691e680ee30d70c04e12c30d2c25c0ca9a379d7dbe9e7dL'
I-688
I664
tbag7
(g8
g9
NtRp26
(I1
S'78e3239d3b0e54bb570a305fc1ecd58d95237df66843e30157cfddf6c2dfe8d4a9ffdd357e6df3b4e0a0015280bb6d68a88e1eda25d8a4bc5203c11d47a06f81483a70cc430557833461ff1ae37a3ad67bb2d55L'
I-691
I667
tbag7
(g8
g9
NtRp27
(I1
S'a8520c7e9feb4d9ef527572ce34be441ef18fb5f04b62d40c13941c1c079e1ebb356f3606693ba348258d7f6b3a9e88fa9b133e031e1b1e118332d9575d1e738cf8c75bd92513b9ec4d417db3b273581d2188e7L'
I-692
I668
tbag7
(g8
g9
NtRp28
(I0
S'a42855dbac1811b915df261583a15fbd4fafa8b88d2f5a0d82cc0f82c07a11688171ff705a55ef6515ae618267e7f74da1679c377d5b44b27d2f1ee7a7f0e2850d8ebb5d95019eb50867e52bc5e83606fd0e63fL'
I-693
I668
tbag7
(g8
g9
NtRp29
(I1
S'2688d1fca2b138fcaba10dfd4d6124ef4eb125406f472037e80d62258f67580eaaed36f6f44ffef9fdcd343c013faa22c62e08748cbe73e71598858d99a6277898e62836f27c222bfe01bce051e0c21591f39b7L'
I-689
I666
tbag7
(g8
g9
NtRp30
(I1
S'b68ad062313d3387b6fbeefbb364feeffc57679a2cf09d94c90f4f694e0def31b05b79f3afb4bb158706ae88335de47c63f21b0d6e5fdd63701a9bb8b893ca339a31d5e38658c27ba41b0fd71a9d74757a300f3L'
I-695
I668
tbag7
(g8
g9
NtRp31
(I1
S'3bba31844300705d5f79caa53ae7b4fa716c4d8db0ea783caeb8107405c32ad0460226c6137d61edc6d4ab1ac4e1a75375692fd9d86677df25aafbe54398e631956d3d366edf5c99a151eca9b3eca6b918dcd47L'
I-692
I666
tbag7
(g8
g9
NtRp32
(I0
S'b1c739cbfc03d16b97f7fc0cb3d60f1bd909fc5ff6e10e6d07f6c0eb3f3b04dc79786f1500e80ce481b68a1d81e0f027d60b9fa76be618304403d33ee4e19c07bf89d241215ac6f258f25653487e8177d34b3fdL'
I-691
I668
tbag7
(g8
g9
NtRp33
(I1
S'7f8cd1d0fd25e92f576d5d940cc5fc7ff934ed0ca3bd46bd7ca0245e39d716b7e62f59541da0499b5c7e1a0ff76631f0fe56c0f33b50c293fc36285e114c1b501d68183ca789feea4f4c11f981042931221475dL'
I-694
I667
tbag7
(g8
g9
NtRp34
(I0
S'5f11c6e16b942767224148fe12e755644aa004263ef15ad22fe276b3ec7fd9c4bf0cd6dbf39bd9e33982cc6ede7d776d4cc10ef7b4774185d2409853f85816f9b131d88fb647bba8e72e9ab547317709247acf7L'
I-692
I667
tbag7
(g8
g9
NtRp35
(I1
S'3e8cdb28863fec347eb32fce1634a05c0b908936f5317988f7f659f6bc667ea2c175f4430d5e62010c36a37645525afab197c1e0a8ad60e462da64036f9f1511c44558d96e570e7d5d2d2c0da10316ed622551L'
I-693
I662
tbag7
(g8
g9
NtRp36
(I1
S'12426d8d9c3c77082e1df74ea67b8f8d99773118d5e8b898c8a355bb8e9e143a9494f0237ea54abb830f240c1f793c47b8717521ca5b83f93696c37200e460e0a577c391a235c009b43e402a8e949f6549202e9L'
I-689
I665
tbag7
(g8
g9
NtRp37
(I0
S'6a2cdca496d8d4f012e797ab9604cbc75d1c8c1cd424033b458366f08fab7bdbd7a6fa94d9672a36f01083ebf6f4160593770a3b8109ea7f37200680aa04d2da975aa8a3eac0a3bb9b61f693567f236ab652df3L'
I-692
I667
tbag7
(g8
g9
NtRp38
(I1
S'fc17b15d31212d960ead3a5d39323b6c35c9c27d628d996a7bb649ec3d80e1a671511a872c843178d19c4b0770698ecd42810a210b72dc0db41458386035b5cbdbea2ef93c9e3db1f86bd931693a3e085af688dL'
I-695
I668
tbag7
(g8
g9
NtRp39
(I0
S'6d95f2807c45613e4866edc19cc54e6028db63c6e2305799b48ad8103f5c5aa62b871119d1bc7109f3a051a7dfe6f6a5e9706bedba35d5628d2c29dc52be3aba2e8affbb59efb15f4424411b92aaa03b63369b1L'
I-692
I667
tbag7
(g8
g9
NtRp40
(I0
S'61cf801bfae660ff11aa7ce26bd64f6203a6da46be520c74efbe3cade234f65ad4c8156bb1db16436795c70304ef8cdd3d9157de0d5833879210c44921f2c0a02cb32d352cf85c188eca59531f75e45c3345d2fL'
I-693
I667
tbag7
(g8
g9
NtRp41
(I1
S'33ac51545561a287b955b12a9e4c9a0656180c88e0b4cf1ef79e4557e4d9280f24cd5fce255414cd09322c02dcd644af2932958970ee669a74c65b239029c50278f19998ddec27d7e11b08fb38471bce630f643L'
I-691
I666
tbag7
(g8
g9
NtRp42
(I1
S'7f8cd1d0fd25e92f576d5d940cc5fc7ff934ed0ca3bd46bd7ca0245e39d716b7e62f59541da0499b5c7e1a0ff76631f0fe56c0f33b50c293fc36285e114c1b501d68183ca789feea4f4c11f981042931221475dL'
I-694
I667
tbag7
(g8
g9
NtRp43
(I0
S'50692ada07a447fb6e5329f9feb2a77d912c03d4aafd4fbcfcfb7ce8eb47ff01a8294168343d8bc04af7e3a4b915169b020069514a66cfa53a6eb750f55ab5b3ab11eabc0ba29a2a6f5d4b2916bb623da298bb1L'
I-690
I667
tbag7
(g8
g9
NtRp44
(I0
S'656d0c10ead590f6f2c546599a5adc218ca354815b2574bbe57b798d5f366f2d494107193f09151df66ebde879faf1075bbd5ad07e4598dc79d843e7111adfd6c97b63be7e4f7f397e4d27c2390846576b0a29dL'
I-694
I667
tbag7
(g8
g9
NtRp45
(I1
S'5b2112dc95d8c40e28f19e2751f851b582b1e90256bebe5ae389302c043a9aa7cbc345c5295a1766f96499369287a2c0f99817ddb72eb68a0e36a48033f370ea5d7a3d03f2dda417bae13bbd0933725d3b72c61L'
I-692
I667
tbag7
(g8
g9
NtRp46
(I0
S'907d9dcae3289722dd99bbfb53bcc0b61210933a42a281e91fe016e3b64d178a1803b8fd03e65f65e02bb166f4d44f9e3c289ecb103ee1428b325487f3cc9ea60cffd49ecd4564132f110129b0f9279fb3ba7cfL'
I-692
I668
tbag7
(g8
g9
NtRp47
(I1
S'cbcb49d8331bfb092394a979954b317bc51e15bfd3036878ab15eba1e12a7c6b4f161b9c19241ca9070c3501582b49b252455853e91847dcfe8cf7832e16a0b8b3bb14eb730c7840fadc9fa93c73dec554fab0fL'
I-696
I668
tbag7
(g8
g9
NtRp48
(I0
S'f6db16edafc7ad5449933f3548168ea1f1fbb0d9309c2287f0b03d7781fcd471172247901f134fc94c03ce38f7c006e8c29ef98851776b3bae3ed6168d5b968d351fbb9eedb3357bd1056c6636b98e175d3e583L'
I-694
I668
tbag7
(g8
g9
NtRp49
(I0
S'4685197eb3db9654513230146808a8ba49b5506c90a8e890f933cee99516704ab46c8414f4b64d99b49a4cac3f83f71a95f07bb1ce07df040fae8c0c15f81077fe8cd815f6f4ba993390465b7cfabdc5cdd6c1bL'
I-691
I667
tbag7
(g8
g9
NtRp50
(I1
S'7aef0f0bf0964858273a29c46690bdfc212b1e33ca6183613110b26ad6db1115c0fb47d82d06430c669a1e234fbf9b6dadcfc1085ffd9ceed2475a3ca9dd333cb7b93e9b0d54b1097e22287d94de1c5bcb8a5e5L'
I-696
I667
tbag7
(g8
g9
NtRp51
(I1
S'e968d4528723a96f7942304e00ec0bca0d7d214e77b7fe32baf5fde252aff7aac8dc1e01adf9e4214cf64d7edfb19cdc1b0d75646d80a07670d52de4739757b46e69e684fd4d1c325e77ed2772236fc72c06711L'
I-693
I668
tbag7
(g8
g9
NtRp52
(I0
S'5f11c6e16b942767224148fe12e755644aa004263ef15ad22fe276b3ec7fd9c4bf0cd6dbf39bd9e33982cc6ede7d776d4cc10ef7b4774185d2409853f85816f9b131d88fb647bba8e72e9ab547317709247acf7L'
I-692
I667
tbag7
(g8
g9
NtRp53
(I0
S'656d0c10ead590f6f2c546599a5adc218ca354815b2574bbe57b798d5f366f2d494107193f09151df66ebde879faf1075bbd5ad07e4598dc79d843e7111adfd6c97b63be7e4f7f397e4d27c2390846576b0a29dL'
I-694
I667
tbag7
(g8
g9
NtRp54
(I0
S'8590ac34d29b4138856bf42334b27b3a910a8cbb102332c0ff696a7b0cf1f914f67878360578a45894d0a175e2d15dfdc78b3219baa5e53732e21ead26c9dd154fc98876dc8ea78b2bd5a8877eae7bb954d929bL'
I-691
I668
tbag7
(g8
g9
NtRp55
(I1
S'b0315a8205b7626e0fa4d028e94018f04c65f329175535b113ef201e126e56a3f9a667809de53c546e0b569d7edeccf9af76db689e86ecee1ab07b1a044388206cb6a95e4e3b68ae7948d28373ca4b1b0b0e1L'
I-693
I660
tbag7
(g8
g9
NtRp56
(I0
S'535614ec777bece06a7cb118827c9d3886dedae30b2a797a7c1042c7c3bb95e75dbb91fbce8533d37d02aef59e9b901c9a44bd429d87411e695b7562e8a3ab6f16b4ffa993a2658f2a1b0d31c77c8e42a0f5b31L'
I-697
I667
tbag7
(g8
g9
NtRp57
(I1
S'76e84a8647080fb4c96d4ac330728bb7ba2e2ab3c4979b9e8ed93f21d16447f951e4b633c179ab3be73379165101924ad18c09bfb20b0bbd8ecd883120f5e9dc57ada881fdd0f65674a508d93ff29d54b9248d9L'
I-692
I667
tbag7
(g8
g9
NtRp58
(I1
S'c00ee0e8e49817b040522f3dca7bc90ac87475b3e68b8a97da318812d2103ba320c243f0f1e46bbbad9331a8f8bfabbbce46bb25a7049b52967820b42071a8e83201fd37722da2225705a9a3bc678f18ef6c637L'
I-694
I668
tbag7
(g8
g9
NtRp59
(I0
S'58ae5f210b5728f9d28f2bf17b446d8ce452fb675d096e8085c7fa7b0eb2ca4361c2b06068b43c39f6515e3dacff9be09e097926bff94afcf8b75d228f92ff14cb70e939f2a9de1c411e71a7043c86e59e8c15L'
I-696
I663
tbag7
(g8
g9
NtRp60
(I1
S'b03837b3f047f3bf81244e885ec8f8c1c33f2c30582007990827bdf120e46bcbe20b2127b6e7b51f622087c3c5bfc89bf9fb400841d6795776083dd21f264e6d3b5eaf6ff42dd82dbaefd3d67e533d651a4cfb7L'
I-693
I668
tbag7
(g8
g9
NtRp61
(I0
S'87dc3c14464fe0cde7dfca34c064b4d2d7c7843daa3cacacc17a362b611e7d40bbb4ed9d324cd1cf6beba68a7299ed8681d0abd8b71749a109bfcbc0691e680ee30d70c04e12c30d2c25c0ca9a379d7dbe9e7dL'
I-688
I664
tbag7
(g8
g9
NtRp62
(I1
S'3e8cdb28863fec347eb32fce1634a05c0b908936f5317988f7f659f6bc667ea2c175f4430d5e62010c36a37645525afab197c1e0a8ad60e462da64036f9f1511c44558d96e570e7d5d2d2c0da10316ed622551L'
I-693
I662
tbag7
(g8
g9
NtRp63
(I1
S'5b2112dc95d8c40e28f19e2751f851b582b1e90256bebe5ae389302c043a9aa7cbc345c5295a1766f96499369287a2c0f99817ddb72eb68a0e36a48033f370ea5d7a3d03f2dda417bae13bbd0933725d3b72c61L'
I-692
I667
tbag7
(g8
g9
NtRp64
(I1
S'b0315a8205b7626e0fa4d028e94018f04c65f329175535b113ef201e126e56a3f9a667809de53c546e0b569d7edeccf9af76db689e86ecee1ab07b1a044388206cb6a95e4e3b68ae7948d28373ca4b1b0b0e1L'
I-693
I660
tbag7
(g8
g9
NtRp65
(I0
S'4c1be019b65c37c8630dfe90b8f11ccb94d76640d5f2e78376516681b8b711606ba97959cecafd9e83d0e384f551d1e7ccae112044212ec7ca57fffa0d1d0e83a7b411bd2caca58f3de0558e763524f3e85b921L'
I-690
I667
tbag7
(g8
g9
NtRp66
(I0
S'ac17e15b8c4bd2efed9e97f0daaa180e75d4bdc62480d7f536147baa0e33c2ef9f89022751607bb8e65540c4a09cca470b4a2cb6414d7c2f7b995034c9528aebf2305b38834eb376d5ae49a891c7bfe3521b0e3L'
I-693
I668
tbag7
(g8
g9
NtRp67
(I0
S'af44dc1019de3ba9a22e935b09ba5dbe7916d74e89859a62b88c489a85b733ed22096754d1d0c1360e2a610c1182fd96cfb9bdcff0e5533a941ccf84cd60b24f31f4c15935629a376c5ed422b492f54d81af7afL'
I-693
I668
tbag7
(g8
g9
NtRp68
(I1
S'aabf87953372abe6c9145c1be19140bcc99cbd070a91a8904dcacdbce25cc84f64aa08032f485fd6709d4474a468bd064f475f796b557d0a699e3b5abf4324e4aac0b1a56aca61df1a405f2d99f3936f76d2411L'
I-693
I668
tbag7
(g8
g9
NtRp69
(I1
S'b5165390c306d95ed8a02396356b6520f4ca29d1a2940b49cd3d1c4616beed299ff6a76d6e547ec11cdf8d29633866254c09534a0ed2b4764180f5c13ee91ffa92e2fe48346584eb8c5e56e843660d2b89b683L'
I-689
I664
tbag7
(g8
g9
NtRp70
(I1
S'ab1b6cabb9ff54a2073fbac39dc6bcce12e15c3745edc816551d98bb261c5b23f7b8e30701a85bf17c25cbd4e88cbf3660a69de66e736e4bf6a7071e65fd87d706dd13a7c0470a2c6caf465dd0f5adf54fee0fL'
I-690
I664
tbag7
(g8
g9
NtRp71
(I1
S'78e3239d3b0e54bb570a305fc1ecd58d95237df66843e30157cfddf6c2dfe8d4a9ffdd357e6df3b4e0a0015280bb6d68a88e1eda25d8a4bc5203c11d47a06f81483a70cc430557833461ff1ae37a3ad67bb2d55L'
I-691
I667
tbag7
(g8
g9
NtRp72
(I1
S'12426d8d9c3c77082e1df74ea67b8f8d99773118d5e8b898c8a355bb8e9e143a9494f0237ea54abb830f240c1f793c47b8717521ca5b83f93696c37200e460e0a577c391a235c009b43e402a8e949f6549202e9L'
I-689
I665
tbag7
(g8
g9
NtRp73
(I0
S'907d9dcae3289722dd99bbfb53bcc0b61210933a42a281e91fe016e3b64d178a1803b8fd03e65f65e02bb166f4d44f9e3c289ecb103ee1428b325487f3cc9ea60cffd49ecd4564132f110129b0f9279fb3ba7cfL'
I-692
I668
tbag7
(g8
g9
NtRp74
(I0
S'535614ec777bece06a7cb118827c9d3886dedae30b2a797a7c1042c7c3bb95e75dbb91fbce8533d37d02aef59e9b901c9a44bd429d87411e695b7562e8a3ab6f16b4ffa993a2658f2a1b0d31c77c8e42a0f5b31L'
I-697
I667
tbag7
(g8
g9
NtRp75
(I0
S'ac17e15b8c4bd2efed9e97f0daaa180e75d4bdc62480d7f536147baa0e33c2ef9f89022751607bb8e65540c4a09cca470b4a2cb6414d7c2f7b995034c9528aebf2305b38834eb376d5ae49a891c7bfe3521b0e3L'
I-693
I668
tbag7
(g8
g9
NtRp76
(I0
S'c576ccca574e6bdbd25eadd0fd5e21e6c0b027c3994c82175e450dbd0d2f7757df33bf3cd3427486e10d86717bc5be01b49fcf9071cc2c1a2122b322f69d383efaec535133310b18b7d88aef0ccb496b6665c9L'
I-687
I664
tbag7
(g8
g9
NtRp77
(I0
S'56073830846bd4759e6d3da2ed61d7474addfb91629fbed646057e7e587d1f669256b2c995b044abb51c4a3b9d12a4b9ac4fa52eeaba4917d3fa77fe6646504e791b804156f13a88f1e69dcb86caeda835bc5b3L'
I-691
I667
tbag7
(g8
g9
NtRp78
(I1
S'2109c6569d8f021915804e9942ccef9f7059853a730092fb945dba40fafea9a83989a2638bb933467cce951a6f633d8e9bccf0d764a1036d002e4038a8f58e110a64d240a7ccdef81246b030eaf0e8d7606efe9L'
I-691
I666
tbag7
(g8
g9
NtRp79
(I0
S'a5bbc742eb9836edb6558cbaa5dbd34064278239b10daece459438413c154f71345c1fd944c261b84f88a4bef9518260ac78d50239673bc0d81bc385e023d26a0d92a26ca206092e28ca26a210e8aeea5879fcfL'
I-693
I668
tbag7
(g8
g9
NtRp80
(I1
S'5404f5e0018ad6473bbdbd997f2bc10586374aa39738b41a252c3f7bf335e08222470266676500f4db24b478f0ca3bb3e640ad9e59d50cb395c59c4f0808b8e46b47e849f81d81280cd6654886d938926e8f219L'
I-692
I667
tbag7
(g8
g9
NtRp81
(I1
S'a8520c7e9feb4d9ef527572ce34be441ef18fb5f04b62d40c13941c1c079e1ebb356f3606693ba348258d7f6b3a9e88fa9b133e031e1b1e118332d9575d1e738cf8c75bd92513b9ec4d417db3b273581d2188e7L'
I-692
I668
tbag7
(g8
g9
NtRp82
(I0
S'6a2cdca496d8d4f012e797ab9604cbc75d1c8c1cd424033b458366f08fab7bdbd7a6fa94d9672a36f01083ebf6f4160593770a3b8109ea7f37200680aa04d2da975aa8a3eac0a3bb9b61f693567f236ab652df3L'
I-692
I667
tbag7
(g8
g9
NtRp83
(I1
S'cbcb49d8331bfb092394a979954b317bc51e15bfd3036878ab15eba1e12a7c6b4f161b9c19241ca9070c3501582b49b252455853e91847dcfe8cf7832e16a0b8b3bb14eb730c7840fadc9fa93c73dec554fab0fL'
I-696
I668
tbag7
(g8
g9
NtRp84
(I1
S'76e84a8647080fb4c96d4ac330728bb7ba2e2ab3c4979b9e8ed93f21d16447f951e4b633c179ab3be73379165101924ad18c09bfb20b0bbd8ecd883120f5e9dc57ada881fdd0f65674a508d93ff29d54b9248d9L'
I-692
I667
tbag7
(g8
g9
NtRp85
(I0
S'af44dc1019de3ba9a22e935b09ba5dbe7916d74e89859a62b88c489a85b733ed22096754d1d0c1360e2a610c1182fd96cfb9bdcff0e5533a941ccf84cd60b24f31f4c15935629a376c5ed422b492f54d81af7afL'
I-693
I668
tbag7
(g8
g9
NtRp86
(I0
S'56073830846bd4759e6d3da2ed61d7474addfb91629fbed646057e7e587d1f669256b2c995b044abb51c4a3b9d12a4b9ac4fa52eeaba4917d3fa77fe6646504e791b804156f13a88f1e69dcb86caeda835bc5b3L'
I-691
I667
tbag7
(g8
g9
NtRp87
(I0
S'67c590dfc053d3a9008d896c5d2a69f0b5cf8e0824422c20a7cb8c84cd79544093240eac796616629fd0f596553ac4520da39a61c6b13a868a68d01bb2180cc33306b15cd6cb74706da289e067e778757bb4357L'
I-690
I667
tbag7
(g8
g9
NtRp88
(I1
S'e9e0e31e80d4eaf970a6370b531c7c54ee587a05ee93dcb6e204fa2b6f8daf8fda5ceb09bcb1efc83573616b4636c593cc88dec27479973616ad335185e74a53f48f895a72d1b4115a17f9f0a71ed66f3ab3417L'
I-693
I668
tbag7
(g8
g9
NtRp89
(I0
S'373770f9837ecd799e6ab317cc68b97585dc4057be89dcb1f5139c867d4bc016026f0cbee030c479e997c4e89a737dc2e81a1ecc85ecb117c5b0465134311e6e7c3993b9c90445c274ae6b8b04f1c790e878437L'
I-690
I666
tbag7
(g8
g9
NtRp90
(I0
S'd536c07c90dcb152c0e07c1ca6265bcf8f06dd238accc638e7d39ee3d44a49883295f5d26f8836ed01d3d4b75d82f7c7477be1e9ad2cc14aa3fc5c49bd5c1626c338bd7ba4ccd9a308505abe7852f9cd5bceefdL'
I-694
I668
tbag7
(g8
g9
NtRp91
(I0
S'a42855dbac1811b915df261583a15fbd4fafa8b88d2f5a0d82cc0f82c07a11688171ff705a55ef6515ae618267e7f74da1679c377d5b44b27d2f1ee7a7f0e2850d8ebb5d95019eb50867e52bc5e83606fd0e63fL'
I-693
I668
tbag7
(g8
g9
NtRp92
(I1
S'fc17b15d31212d960ead3a5d39323b6c35c9c27d628d996a7bb649ec3d80e1a671511a872c843178d19c4b0770698ecd42810a210b72dc0db41458386035b5cbdbea2ef93c9e3db1f86bd931693a3e085af688dL'
I-695
I668
tbag7
(g8
g9
NtRp93
(I0
S'f6db16edafc7ad5449933f3548168ea1f1fbb0d9309c2287f0b03d7781fcd471172247901f134fc94c03ce38f7c006e8c29ef98851776b3bae3ed6168d5b968d351fbb9eedb3357bd1056c6636b98e175d3e583L'
I-694
I668
tbag7
(g8
g9
NtRp94
(I1
S'c00ee0e8e49817b040522f3dca7bc90ac87475b3e68b8a97da318812d2103ba320c243f0f1e46bbbad9331a8f8bfabbbce46bb25a7049b52967820b42071a8e83201fd37722da2225705a9a3bc678f18ef6c637L'
I-694
I668
tbag7
(g8
g9
NtRp95
(I1
S'aabf87953372abe6c9145c1be19140bcc99cbd070a91a8904dcacdbce25cc84f64aa08032f485fd6709d4474a468bd064f475f796b557d0a699e3b5abf4324e4aac0b1a56aca61df1a405f2d99f3936f76d2411L'
I-693
I668
tbag7
(g8
g9
NtRp96
(I1
S'2109c6569d8f021915804e9942ccef9f7059853a730092fb945dba40fafea9a83989a2638bb933467cce951a6f633d8e9bccf0d764a1036d002e4038a8f58e110a64d240a7ccdef81246b030eaf0e8d7606efe9L'
I-691
I666
tbag7
(g8
g9
NtRp97
(I1
S'e9e0e31e80d4eaf970a6370b531c7c54ee587a05ee93dcb6e204fa2b6f8daf8fda5ceb09bcb1efc83573616b4636c593cc88dec27479973616ad335185e74a53f48f895a72d1b4115a17f9f0a71ed66f3ab3417L'
I-693
I668
tbag7
(g8
g9
NtRp98
(I0
S'9074445f91299313108498cb1ee42b81236700892aeee8993ac8336b2b9aa06c460e3a7312e38c64e08d04cc06e9a209c59d4dfefbc8d15c0e188f7ca2ab06299adeee83b0957332b4e0fc9b87aad4c8e464a07L'
I-692
I668
tbag7
(g8
g9
NtRp99
(I1
S'91d6c3c097a50048e78f5e24a2d91bc79a6ec41b9a5d2ed52d8b3519eaf44ec9f54e04121c261a7c88817711802017b75fd047835c3679a8cf727bede3311355446aa634c9ce56d64f612c27ef5855696a71b99L'
I-695
I668
tbag7
(g8
g9
NtRp100
(I0
S'74320aa7f3f667168ce41fbfa6c6ca69147a825c84b48e2b39f8a3c321a577a79ae8e3da6ce66c3591d95286d331c4bc604baac007debde7d09334d943c575df1b3b0393467867488c72182e687f3642c2ef5e1L'
I-692
I667
tbag7
(g8
g9
NtRp101
(I1
S'2688d1fca2b138fcaba10dfd4d6124ef4eb125406f472037e80d62258f67580eaaed36f6f44ffef9fdcd343c013faa22c62e08748cbe73e71598858d99a6277898e62836f27c222bfe01bce051e0c21591f39b7L'
I-689
I666
tbag7
(g8
g9
NtRp102
(I0
S'6d95f2807c45613e4866edc19cc54e6028db63c6e2305799b48ad8103f5c5aa62b871119d1bc7109f3a051a7dfe6f6a5e9706bedba35d5628d2c29dc52be3aba2e8affbb59efb15f4424411b92aaa03b63369b1L'
I-692
I667
tbag7
(g8
g9
NtRp103
(I0
S'4685197eb3db9654513230146808a8ba49b5506c90a8e890f933cee99516704ab46c8414f4b64d99b49a4cac3f83f71a95f07bb1ce07df040fae8c0c15f81077fe8cd815f6f4ba993390465b7cfabdc5cdd6c1bL'
I-691
I667
tbag7
(g8
g9
NtRp104
(I0
S'58ae5f210b5728f9d28f2bf17b446d8ce452fb675d096e8085c7fa7b0eb2ca4361c2b06068b43c39f6515e3dacff9be09e097926bff94afcf8b75d228f92ff14cb70e939f2a9de1c411e71a7043c86e59e8c15L'
I-696
I663
tbag7
(g8
g9
NtRp105
(I1
S'b5165390c306d95ed8a02396356b6520f4ca29d1a2940b49cd3d1c4616beed299ff6a76d6e547ec11cdf8d29633866254c09534a0ed2b4764180f5c13ee91ffa92e2fe48346584eb8c5e56e843660d2b89b683L'
I-689
I664
tbag7
(g8
g9
NtRp106
(I0
S'a5bbc742eb9836edb6558cbaa5dbd34064278239b10daece459438413c154f71345c1fd944c261b84f88a4bef9518260ac78d50239673bc0d81bc385e023d26a0d92a26ca206092e28ca26a210e8aeea5879fcfL'
I-693
I668
tbag7
(g8
g9
NtRp107
(I0
S'373770f9837ecd799e6ab317cc68b97585dc4057be89dcb1f5139c867d4bc016026f0cbee030c479e997c4e89a737dc2e81a1ecc85ecb117c5b0465134311e6e7c3993b9c90445c274ae6b8b04f1c790e878437L'
I-690
I666
tbag7
(g8
g9
NtRp108
(I1
S'91d6c3c097a50048e78f5e24a2d91bc79a6ec41b9a5d2ed52d8b3519eaf44ec9f54e04121c261a7c88817711802017b75fd047835c3679a8cf727bede3311355446aa634c9ce56d64f612c27ef5855696a71b99L'
I-695
I668
tbag7
(g8
g9
NtRp109
(I0
S'183060780550f5aaeba00bc0cf8ca6ee15af64c925ff92d2efb551457c436a725f18c54625a645d7ccdb628cb9a521b939804cdc1ba6a067b69131b3bc1f9841d3898fac879e881924565e19a3458d8903d473fL'
I-688
I665
tbatb.