cnumpy.core.multiarray
_reconstruct
p1
(cnumpy
ndarray
p2
(I0
tS'b'
tRp3
(I1
(I25
I25
tcnumpy
dtype
p4
(S'O8'
I0
I1
tRp5
(I3
S'|'
NNNI-1
I-1
I63
tbI00
(lp6
ccopy_reg
_reconstructor
p7
(cmpmath.ctx_mp_python
mpf
p8
c__builtin__
object
p9
NtRp10
(I0
S'4a8e2226c8da48ccb85eba4a32a1f27da33a48bf9ba2603b6e198427f98f3e5bbd90fec5cf774065319e61526b8147f0ea30cead39a72823bbcd5bde6d55e1dde0ac5620240382dc78ba33cebd241c4fb4a581fL'
I-688
I667
tbag7
(g8
g9
NtRp11
(I0
S'1219f6160c9cf748e8d2efe36734a5258bc2b18d0f9bfc8e9ce1101dfad8a630f71d43ce83af4f0ac79e3c2f31374ee04c314fde9a5fe6fcced8d8eeb9cb014c9138ee976c1a15ad13a690e5b2061e7d10149d3L'
I-688
I665
tbag7
(g8
g9
NtRp12
(I1
S'2e59b36efddb6981bf7f86d13a7cd15fd72eec7b8aefaec89f5bb5241833c48bc61b9b85a0a81e910f268fdb7702190e524b184f5e89738e515bacd506ed4f2e610ffeed33d4af22bf7a32fe1d282bcd17bba9dL'
I-690
I666
tbag7
(g8
g9
NtRp13
(I0
S'ee9bb86cddcc49913de21c45f8b7f8315f0040a6fb814f56d3b192a9826c5c9841cb8b758238ddff416e33afd269d1265c39335a591595d4c2bdc8d7314d8557b77eaa2281cc9cfd8e69b6bc5c6ae9935571791L'
I-693
I668
tbag7
(g8
g9
NtRp14
(I1
S'c905a6489b5e6e1bab66ccc7406536b3d5210b6a4e0484602c1e5d2a396e297e7f2506834a874d644822f9480da2dd7fa10b9bec34e4e1e4e1255caac4419ba6fdf57e6fd3b2ef0900d8000d8d023222901952dL'
I-691
I668
tbag7
(g8
g9
NtRp15
(I1
S'b5545af404513e9accf1ddb4c366502809dca9d3f58d73182eafb94a6b1b2ed96be07215559b3a3d563619d0572f85c321f66b5b985080b23435fc6daeee10687cde90fd19285c621562d72dbd51fb969704c81L'
I-691
I668
tbag7
(g8
g9
NtRp16
(I0
S'd923f3ce77fcf32fdbaaedb37e6474849cf4a30c59f0f6aeb691362b73c55de439f28251d000ed8dcd4e9db0559b315e36fe8f4d3f9f9c8987eef46a6bc4ec02e03ac918aa0fd720256e405ecc9268c365d34bbL'
I-691
I668
tbag7
(g8
g9
NtRp17
(I1
S'8ae1ff0295920d8206dfef9d4830a77306ed2973938d92371a2c1b56da1135ac20235c2f0535b0217ec22c4a7dc5be2c5fb5ded54cfe9f862a24ae06e4e2c3c8987f3c5c03e2f7c02ebc3fbe690f02e6e1e70ffL'
I-691
I668
tbag7
(g8
g9
NtRp18
(I1
S'48141abf3fa271c7cef7d1afed41d522c74faca69dac62bdac59310e915bb244393734498c71032c22bf2a3d81b42caf6001ae248915c2c1bb239e4ef3a919d90fdf07024337bf1de801bfc6972117cd3022a9bL'
I-692
I667
tbag7
(g8
g9
NtRp19
(I0
S'2bede381f0ac0e493ea6da78f2cc982e650d9fcb4773c3322924a22ef0a3af56d88d23ef666bbfdff78c85f6c13a0706d8e0ddea841d823f76e6ec4d65851e00bdb2b14e701fbe5ce87e671bc64fa27af00587fL'
I-690
I666
tbag7
(g8
g9
NtRp20
(I0
S'6a74d59fe21761d887038699355a273ed8eff5ec2834ea2945b20aee581f916cafee37e70d0cabc2f9eaa670e59d3950e5f10dee88729577cef10b481be1331e35f2f70d45bb9afc4850d3101a5bfe0195b4943L'
I-693
I667
tbag7
(g8
g9
NtRp21
(I1
S'fd637b465236aef08a1d272b58a07e7425cd5216e381af37091b0eff19b53d7fa0cb8dbf3e469d3b364b84a686b6326daa8f6e83a2972f8805066aac1c85c83f59c95171938b2bb741b662ca96a81d8a4363e91L'
I-695
I668
tbag7
(g8
g9
NtRp22
(I1
S'2dfeea7d8a58737f67e1b066331b039c2b0bec51ed1872cba8c72da160e8fa445ced5cd52562def85aae8f2b6a920407bf8bf126d4a3d46afa73c192ed87cb7bc81d18636150fa2747815009a6c1e3e56ffd021L'
I-690
I666
tbag7
(g8
g9
NtRp23
(I1
S'5acf6ef52cc53db322674ce131c596a7ece5933de1c31bc24a0729b208c726ef43aa3970adc3d6a7958a88323732d651b6bbff68c1bcb42ded81954bd84d64a150ae8898031db72741b5b838826610cc467ff1bL'
I-692
I667
tbag7
(g8
g9
NtRp24
(I1
S'37882a47821370e18bc91dc736435d2038f8740d643b9d9c3171290d0a5e368b22d1438c43a9a6088ea83f38cbd3292154f2bd24b571d39256e306ebc488edc50d932c9d6606d92855d8c880b9be3f85bbe1a3bL'
I-691
I666
tbag7
(g8
g9
NtRp25
(I0
S'caba368fb9720126be6d23eb1381a94f5474fef5f4c7e87ab84f53aa401bdc1d76ab18339020b9ce4606c9a3e4a36cf39fe180dfaec8edd75e3ab6ea1864eefe9bc5300e83e4903d432813feb5a3bc10ac8e07bL'
I-692
I668
tbag7
(g8
g9
NtRp26
(I1
S'8c34e04e65536cc1b10836962005c350846387bd0df15ed71287fbd5d6191002313c4d8bd2037bb5cc99db880c7ea11d54ba797577f376a788bcf51df3640072ac58d8c7eacaea2cb8759b092f8ec4eca6a1df1L'
I-691
I668
tbag7
(g8
g9
NtRp27
(I1
S'14b9ef276bba9af78302778c7b77f1277958363743d73941acc337972c34942141a0375294ad3197fbc071c011d8645a8c29975354c7bb3e30d46070cd46107b2981a4b7fbce7ec1f138ebb67bd915fdf84dc29L'
I-689
I665
tbag7
(g8
g9
NtRp28
(I1
S'a978101d13634860530f303f9b40eb8540f7b18409e8b8dd229a80319acb0d09e1cee565b973cac7cd359fc3373b893adf8b45e014968d806a0e13ad9aa195e9f302a591b56b901e82ddbe0229273cadc4ff58bL'
I-690
I668
tbag7
(g8
g9
NtRp29
(I1
S'7f806e48f48a9b346c232ee637bd03458795acdaeeaf47080a6841745fd22b32ccc2530a53835aa01b0e00e496f5b8772747d4b81aa1ae85028b13373c21454d41fe1a8792fbddf892104eaec8d404db07e15e5L'
I-691
I667
tbag7
(g8
g9
NtRp30
(I1
S'a3fbd2fcd2dd860367e6f142d5a397d593d38d40c148d9f689749daf6d35809a1b47a0bd53143a79572d8f17834a3fc93032021abcf323ee77bdda087aeea5e5f7fbb8eeb1c126ce44331bbc68c06e7ea7134ebL'
I-691
I668
tbag7
(g8
g9
NtRp31
(I1
S'47af1ace88d11dae16bed1cd36ba389ecb1fdc3ac8c2c0f2750e1dff7b45095b50e87762d7f198e2aceeb8c10cce21eb0ac6c5e9306c8a9decc0887909170a6f37f1624c072ebca1b495564db36ffdca2bf3e13L'
I-692
I667
tbag7
(g8
g9
NtRp32
(I1
S'fde2069b912aa90319adfd30c9d89abf149821a6e2f9970e7191048872f66e7403597168813d1c5dceb8fc924381c4cd6d465380ebab3633ce3bcc4f64f17ec45d9f013b82d0b1246ab2d42bac77b2715374a4bL'
I-694
I668
tbag7
(g8
g9
NtRp33
(I1
S'56caf9372375c5e2e2213fcc5a5207d5716e61b11ef8d8defa05ed46785f2244910ac69f7c83489a8007774351f96a0baff54cfa5cd984f1dbfd362eefa697b8482898fafca64aafd58d75094306135315742dL'
I-687
I663
tbag7
(g8
g9
NtRp34
(I0
S'e7629bd87d6d495d177a234ab54f6ff55e867598221acee0baaa7c3b127bea03f3ee9439f8e214f019d57b6c406710ef6b1d66fda854e73147e680940d53e5fcd9ce14b5fecdd5de49e323de0b56c9fbfa26787L'
I-692
I668
tbag7
(g8
g9
NtRp35
(I0
S'1219f6160c9cf748e8d2efe36734a5258bc2b18d0f9bfc8e9ce1101dfad8a630f71d43ce83af4f0ac79e3c2f31374ee04c314fde9a5fe6fcced8d8eeb9cb014c9138ee976c1a15ad13a690e5b2061e7d10149d3L'
I-688
I665
tbag7
(g8
g9
NtRp36
(I0
S'b6034fddebbb09b6e9107c853e09ddcf7fd9c333960b9abae5535df98f745fa815c80503aa62e20d771409c0a4313021b9d6d6811aa18b2c5d2c40f00d7f9642231c17580fe0a30f38291c6c0c8467b450a5afbL'
I-690
I668
tbag7
(g8
g9
NtRp37
(I0
S'90aa4f9bc9c5bbe787078343d4e081adb0561e56008b2620fa0d1cd4d317bbfdd17e8817122f8f41e2f243d0f35acd4ff378452ee577f52e66a063e7baf8c9cb2ab88266c285f8c5834fa8ba7953a6ca889487L'
I-690
I664
tbag7
(g8
g9
NtRp38
(I0
S'17c0bb66ad031a1eae7689e6103ad1e0b754eb37b6cf069f0bf077f335d66e62343a7240ebe56ab04751c1bf6a42bc759fcf559bc9b106ae060b8593eccc81fd4f89cad92f513c66639153f5f9b45e4c4da3805L'
I-692
I665
tbag7
(g8
g9
NtRp39
(I1
S'136af5374bf7cfbe5b4d6fb93f1f3ddb76bc7d33670d89ac42842504abddaa7241f54b64ee70ddc1b8f649edcf68fd7f7939d6e5a8686ec66afce002d7e271e109c825a1adb053ef24d0dae7e5140c85a18906bL'
I-689
I665
tbag7
(g8
g9
NtRp40
(I1
S'22d871a06186d4f44fb3c484f4b75a0fc88ac0c1c0593e78f74761c4e7806e213de7919030f15aa1cb35105241c0d27bf12882836dfd96f540d9780f698ad537fc41476cf5c37d0a3a5d6739a868a4f0e04e6bbL'
I-689
I666
tbag7
(g8
g9
NtRp41
(I0
S'8fa71827e48c031475f10cc1012a8f8654c8d20054f48a59ea41ce23f7c15695918b1d609dc40d4ea59a1601a3cddee0f1f35cd140c49e2b8618b4bd7ed77ae83376dba62ab734f1dbb0dd24d5174066986ec1fL'
I-693
I668
tbag7
(g8
g9
NtRp42
(I0
S'881cc0b03460f97c3b593d609c4b1050183cd1ca76175d5b4fb924a9677da5396f5af111086910e16655d49543a4314fde6e34831b806dac2b8e3863acf422f00858647d90893a3c6e09ff74fedde9c7870dd35L'
I-692
I668
tbag7
(g8
g9
NtRp43
(I1
S'eeafa304a4a62865186160764ae26c03e7b3755368e866668fb389853138b1b8b26d23453125a6b8a3c2b7c30c937ad31cc715ec5ab19e0da2c55dc0df026c682639bca358fa332eecc500bbee5afbb95ac4c93L'
I-693
I668
tbag7
(g8
g9
NtRp44
(I1
S'bd961747ae903939752c276bfef5c6f9d144efb30c2fcc8c56419a2cca2110d240cdbc44d5d190590c04fb16bc450adb292bdb9e25414211283cb8569defb04469cbb8be54a2dcb532e5c6bd10158b5e4cace51L'
I-692
I668
tbag7
(g8
g9
NtRp45
(I1
S'e2ff43cc9fd3d8ddd718616aa48f18d4e3ef07443c69ea89aa396e91f9c3bde571571e542aab6612fdce6b46f2005d069fbe0ebc4f891110115297d56dd5086c95f7a4a95588618f369302f98d4cd247f1d5e0fL'
I-692
I668
tbag7
(g8
g9
NtRp46
(I0
S'57d12973d54931b631c1a47ac37c39428db49f4662688215b818eb2f143b1b485c05fb38aa7de3e7dc302e2a2415abb3e699c33c2d9d6a71c800e9431a292abe6ea17eac325f281b4480b137427536d7d3f1c77L'
I-692
I667
tbag7
(g8
g9
NtRp47
(I1
S'84806fcc65b062efea9452c2c6be343036ee9e43adefcf992b61599e5332d2b62d4298af157042dc45f829b9f4703de205e593764d2bdca8de5dbdb8c84fa49b2d7954af630ce8096c75cb92d2221e7e86202efL'
I-692
I668
tbag7
(g8
g9
NtRp48
(I1
S'1a7598f6234fe9de7e39a88f5412a7667db4304f1ce807dcf6543625d861d3f5d0d4df1587bd2fa71ceaa290dc3ac0697f074db67322cf0582373c28743173971cc08bdb816e19cc99a70898c7c09cb3ea7f903L'
I-689
I665
tbag7
(g8
g9
NtRp49
(I1
S'b2ff5988f601f14c15b657b3dd49469f2526b4bef06db0fbd3a9be493786b44e8b6759c907a70a3a4e27bbfbe0fa64802bc90feb1dad0996d074436fb10835e661afc135a9f4a60a9639dddbd301de62a9f5177L'
I-693
I668
tbag7
(g8
g9
NtRp50
(I0
S'b121a41747c349c167f54bd6911361619cabc47d5678bb732bec567b8705c65bf9ce8d0b68c8ef1f0cf97da564ce58bbcc61db1564c63c08e0ec403470566697250f6e94999af02b8d148092777bad95a4a1243L'
I-692
I668
tbag7
(g8
g9
NtRp51
(I0
S'3db71ed9be4f04ea02ac832d9b0b04bb2ffac25519f5aa0060300cc9131ab82057380f77983768b0d236768cae80619ddb7e24612f5c6c31cbb196e1b892c7ff8c96b37ec204a141517e77d1d023cc340090bf7L'
I-694
I666
tbag7
(g8
g9
NtRp52
(I0
S'36d9bf3f7f9440af13c408843bd4eb648599a88020aa5fe77e65e1f024e2d8a25b7127e1e024544103a2701535422f67969998b3ec0312c2c095c00ba9a0fd330b8255486581576e1b6e06cfe23c171bc49665dL'
I-692
I666
tbag7
(g8
g9
NtRp53
(I1
S'5cfc7b01d44d60cc40f8d3a1df8507f6f764206da0c45d154863c03aaae89c1828f82dd31817b5965b57eb1ae29e36fe7c0df6b8b06c77416e63ba34156b8187b740e2a60562b188363f8d245bcbfab71939b2bL'
I-690
I667
tbag7
(g8
g9
NtRp54
(I0
S'383c96f231b6c9e0d229917cd0d2786b96f69d2f0ca091258390e5733e71dd660f59b7fc23b479fe0945ed1f729752edbf8d96e371af77901501398ccc001e472d83ab99880907e16e8146e868ee3e66632c37dL'
I-691
I666
tbag7
(g8
g9
NtRp55
(I1
S'cbbb7d2d3761b9f8354ecee9ac71afd09e70e7b923b846f04750dfa76de7077a89be3c2a2e6374356d4790d8d97512c3a935dd20a2750897237b2da76024cd9b507694cdbcc45c98c303b1712d4f469b343ed49L'
I-691
I668
tbag7
(g8
g9
NtRp56
(I1
S'76406d38cc102f2478c1c9b89af2ff488738b070ccf9c49dc23df9bfe1ec1635b949222cc17b431ab67f825a51db3e13c80d3aabd7db8891167281f953a646bfbc79d8b0b380df2cf82f9c004d390bee74aeeafL'
I-695
I667
tbag7
(g8
g9
NtRp57
(I0
S'1e6e4d5fbf2c597ff63b07732a1284373ad7501904b2455f9f028456bd8ff88bd2e537007e3c9550260043da9713cc679c60e7a4b82c621c8e6530931e97a14e5f4b3a75a5faab01136d7a915fcd9cbcf161961L'
I-695
I665
tbag7
(g8
g9
NtRp58
(I0
S'28356d0914ad91c111e0abb958cc54214d3d82e4edd350b1eb7519b1a95beaad6afbb5f79db19a949d74a70a212e56bb3a44a70c54e381cd0d5dbe5021e22ea178dc1693d369a45b1de6f022e6dec113072ee51L'
I-691
I666
tbag7
(g8
g9
NtRp59
(I0
S'978272a8b1ddb8a9330317c4f1d5149e36dfcb94960ea68b3a9448a880f344604aa03cf2fe89c94d6440983587b5b7cc1ad30e02acc71ed97562ba82841125593c479b16c6946fd861de62cff3e526ec77db36fL'
I-691
I668
tbag7
(g8
g9
NtRp60
(I1
S'2e59b36efddb6981bf7f86d13a7cd15fd72eec7b8aefaec89f5bb5241833c48bc61b9b85a0a81e910f268fdb7702190e524b184f5e89738e515bacd506ed4f2e610ffeed33d4af22bf7a32fe1d282bcd17bba9dL'
I-690
I666
tbag7
(g8
g9
NtRp61
(I0
S'90aa4f9bc9c5bbe787078343d4e081adb0561e56008b2620fa0d1cd4d317bbfdd17e8817122f8f41e2f243d0f35acd4ff378452ee577f52e66a063e7baf8c9cb2ab88266c285f8c5834fa8ba7953a6ca889487L'
I-690
I664
tbag7
(g8
g9
NtRp62
(I0
S'6f03440ce717c173777b11eae39944361506d66b0aa14640df6a5f1d5a3044bf46e5c1e58380774498df3b298410c437da19ef19804cc6a746ed0fff8aa80c0c26c8037332dded97f7f0c64641472ff960f9893L'
I-689
I667
tbag7
(g8
g9
NtRp63
(I1
S'abe3bb02f286e46985f312a227aaaacc4e7ff6e5ad05490f781eff8595024f55d4976ef930f788780bc8ec1221160b6d22b3db3ee00edf076bb4b8d3260de57e70c175dab88a09be67fccdda799da6188f54ffbL'
I-695
I668
tbag7
(g8
g9
NtRp64
(I0
S'58a38ec209aeed66e1bf9150e77b75bbc4a830460f2527d9ce197b2240df1bdeec824ca6bab9b89317f6d0497a8febbb5d1be7cfae60bc35977c6ec3ed2a0866db477351a84454d2517847678879c84c3e50e4fL'
I-690
I667
tbag7
(g8
g9
NtRp65
(I0
S'f84c70998e14ba36fa6c29fe728cfd6f2563a622a3b125fb8137afc01d99b0896c5862f854c236bdd1bca109cc00851ea9df100465dd55c21343aea8c9eb96dc8ad267f159e6b2cf4753da5dd2e941f7663ae93L'
I-696
I668
tbag7
(g8
g9
NtRp66
(I1
S'68239e8a568d6c04327a9bc061f657b302e1f67947caa8134c43501f09d502adeaf257c0120a6ab7b1c875e02a7ba96a2a667b086fc18577ae9778b7b085421889af51e2a836e0fe84bcd16626983dfb30b4dffL'
I-691
I667
tbag7
(g8
g9
NtRp67
(I1
S'c61d27c9ef9e67626b9bac878345226905a1be0765f12503a95ea4ad95ffa98772a061efb400951013fb0c3a2a675bf7d91de5619338e9895a9d801aab9a5da4cb4810dd0031b36f7c9a36e676f05a694a3343L'
I-690
I664
tbag7
(g8
g9
NtRp68
(I0
S'd5d98c13fb549810f30ebfd9b2a819bb2caa48a031f249622e62a142fa58a774c8661fa180d3fdfd677d6c0040fb6908c8b32fbfc1cfaff601a36c3c7c1ab8abd1cd83c7ab1afb545e01ea788bb4c5a714485c9L'
I-692
I668
tbag7
(g8
g9
NtRp69
(I1
S'58862d4598a8f82c048cfbd2f09997239752b0cad3b0c7cfa363fe34b8de8cae06f070bc3d6e5dce959e7404bc7a17a14aeedcab254af29a17ebfd52ca87ea9dceb45b6d56e2dec57c9a7fa3ffe277763c182ffL'
I-690
I667
tbag7
(g8
g9
NtRp70
(I1
S'84fc12fbb378372a6c22db94993e56e5b5d7d367394d84d33981992d751eb3e326201cfbb56912d59b1d96d3e754d82478bb27f8a65ec30f3c689e49ed2a3484e860fcf889310acde7ab56a0cab1dacd25b7a6dL'
I-694
I668
tbag7
(g8
g9
NtRp71
(I0
S'7213152d11e5db4e2162bbdcd3cefa2302e3b9605a815fe8d3061c375cc167072268ca62118e04b30c62a6490113016d501c3d291e73e378f67261f26adccd34886c36597d4d64fc0bc36a84d628abe7e4b3121L'
I-694
I667
tbag7
(g8
g9
NtRp72
(I0
S'd7f9ea0a22f8ab5db717f4b261e7713fb78972924b9bc93f264e4badb44dfdfe060d80f63ab198321697a7deff6ae2398474e4182370a831db80c82880342b92e281ac1d85ce4fb3ed4ac6698c1cfb827c4194fL'
I-692
I668
tbag7
(g8
g9
NtRp73
(I1
S'41a72a5a065a4c2bfedbc205d28ea3fad044005668aca16b751ac095e6cb15a71036c344e8d145e78fd468d2332ef8d2daaceed4ccae4154cffddd0225a7eb806c0bab1f94e7558bd413a36bb4d1e48447016b1L'
I-691
I667
tbag7
(g8
g9
NtRp74
(I1
S'ab1788d49b8b3bbab691764991d0b300e76f3ba4ac330cc7bf853254758287b75c6295ad32a1c363f7c18b60b47d69b471663320de7485b38d2416e2d8f9a243f353b92df3cf3cad2e6254adba7ea7ccd3a18bL'
I-687
I664
tbag7
(g8
g9
NtRp75
(I1
S'303251dc70696d372f2c4e3157bfd8ae106b386ca6b5b815e844464510a79271d9521a3b3437a48e4dcd2aac787bfcf716457b5a7329a794b2dc1dbdc51f84a9f702c11911da76bba630dc9705be943d21349c9L'
I-690
I666
tbag7
(g8
g9
NtRp76
(I0
S'f3f650205f2ce64f78eee655d43bef89777826087335e899c65bd18133ac5a123c3c64ac46f1c90dea4b160510eb099653b13257e63f5251e22bb5b2d15b3c0ffac3cf1842aee9e9fb7118fcc64ef076519916fL'
I-695
I668
tbag7
(g8
g9
NtRp77
(I0
S'23ecf8d53739af12cb572f929b12115b945d1af7782062a9264011706e02bbe1ae6dd25a41fcc8ea9bc5932d4365b7c76ace2f7d89959b0796df0b3896c475c8574ed5ad5e3bc26bf44328992719adc91fe6da9L'
I-689
I666
tbag7
(g8
g9
NtRp78
(I0
S'2c632064522b7d6ed94756e0e0e50877e4de6346a0a37b806693cc87dbde4c0b2d235eda9c6e1220536141c825c6ad6f56c661dbe158afe331e8b94479da96f8dcf1bf0de996071da020f5fec3285b9f32b8b1fL'
I-692
I666
tbag7
(g8
g9
NtRp79
(I0
S'e704647d056e5b2c3b332ed1c50898d2fd84a4c531ed4494f494f769eba31cb7b0438c10d1c1e8ed8e94a1bb207f70857f3f6d184d020eec7169e9e489d034ed18531d30b2896c41a1d791ee66158ff0d8303d5L'
I-693
I668
tbag7
(g8
g9
NtRp80
(I0
S'997203dc6af282ed34daac589996136f47665c6e4b45e2421d1a3ac24512029e335815fd65171c3ec5e33e8fbae643ad1d0e419b016061d61be1e6d0e590ce980ec95c93de499870c0ce254fb09a28cfceda875L'
I-691
I668
tbag7
(g8
g9
NtRp81
(I1
S'67cfe50597e3ba11d67b5d8fe009b0898a83095ded635cbff9cf09e39dfb73e10a6b0e462dae4a769a474b3c2be306a73333e0d508a096d69b11706aeb5ec01ee38855d3dcd085dd870bd0b206ffe0a815b1c61L'
I-692
I667
tbag7
(g8
g9
NtRp82
(I1
S'eea41fc38f33bf9316b38591b8f0c390a5cce9b2981f5bf4390c3bb3a671d9a0fa27be7faa60396c599daec00bf127a9425cb35e67e3f59c60070a034535892131711b74bf47ecef34bbe144b082232bc5926bbL'
I-693
I668
tbag7
(g8
g9
NtRp83
(I0
S'48d12abe59323d5997cbd187a336493448b1ccc888717d676f32d679214e16be83eb0430de6efc68519946296913929bdf5a3dcb5042e37da1caf6797e43f96c86764db477531e05f0e7b584c5094ee63aa5e29L'
I-689
I667
tbag7
(g8
g9
NtRp84
(I1
S'6e7d2b686c372b4aa6ebbb60fae61e9b4b015bf3c6e4e55ae3f90ea945720dcf873cfe38fcf66168ecaacb68104a54f0f705f6781ea039a9cc946e0af338e5106e4a77faf44bceec3b2abbb436a071af38f1e41L'
I-691
I667
tbag7
(g8
g9
NtRp85
(I0
S'ee9bb86cddcc49913de21c45f8b7f8315f0040a6fb814f56d3b192a9826c5c9841cb8b758238ddff416e33afd269d1265c39335a591595d4c2bdc8d7314d8557b77eaa2281cc9cfd8e69b6bc5c6ae9935571791L'
I-693
I668
tbag7
(g8
g9
NtRp86
(I0
S'17c0bb66ad031a1eae7689e6103ad1e0b754eb37b6cf069f0bf077f335d66e62343a7240ebe56ab04751c1bf6a42bc759fcf559bc9b106ae060b8593eccc81fd4f89cad92f513c66639153f5f9b45e4c4da3805L'
I-692
I665
tbag7
(g8
g9
NtRp87
(I1
S'abe3bb02f286e46985f312a227aaaacc4e7ff6e5ad05490f781eff8595024f55d4976ef930f788780bc8ec1221160b6d22b3db3ee00edf076bb4b8d3260de57e70c175dab88a09be67fccdda799da6188f54ffbL'
I-695
I668
tbag7
(g8
g9
NtRp88
(I0
S'17ae9c4799b6bf3d1a0ec208ba7076bb841115d3728a59b4037e41b3628b7d365dd050f1e0c46b4679bf5e2cdd139b864afac780ee15750056a85e8ac7cb983bf7efdc05e83e8831aac3e9fcea1e99b053b7523L'
I-687
I665
tbag7
(g8
g9
NtRp89
(I0
S'263a0179d0f9856745f18aef1c15772554bb2e8f34774a6f99302093e6556b704a261453a9eaa4eb3ccaf8e9900d7abe90a22ae1c4c5c5dabcd466c1dd126b0db878831536730761ae10072a5e6d9aec5ccd565L'
I-693
I666
tbag7
(g8
g9
NtRp90
(I1
S'288a81ccfb84cc6151a5330199f5c105c8dc683208bf099a3b846daacf58a40cccd03d9256d0d77dde3aa1eca60c97d29113ab84b2d0e0baf56295c776e33773af6f63b5859eb2c39434cefa2ad38070fee5a5L'
I-688
I662
tbag7
(g8
g9
NtRp91
(I1
S'55550808b921d031caf93d9ea0e7ac909bb4579e4712f3c161143e70f6dce5483890af4f6936b4c0f7a599e53fa910c981c2efa19c116fea2424cbcfe87f3033d1d38fec6391e70170acae0f131042601d69f03L'
I-691
I667
tbag7
(g8
g9
NtRp92
(I1
S'fa7ac5cf6ad4dc8fe9deaae3bfc3d3ca6469bd3b6b9cf97c37911416a5f4facd252482db2d0733031701148b85d21b9e7e877817ab48a9cd858c672e2d326f7d6ca253bbb6a3294453b9da337afded6bed608b1L'
I-693
I668
tbag7
(g8
g9
NtRp93
(I0
S'1e3a64f6e2ea87446ba30b86ef1e0d706e922b4efb1584a50155750127997f518b5e66287ba9c3e61c5add769ed1071363e2dc0d9e84e9a3373731a307eacceeaeb4653e037444c2f89092ac5dcb117a4545307L'
I-690
I665
tbag7
(g8
g9
NtRp94
(I0
S'7ed77503a4d06289b6b2b51cefef035cb9ba5111ef336e4af5bece8efeeebae42d95fb88d2b3d66841c28e5f839dbb6ea41d6cb4691ebd04b26796e76e9e43d738e2488cb1269d24332c3ca11088c1a858a5d8fL'
I-692
I667
tbag7
(g8
g9
NtRp95
(I0
S'19e30198e570ed16bcdf2aa973cc319a0c9826cffcb9b7fce30235eb6ab03872cc96cf89d93e269ba1616a3f50748108be95d2f791e7b2e03a015cd1c51c28ea6052466cb9a613d944984964f9cc9a0dddc3adL'
I-688
I661
tbag7
(g8
g9
NtRp96
(I0
S'c18fd7b8ae38611c2a9c14b1765571897169f1d27e8380c2d78d33b114e159c25a3ec7897191ac5f51616eb9d631fc5336b6d8e32297ad1e6f3a0194d1dcd0ea699573b9518143c4d978a6232a322b2574d62b9L'
I-692
I668
tbag7
(g8
g9
NtRp97
(I0
S'cda50d46621268df6b7266a17c75cb8946bd75ecf1bb41ceea69388ddf541eed055f4bace56f6efe999af7cb8f36ad786fd8c6aa5203174876203e12784b76eb6b86ad2712ad3ec1b03071ad683799558b24737L'
I-693
I668
tbag7
(g8
g9
NtRp98
(I0
S'175e5b74e7b7876e37f158fb746b59e0d7e8f7e7108d59106600ae6a8aadd6a1d6a8118768e528ed851b2f06b3f0506d1dc83797a756edb01eb89f32ba63dffa5babec474332a3eb60c2eae5f2a5fd3c2d9825bL'
I-689
I665
tbag7
(g8
g9
NtRp99
(I0
S'fb641c146a116a50ca0409cb260fa858cc47b463b8136b545555cc9c9a15b6be761c75baf33acbc77b43b826861b69bae55fa01d157cf4117ab54b509708063b8cbf791621af8b5be799163997caf961b90a929L'
I-694
I668
tbag7
(g8
g9
NtRp100
(I0
S'cadfcd6e5a8eb1a7207a5f1391fa81394017ae38109b2e7abcf6393f5b942b1f0c6c4e74e9ee6f0f08d5463a71553751ed636e07728cdb2865e4396ff004c4eafc1f8c76a228a67a17d91e5f8029858f5eb23c3L'
I-691
I668
tbag7
(g8
g9
NtRp101
(I0
S'818b50a9d092fa542ad1027452312774ea21d922632cbf04e0a84e9faa676192212d111a317455b261b5de336fdb251ab56f44b5a308db2db25ed321230d8eea23d5d00f5dba9f0cc783ba77d1f087e25461b6bL'
I-692
I668
tbag7
(g8
g9
NtRp102
(I0
S'1af6bc2a5384e4c5b286779361b1903faa7cb9ff993342b2b873c1f9c5397aca25fee2966feba6f44f9979c5c532148e725c396a412d68b2dabb4610b52131fa560008f1f10ee20dec911ccf7305745f506f1adL'
I-689
I665
tbag7
(g8
g9
NtRp103
(I0
S'7cbf2f1da27c0dfe2a8eeb092bbbddcd8149736c4230c429e879ed4a75b3d5f9176c03ad6c1005d68cadecc27c294a54a09891768c624f8349e587262e926376eab243586d0ea799985ae1cf84adf8dac19b663L'
I-693
I667
tbag7
(g8
g9
NtRp104
(I0
S'6906395a698604554a73b18becdf2657c1c0213c43d86e90080de9923e48e3724f68e21dd605c48786298ac95d48307db0da042e9b78f6f0f79a30ceae6c9a31fc12816bb076d8de4cf76b250ada5a7ec834de9L'
I-692
I667
tbag7
(g8
g9
NtRp105
(I1
S'321ea4853cc710d1180e1b2ae76e111e2864a41419930a517cc50f7e8e076e7047e3a051513dd59ee6144fb9b025bcb95371db7367b6295a4f2a77a77160b98d55db4574ebb7cdf458d3eab162498ef5e84bf31L'
I-691
I666
tbag7
(g8
g9
NtRp106
(I0
S'9d1b222b0c6c735ed173dcfb18f8173442978bf8f855a275d19b8e2705fdd97cec4e17fbd74691461b643c8526118c271ec9141b9d37bc7b055807dee36b8366159d748f349ee7aae1f9a2d7ad4cc7c3e1638d7L'
I-693
I668
tbag7
(g8
g9
NtRp107
(I1
S'4a35e16d0e7956e4573576fbec2aa32fde9f245c72f1bbbf70a78793effc30e7acbf4421ceb05940dd209abc24ffbc216d1f6a776d269c128358faa124623bff14ee39578075811d46aaac7855cac20065e5693L'
I-690
I667
tbag7
(g8
g9
NtRp108
(I1
S'aa99bf4d46195df275454ad7c09adeabe3580fca5fa2e888631ba61f75c3a613ffa632c74e71d089e3de5648304f203b468f10d69fb8c5a79570d255f554bcd26d08834c7f93551b3a3cbd3833e47a8fda2dad5L'
I-691
I668
tbag7
(g8
g9
NtRp109
(I0
S'3fac6015efc1d07b7b37688c5554c4ce640b1686efb02e9cd3102328a58b8be0bce1c023b050c005b29a34427cd53314d3676ab52f29e9f29fd0087b16106a941323890a0848b0d8545a808bf1ee7ec104c39f5L'
I-692
I666
tbag7
(g8
g9
NtRp110
(I1
S'c905a6489b5e6e1bab66ccc7406536b3d5210b6a4e0484602c1e5d2a396e297e7f2506834a874d644822f9480da2dd7fa10b9bec34e4e1e4e1255caac4419ba6fdf57e6fd3b2ef0900d8000d8d023222901952dL'
I-691
I668
tbag7
(g8
g9
NtRp111
(I1
S'136af5374bf7cfbe5b4d6fb93f1f3ddb76bc7d33670d89ac42842504abddaa7241f54b64ee70ddc1b8f649edcf68fd7f7939d6e5a8686ec66afce002d7e271e109c825a1adb053ef24d0dae7e5140c85a18906bL'
I-689
I665
tbag7
(g8
g9
NtRp112
(I0
S'58a38ec209aeed66e1bf9150e77b75bbc4a830460f2527d9ce197b2240df1bdeec824ca6bab9b89317f6d0497a8febbb5d1be7cfae60bc35977c6ec3ed2a0866db477351a84454d2517847678879c84c3e50e4fL'
I-690
I667
tbag7
(g8
g9
NtRp113
(I0
S'263a0179d0f9856745f18aef1c15772554bb2e8f34774a6f99302093e6556b704a261453a9eaa4eb3ccaf8e9900d7abe90a22ae1c4c5c5dabcd466c1dd126b0db878831536730761ae10072a5e6d9aec5ccd565L'
I-693
I666
tbag7
(g8
g9
NtRp114
(I0
S'2d99bc4f062e15b3e09228dcb757fd41947bf695587c3037f4ee72ff4daffa2191bd59f6fb2d2cefd44c62cabe15325e7609355af8fdefd3f3da4278eecd75f43a848a166c366174e5a2ee6bae8eeaee74d5e35L'
I-687
I666
tbag7
(g8
g9
NtRp115
(I0
S'6e3314ffec06b1ea5e3bd2e95300669998fab93e895a0c479a5c78fa4201bb39c7eefe046a4b00fca0267e61bbca1a5779bf060916669c1521a8a3b477997ab3595989cd3cad2e46163a422c702037c6b646475L'
I-692
I667
tbag7
(g8
g9
NtRp116
(I1
S'9c2c19316aebf616cbafd754137660a5e920be4c532880731819a5b66237708d14f06c10de1a458ff18394cf143ef02e52a2c45b071f5c90317f4f57a72f3d2fb96d4e7db6267d62c670708825f12df76f7e0cbL'
I-691
I668
tbag7
(g8
g9
NtRp117
(I0
S'915cdc9f7ddc7e6747b23d6a416fab01340c825c5fef637bb4627cfd75817c284d6c3b10bcbfa2e1665f754455fa5655039d1c31a2f8403dd7b89de407548a9895e93e86de395dd87c4b1d398ba47a53a7e6a63L'
I-691
I668
tbag7
(g8
g9
NtRp118
(I0
S'3a889c68e4a2d56defa62d0c871077cc2e1b61ae8b688028b1e7cc302bb6fd6d38ab623ca65b7b05e685afc957e26fdbabb80f0da0fb8eed99c31ef907429d0d036251a2f146c2509d48fadaceab622584f9041L'
I-690
I666
tbag7
(g8
g9
NtRp119
(I1
S'64b6111d9b1d0a2e47dbea0919f2fe58d22d45555d96cf4c602eb0f59f17f170814f9254404e40ebc975afae8d038fbdf6eab19592575a1addf0fa5f979e77bab3d33499d51754609f925ac58ae2a983e670db7L'
I-691
I667
tbag7
(g8
g9
NtRp120
(I0
S'15644f9eb211b301e2291ab8116bbfb4fc9cf354776599bd6f7f34ccabd55f8300ddae286fb2ff6c7683374e82767f9a10fde49bc7bd402e60739cf50d8e9b637fba35f395675aa9ae140fcba4767cd8d64b58bL'
I-688
I665
tbag7
(g8
g9
NtRp121
(I0
S'4d345943dad890a1300ff07d09c854e528cd7ef2e2ad384502bcafb3f20e99b42d277158e0ea4d2db2ac8b3ae280a3af2ea69aa5c2a677a4934a603f94268e5bb6bf7ffff808b97e3a7849b1f62c0f1873b55d3L'
I-689
I667
tbag7
(g8
g9
NtRp122
(I0
S'd82f77b6dcc426ccb53e7067c27391ccf59a842d17e7ddab3180d4a856a6cfe449e237115ebea3e90f27668a41f39300b5c0a0d59787c377ddabeb165d8bd76496bd3344b11ecbd1c1b5dcef1bd4b27516bce51L'
I-692
I668
tbag7
(g8
g9
NtRp123
(I1
S'2a8bede6d9e617cdc1d259f604fbbf1cb112196f688b2dce4e5ff9fba9b916da34191d85222d1604128021f8d6a790da9dd16e22eea8f5f62f050a7e6af3e2e4080c07bb67523bfa9af74030964936df2d4f7d7L'
I-691
I666
tbag7
(g8
g9
NtRp124
(I0
S'c2690a148cdfe1ab27bfafca8082e1ef5511436e0ccd39f56f630540f14eef6925b0dca93254eee4e29bebcfa6e311167858058a54d13bde86cf91951d629233392fbe4cbdad2438399d15d42cfed4871286b39L'
I-691
I668
tbag7
(g8
g9
NtRp125
(I1
S'352ba0de21023329511d3d5a6a1d5f41dc4ca063b23c240561c70baa9cfed844e51c9c7b7d625f19262cb1f77fd413f2bbf7950505f97cca6cdfbd5d6c46b3a06669978be1c4f49067ba201486e4a4cc14ba0e5L'
I-689
I666
tbag7
(g8
g9
NtRp126
(I0
S'784366e9e5a0c9c4bb14b458aae71678b12ad154e314e3fdedc6beeca3250ed05291dea147d53167b5d5404b5ef5df233961c8275efd8029f7f6ee6c074262d2e974675f28c9acd430eb0ecf56d35c1ed31f1e3L'
I-693
I667
tbag7
(g8
g9
NtRp127
(I0
S'f82dd8dd79df26f59e133fe648e63cef5bbfe95c145867dfcc1319d8b100752c9cc4cf4cc43052748b94b32025103c5e4e38f5539b9c2a451b8985043c1a0bbc5a780e75bdf253ab83f575a5ea984069dba68fbL'
I-692
I668
tbag7
(g8
g9
NtRp128
(I0
S'5007fc8c0bbc665dfd68f6f29e4f33d45c6e049926c3335975dac2d2a8fc2e657d2ee2b6ac90d8057d076cd0cb272f08f365cc06bcf9e6d89c7527e62d319931f8cf8b28a576b392430c71866fe0f79be272f6bL'
I-691
I667
tbag7
(g8
g9
NtRp129
(I1
S'518f3ef34d830775412512b31f4cd258c6cb66fac0e230bfc23d84b93f9a1acab20a8ebf23577e30a78850045795a5bf727739da5f573910b39a90e55cbff7a6661f4a96483a3cedccd562b7bbf519d2c5395c7L'
I-691
I667
tbag7
(g8
g9
NtRp130
(I0
S'f29141953b56a142e9ec05a3adb815f2526cfac5c2162806b0b8a99c89eecd045c0190d1bd991238b25e710ea0bafbfc31787aa0e33f1d5c4397d974371f976d18ef6ce49571899d263e8229a616a24ade425a3L'
I-691
I668
tbag7
(g8
g9
NtRp131
(I0
S'bec068e82cd85059da6a43c750393218df8708c5514c5a21025096515c20f09a2d1c6e7b8befa1e0380d07d1f160623e67a5d7f2905f9c1b00d167b9275224ff820662c29471dd5b4729c4d0ab95108885d67ddL'
I-694
I668
tbag7
(g8
g9
NtRp132
(I1
S'a606cd27d6e3e91c308df09bbb2fafaff70645a68ca49b4e57398b0807d81b5947654df246a3178fdd9f115f209188683867b6c78e9bfd7c396d15148ea935b48beb122558cf9e26bede84bf8df796480e34bbbL'
I-691
I668
tbag7
(g8
g9
NtRp133
(I0
S'502fcae2b21122e1a0de9375f4e5a3337456d1c1e17e6f9eb4f4e44151c7cd8008bc2af4d8eac3c5badc7d631f183ed974d66612e328470e06339ff598563b587c33d765558da292a89b634ed68573115c2c4adL'
I-689
I667
tbag7
(g8
g9
NtRp134
(I1
S'414a2af9042d376769907b8147804318843a396a6b007fe0163a3706e9a471a7eab81983ca356415b0dbeb5af49309d253be3ffe78bfaa5f6ab894c6014f12ad2e1362c288c65a44ed5072b6b19d08d8141c001L'
I-690
I667
tbag7
(g8
g9
NtRp135
(I1
S'b5545af404513e9accf1ddb4c366502809dca9d3f58d73182eafb94a6b1b2ed96be07215559b3a3d563619d0572f85c321f66b5b985080b23435fc6daeee10687cde90fd19285c621562d72dbd51fb969704c81L'
I-691
I668
tbag7
(g8
g9
NtRp136
(I1
S'22d871a06186d4f44fb3c484f4b75a0fc88ac0c1c0593e78f74761c4e7806e213de7919030f15aa1cb35105241c0d27bf12882836dfd96f540d9780f698ad537fc41476cf5c37d0a3a5d6739a868a4f0e04e6bbL'
I-689
I666
tbag7
(g8
g9
NtRp137
(I0
S'f84c70998e14ba36fa6c29fe728cfd6f2563a622a3b125fb8137afc01d99b0896c5862f854c236bdd1bca109cc00851ea9df100465dd55c21343aea8c9eb96dc8ad267f159e6b2cf4753da5dd2e941f7663ae93L'
I-696
I668
tbag7
(g8
g9
NtRp138
(I1
S'288a81ccfb84cc6151a5330199f5c105c8dc683208bf099a3b846daacf58a40cccd03d9256d0d77dde3aa1eca60c97d29113ab84b2d0e0baf56295c776e33773af6f63b5859eb2c39434cefa2ad38070fee5a5L'
I-688
I662
tbag7
(g8
g9
NtRp139
(I0
S'6e3314ffec06b1ea5e3bd2e95300669998fab93e895a0c479a5c78fa4201bb39c7eefe046a4b00fca0267e61bbca1a5779bf060916669c1521a8a3b477997ab3595989cd3cad2e46163a422c702037c6b646475L'
I-692
I667
tbag7
(g8
g9
NtRp140
(I0
S'aeab626e0b632daacd0a9d4fc0cee2bf85cf6e9ed516dd68d4a8d5e515c96abc8fefa3f9472c35b77131a849f57eace11b04afad2f06ce4c10d951a4f45770280ab1fb25b4cc7e35d3b33148b75a4ffe2a73d95L'
I-689
I668
tbag7
(g8
g9
NtRp141
(I1
S'6fc5f59409384284162bc504fb0c5570c65157fd97948578c1eac7c18481adc9728c61c144f6c3a20b6e709723f9931774a48ad14c089288ef0f7f53f866eb275a5bd436f0eb51601b068c043a62a8db66e081bL'
I-694
I667
tbag7
(g8
g9
NtRp142
(I1
S'49c1771ea3cbb7b23d35c848f6e39c54b4f410ce9a70b5236d24b943cf66711a52d59f0e38ea3044a1040426943e74fb5df36a6a93c945cbcdc3d7c7f0212e2fa74e67f89627e1d83387bec9de88e73f738767L'
I-689
I663
tbag7
(g8
g9
NtRp143
(I0
S'7abcd45a0eee823c59fd2bb17d0c8f447de7d0247439cffb2294b10fd1ce8c2ca1b2a82cb6ab39bc1e4e98867c5b405190249c49ac6c4af5c5a52fa33c75d299c4ec0670df97ff0734373f6e736c7140ca7de91L'
I-691
I667
tbag7
(g8
g9
NtRp144
(I0
S'a4c1698294039e08221d79afebe2a19d37d06113f92e447c3fd0a07c443a54ad14ff74ea075783e5fdfa22d166c33a3592281e0a3536cc2c5ffe04e897bd941f5f4709fa4f0a0f458b88e4aff1b97005a0d76e3L'
I-691
I668
tbag7
(g8
g9
NtRp145
(I1
S'e4630c7db0d3a280faa9edbc51b880ecc1a872b81de7b24ac055842be6f611f8ec7b7eccc871bbed87e53ed6ab4a32c53c8f0b19887a65624be74df172cd3bf34525e849e67238af0574733f1bb5c34d37ae767L'
I-691
I668
tbag7
(g8
g9
NtRp146
(I0
S'85ea603e96ff109a66740e94c215c0c11ff7239922f823a679e5237b10645981d6de4887bfa241b38f92bbb5c1c241da0193840627740e22a4ff81aaa3900171127d435b1f7ce482023620d8816f811e68e42fL'
I-688
I664
tbag7
(g8
g9
NtRp147
(I0
S'8d0e3ff7e2348f97a3d19a7d206696ef9e3f856350665039930c8ed6f67803c584fd2b1581dc508c7ff1e7a4009c77097ef9137430d14d58de9f857ea85ab404b26d58dbdaaaf90fc68d7105fb2b5ded4405b03L'
I-693
I668
tbag7
(g8
g9
NtRp148
(I0
S'2f220ef8d6b4237a429fe1ab17b63ea22cd6bfb41ecae0cc8bbcefed89f2778d913c8119d5b34f97a22fcbec073eb9a6d13d2d09b256c032fb574da4931e9a989b5410a615b62855b0c0e1a0bc86502c8367589L'
I-692
I666
tbag7
(g8
g9
NtRp149
(I0
S'39e3421dd71aef37afd58ff541f6bd7d83f0e88c6f07f1b309d2bd744f2eaf479cb9f8d9d7fffb2217672e3e92b44ead5f1aa65ef2ea28642f4dd1bc3db8e32b56f7e5f25174a501e0a59c09630b367d1fada1dL'
I-690
I666
tbag7
(g8
g9
NtRp150
(I0
S'1fb55990a0d8148cb8bb63aba8dc5a93a6fd9967869de36fc19458ca534acdfaa33fea4e4383e0e2f4df270d8e6cbe60072fcb0a82e8ff1f9be9917e77a5dabec921ad8e19db445cf86c176823a9bdc719268bfL'
I-690
I665
tbag7
(g8
g9
NtRp151
(I1
S'd4be163b9039fb0cde1c33987aa0120b6f41ed66798f3d5832241fb2b224db92530ac068ab3f57ffff0049ad0909d7d6eccc67b4eaf80383a385ed83de9ac38e9351b1e58c98f5484e70f5958fbd19ed425849fL'
I-692
I668
tbag7
(g8
g9
NtRp152
(I0
S'23b95363d686fe8eb0f92db060acde6081599fcfe16c80c249638739ff0319e3edbf88b25a6fa00538b22e7139594d7300e5857c80943025b1765f4c90d106717020f971a7fea9c2ab741f2f251399bea06015bL'
I-690
I666
tbag7
(g8
g9
NtRp153
(I0
S'6aef6b47fee37c93043dfadef480212e41884f6edd506fa102abe4f0488707eac3a9df9f1f7526df36e4095630d7138983820362eac99ddbe3582636164d8ad471eaf8d8009f38d416918864266915c21cfd389L'
I-691
I667
tbag7
(g8
g9
NtRp154
(I1
S'a4024df94c7c561d0fa31da05b04b88d051b667e82ba400f6498376a85ef8198e9bf39f92fa729b88b6544052bd300910cec86edf33f1c117cfff090b4bae164b14aed656117612f0a8908377dc2bdb1d5a1d7fL'
I-691
I668
tbag7
(g8
g9
NtRp155
(I0
S'a663544759304b0e8dd8a12c886cb7f44467f2ff847c7e16b1c5cd222a18b68875c1c34dd263558b510ae244dda414147dd5dbc85cd2bd12f8358e4dbfba982ee87bfe90f27a4d38ad72a869d75cfe915975bfL'
I-687
I664
tbag7
(g8
g9
NtRp156
(I0
S'3a70d0505b07bcce083dff26889868e34619384a12961f233de668e65d87809ded62fa56e3191cc2424e037b49f3f4ad8712a7a3128f3bb200d0f1eb41b0efd81c542321d82cbc7d2bb2cca0d744429691349e7L'
I-690
I666
tbag7
(g8
g9
NtRp157
(I0
S'4eba549447cb6a4e2074d43285fad41676cefe41095ff4bd5d93a9c06249c5e2932cc90dab8458147d71af7ea09d2d9d04620754e2823c2f341ed10da0f509f4aefaeb7e9adda18e9ee5404d320689c0d615b57L'
I-690
I667
tbag7
(g8
g9
NtRp158
(I0
S'1501de5a21e458344b3ba81bec4dd2acf3fd8a9fd9f8b025131da5bec303265e7034f14333a23c2692870b87a2063d22d30affbfd5160c385ee3616f61db43691758b28597dbaf86d66bf740bb8b32bcdaa1fb5L'
I-689
I665
tbag7
(g8
g9
NtRp159
(I1
S'6b87b77451e6b4489bb80da675a2e924ec2db551ee147c850ca5bf22895183f9cc41168ba9dbf7ba51eb3be138cdeac26a6e895f7a7ee7a89f7e5608670f0aa772ed900596e03714946f3c0d218d0bfe22a2823L'
I-690
I667
tbag7
(g8
g9
NtRp160
(I0
S'd923f3ce77fcf32fdbaaedb37e6474849cf4a30c59f0f6aeb691362b73c55de439f28251d000ed8dcd4e9db0559b315e36fe8f4d3f9f9c8987eef46a6bc4ec02e03ac918aa0fd720256e405ecc9268c365d34bbL'
I-691
I668
tbag7
(g8
g9
NtRp161
(I0
S'8fa71827e48c031475f10cc1012a8f8654c8d20054f48a59ea41ce23f7c15695918b1d609dc40d4ea59a1601a3cddee0f1f35cd140c49e2b8618b4bd7ed77ae83376dba62ab734f1dbb0dd24d5174066986ec1fL'
I-693
I668
tbag7
(g8
g9
NtRp162
(I1
S'68239e8a568d6c04327a9bc061f657b302e1f67947caa8134c43501f09d502adeaf257c0120a6ab7b1c875e02a7ba96a2a667b086fc18577ae9778b7b085421889af51e2a836e0fe84bcd16626983dfb30b4dffL'
I-691
I667
tbag7
(g8
g9
NtRp163
(I1
S'55550808b921d031caf93d9ea0e7ac909bb4579e4712f3c161143e70f6dce5483890af4f6936b4c0f7a599e53fa910c981c2efa19c116fea2424cbcfe87f3033d1d38fec6391e70170acae0f131042601d69f03L'
I-691
I667
tbag7
(g8
g9
NtRp164
(I1
S'9c2c19316aebf616cbafd754137660a5e920be4c532880731819a5b66237708d14f06c10de1a458ff18394cf143ef02e52a2c45b071f5c90317f4f57a72f3d2fb96d4e7db6267d62c670708825f12df76f7e0cbL'
I-691
I668
tbag7
(g8
g9
NtRp165
(I1
S'6fc5f59409384284162bc504fb0c5570c65157fd97948578c1eac7c18481adc9728c61c144f6c3a20b6e709723f9931774a48ad14c089288ef0f7f53f866eb275a5bd436f0eb51601b068c043a62a8db66e081bL'
I-694
I667
tbag7
(g8
g9
NtRp166
(I0
S'b24dfd50b19786eac556580def4d8b189d7c0973eb22f3bb3135d711faa9e5fddafe4ece41af79b702cd7ea8bcf18d0369910827fa7707fc47c96ed1553d3051c2202a39a5b4b19ee54cf3b503b887c4479c853L'
I-689
I668
tbag7
(g8
g9
NtRp167
(I0
S'50caf10ec8fd7e4015a0efc2e90c5d4878261f6ac1da80a0b31a5f4336b4353d35e53aadd9cae55b894ccd330968a190607dff1a23ca68e96d5d04ace36443536cfc05accf87db24c6058c5ab6009c67c8eba8dL'
I-690
I667
tbag7
(g8
g9
NtRp168
(I0
S'9c50c504ad36df58473ff49c18524853d338ae4fba14d0154990f563dbc160a11a889d3eecb8ef2c425096525d49cd98760ca98325b097ee1481a834e28b8a5b71dc35c9c78a02911bbd196eab92f1bff39ac87L'
I-692
I668
tbag7
(g8
g9
NtRp169
(I0
S'2f8770235be4c6030503435c42bc706397e35f3f359284ec806b70a8dfc4e878d12b90ddfaa023fbc8f4a90282707eb6a2411b4921393163fa0bba481ff102c038b46de311fc8fd933acc0bb9d55ec4f96fe2e9L'
I-689
I666
tbag7
(g8
g9
NtRp170
(I1
S'3b6056525db36d2ed513b5d21ff2ea4f3721a36b87b98b1770a0e5719bbf8eedc00495776e869c97c33a6ef0ef78868de5284d7249aa736210e931cb3c4c03490827012c08ee4f551bd10911ac18cc274aca045L'
I-690
I666
tbag7
(g8
g9
NtRp171
(I1
S'686750f96ee5b55199fa271bf3bea10bf9690d91c292d390516a6b321349c53b719cc2c44851465573a6524f7c8229e3819411d3c15fda750fdcd3941e4bc658dead2f1e8c6e4052d51bf17e243cf57c215c7cbL'
I-690
I667
tbag7
(g8
g9
NtRp172
(I1
S'2d4758b59e30f5671210f4853bba99352c92f20dce3f53785981e667c95dbb92dd78e1510a0af0c2cba96247c839094326141e52a6525cad0f22100a3ca867a4ded39d8414bbe255b9ce8317a2fc2a5c655981bL'
I-689
I666
tbag7
(g8
g9
NtRp173
(I0
S'4d1e6cd2f95a3fce702b050c2f8f1af164e2d108383e20c1fb5e93b33bf57583736a6f131cc8e3ff1e8871e9855709f040e1e700b3f4a863d7833bb97060278c8547fbc10d175fda67fa221e83f81204f7ef8d5L'
I-694
I667
tbag7
(g8
g9
NtRp174
(I1
S'a497af1a551012bb888ee5c60e4a8117c9c77b1f8bc27d0977cdfe26fa7e6f359d1330f5c5cb6a336c3e6ec70b69698387f7f19e075abc2ca0c383af4d610da9d724235cd848842f0e44df3ec0386937b2977fL'
I-688
I664
tbag7
(g8
g9
NtRp175
(I1
S'8cb00b71879e71d817a8b1082ccd7ba68249c1b08693c6ad422c9f9ae37b5746a703704e5d3d25e19c9648633422be35f345eddfc1075a05915282f32a4fcf5879ff96a615bf177c7d8d2c052931a9b562735dL'
I-688
I664
tbag7
(g8
g9
NtRp176
(I0
S'7965874aea8e30c14f540467ef7d2464157272d64bb56ada57d26624b122628ae518eff3070b6ea19756b1ae8605c76aa3d1d3ff55163f9fcba6fe31e47e04805479918d0b99d4401d65f3c6eaebe91e4cb6777L'
I-693
I667
tbag7
(g8
g9
NtRp177
(I1
S'86d5d1c28ec4c9dc2510b027c8fabe225ee327689bfd0c731086241d4bdf5546fc3ed6fa831580c9ab389191fd929b59a5d881e86517f9618b15377d2f28d569cefda1074398d3881d62d25e1885a622087a749L'
I-691
I668
tbag7
(g8
g9
NtRp178
(I1
S'86b0f3041d86bf415d22aa964560dc7e65856ad2c10b61e83f444eb7643808e2758193dc43b1690963ebde32961d1fc78a5d47b35e294efade439121c1b23fb33680c9575d84671f6c4ce652fd9082dedab0077L'
I-690
I668
tbag7
(g8
g9
NtRp179
(I1
S'cab5961dfc6c966f55e21358a0c1a5686d815be7f9fa0a86f43b74bda21fae8475064aa39b7d2a0a758dd6e06d40131457468345b4fa82545b6c6a91d53debbb2fe47cb458f43a9d6fff45725dd146ec93f19b1L'
I-691
I668
tbag7
(g8
g9
NtRp180
(I1
S'3110580fb8e214d895a4cf973d95c4880c1463be80229c5fbe89acc72b65d7230e892e1b09d3f733ac74104f1a6396473dd4fbd9160bf9225d97a050a15c0ab2a7d152f31c3579b4b45b7461ea50e1400924af1L'
I-689
I666
tbag7
(g8
g9
NtRp181
(I0
S'd1d2290af46e1d307479d826a9aac8172e299d7f9a2e841f43c3cc86df9b9fafc2d5def534e611fa5a997af6fa3b52c72a3c3acfa1d2cbcfc96df2e4713d58c0ba4faa8dc940e65416945e9e8def4a200632e31L'
I-694
I668
tbag7
(g8
g9
NtRp182
(I1
S'4b14853d23d446325b1dbc000153e0aea8f0f4bf7043d0dfd9c8dc3d834e7eeaa3e16f6a5e0eeebe3706d80425376d05e42d742d48083bd6756b2e3bbc52e968ca1395d50161c75f333199a08abb0d90181d51fL'
I-692
I667
tbag7
(g8
g9
NtRp183
(I1
S'1cf3e8f5eeec5de94491459314c1888b55320caff51106f7a944cc1558b881534328af1b6850cae8cc01dbcb29c198778aa8ef27bb74272583f1a492049a2dcf96ec0674fbda100ca5ea4a46a6192701cfd305fL'
I-688
I665
tbag7
(g8
g9
NtRp184
(I0
S'2aa59c0ebc1488504533adb15ab91235d43ac3b1f25a12b22e4f3064be307faea62f3ccc79c4c1cd23bbf2b6558fa606b89cd7d6432f35c4bb5cc6d3df97525c9aae49ebb55d11667b54ce2b1e38117a611ed5dL'
I-689
I666
tbag7
(g8
g9
NtRp185
(I1
S'8ae1ff0295920d8206dfef9d4830a77306ed2973938d92371a2c1b56da1135ac20235c2f0535b0217ec22c4a7dc5be2c5fb5ded54cfe9f862a24ae06e4e2c3c8987f3c5c03e2f7c02ebc3fbe690f02e6e1e70ffL'
I-691
I668
tbag7
(g8
g9
NtRp186
(I0
S'881cc0b03460f97c3b593d609c4b1050183cd1ca76175d5b4fb924a9677da5396f5af111086910e16655d49543a4314fde6e34831b806dac2b8e3863acf422f00858647d90893a3c6e09ff74fedde9c7870dd35L'
I-692
I668
tbag7
(g8
g9
NtRp187
(I1
S'c61d27c9ef9e67626b9bac878345226905a1be0765f12503a95ea4ad95ffa98772a061efb400951013fb0c3a2a675bf7d91de5619338e9895a9d801aab9a5da4cb4810dd0031b36f7c9a36e676f05a694a3343L'
I-690
I664
tbag7
(g8
g9
NtRp188
(I1
S'fa7ac5cf6ad4dc8fe9deaae3bfc3d3ca6469bd3b6b9cf97c37911416a5f4facd252482db2d0733031701148b85d21b9e7e877817ab48a9cd858c672e2d326f7d6ca253bbb6a3294453b9da337afded6bed608b1L'
I-693
I668
tbag7
(g8
g9
NtRp189
(I0
S'915cdc9f7ddc7e6747b23d6a416fab01340c825c5fef637bb4627cfd75817c284d6c3b10bcbfa2e1665f754455fa5655039d1c31a2f8403dd7b89de407548a9895e93e86de395dd87c4b1d398ba47a53a7e6a63L'
I-691
I668
tbag7
(g8
g9
NtRp190
(I1
S'49c1771ea3cbb7b23d35c848f6e39c54b4f410ce9a70b5236d24b943cf66711a52d59f0e38ea3044a1040426943e74fb5df36a6a93c945cbcdc3d7c7f0212e2fa74e67f89627e1d83387bec9de88e73f738767L'
I-689
I663
tbag7
(g8
g9
NtRp191
(I0
S'50caf10ec8fd7e4015a0efc2e90c5d4878261f6ac1da80a0b31a5f4336b4353d35e53aadd9cae55b894ccd330968a190607dff1a23ca68e96d5d04ace36443536cfc05accf87db24c6058c5ab6009c67c8eba8dL'
I-690
I667
tbag7
(g8
g9
NtRp192
(I0
S'7a39eb71f46424bdf0a73d98a75f39049359444776941627bc32b1c441158726a58a09aab65bedddeffe7520a525cbe0b88d0f8822cff7f1be96dc853d069447d839eb738dd412d2ef6db94f4fb41e764397b57L'
I-689
I667
tbag7
(g8
g9
NtRp193
(I1
S'5b46b0b1239217e95917eb64723469421ab1f440dbaa4b5eaf6965aac7b854371641b204140b939888c386444dbd7251ab7fda15f69c2f55418137de1870129a930f64fe023ba07a8e205944dd9d28cad1adac3L'
I-693
I667
tbag7
(g8
g9
NtRp194
(I0
S'b40b74094af39b7782d015f59c18ec5f219f04fc5e55f4974bb2709e2d32c7b0e4efd820596f6ab497b06b5dcd3a96bf4bfde901606340bd3c2af689d1ac0cb00735fa5d61bd114cbca57fd93fd4bcca4644811L'
I-692
I668
tbag7
(g8
g9
NtRp195
(I0
S'4b9eb5bf53ba43b09c0827c562f3998cb1e260df550c0b4d035d17d7c2214372cd8e62d1c8d1f26dbfa94818f0ac3e6c7fb3e999e3c81d8aad1ec826143fc0bc5bd855491e24117dc5da52da47bdfb0ca89cbd3L'
I-690
I667
tbag7
(g8
g9
NtRp196
(I0
S'8bb6562fbef8478f153a793c67dea9ed3679d76104b9757a8a35a70e786be58e998936885448c73b521671d9adc388b083b7f9a141a706a86394f7b8de21ae3ae58c1f4a8c7c464d69dd9718d18a49505f730a3L'
I-693
I668
tbag7
(g8
g9
NtRp197
(I1
S'41fe28a058909314977a4c3f748e69712a2e72d534b68ba05326f43fb278211d5977940f5256f3f16aa62d1f4ac023ac393586d44cdbe23acd1ce46ccf1bcfaf9ba8241fd1491ffe26bfda92e845631706c8439L'
I-690
I667
tbag7
(g8
g9
NtRp198
(I0
S'30c18c7678bb190da21b2ef1dddd231b63a0962ce5fc4c8bfc7c2dd6fd951418df9c4a02153a0581f036be1012eb22abf5a0467899b1d92bb96be69dc0dc248e34bf416bcbd9a49b7009703fa3f8120810265b7L'
I-692
I666
tbag7
(g8
g9
NtRp199
(I0
S'446d7ae46677497342f039870ba47527094266dc9b04dd9a032f90f42de4c6d120fe4bef2f2aed3f31132036a6780470586933060e3fbe257cda971eef299e79d1c566ab45185c6891f89a7b714d23414a2a70dL'
I-690
I667
tbag7
(g8
g9
NtRp200
(I1
S'4052123b7ca487ef59a54737e854ec6f056bbff7ef464596701ae85e2d4a072ede671fbfdcfc24b7cd88ffa95aee39507e76354ec117e7a9ad7a19a537315f94e0aa245b889a5e67128dbac837f6d11d4606d1fL'
I-691
I667
tbag7
(g8
g9
NtRp201
(I0
S'5e53eb5530bb5265e6f6b1d6ab46cb2c142e699f0a7151d4acd486d68bab16a6150867f7f73b098a37f9d9ae48c0219de878c85e6f73e273f051a8fa9e0705c1c5dfa153c7d3eafcaa82faab561443e5ff9d5fL'
I-690
I663
tbag7
(g8
g9
NtRp202
(I1
S'10baafa1bdcc9265af754e9473017ba2a344e6b187665f11ad7d58d5e9ed73c53a344ad1d2d2923bb747d5506b693ea16ab0a60b876a848030eb8d740ffadab04b50c7599dfc9e1c36fb69f8fa88b6644fb32b7L'
I-688
I665
tbag7
(g8
g9
NtRp203
(I0
S'1d1dedf11400bbca5155de800eb3989e2701b510ad3563ece12e51c5c1aae13d02b3e4f812d16bb523a8907a0ba97f76081f69fe0d019763f0353e6ad41a9c134c5a372a0a795aa05b714efbdbcfc5052ed3c37L'
I-692
I665
tbag7
(g8
g9
NtRp204
(I1
S'ec61582e5801480e6e3bd4975a25215a9969e9942d1ab968275a1d2cf2bbfb25d6e85d1fc0ebf26e87a8356293ef0543129291a70650180e99e42294cccd2e45f91a0f5ffabc54586303912c51ed00ea5a04aedL'
I-693
I668
tbag7
(g8
g9
NtRp205
(I1
S'76fc990a1b962724b9a0d14caf5753868ee193e5c511889db105ad496462fcd7379d64c0b607b0351334583b46b2beaea39e54c5b61b8c1333298906154e829d242faffabd15f89b82cec4127c48ffb79e01947L'
I-691
I667
tbag7
(g8
g9
NtRp206
(I0
S'5eef6820e94945e74595534991843b7c9797bfbe50310612af892baf193d92f3af8f9bf92c72a04e828e9fedc4734d08661bad7963533eadb4df2ed8dfb675e1bd08fb2c4c96b62ecbac5f6ee29ac756f99d6f7L'
I-691
I667
tbag7
(g8
g9
NtRp207
(I1
S'1a2b4b1592f0112f28b79d99b714f78ebf9fc83853beff1d8a032bd87f617fff24b35cfca27e77e9e0cc5ac01b4f3a3aafbabcd1f403fe6b521debe5805b30fb103264cbb126da7c7fd0f346b66a073ab7ddc47L'
I-689
I665
tbag7
(g8
g9
NtRp208
(I1
S'80b40643d37314ad6293615bee4cdbf2b6a846dad1144f5295ee332e60cecfe8f99589f8158636ed2705cd82b5f2064a072dc6cd7ba0d8418b13ea7510eea3588f8dec903d2548b754026a4251475fc62a6b3f7L'
I-692
I668
tbag7
(g8
g9
NtRp209
(I0
S'420fe4222ddde9fe1c989c34ba56ca649c892fe34067cce9490136b72170563a6a0f3231c267ee2d61e9fc3226c2fb2fc97c85bc275437a7664392835cae8af6cfae195ff81d2fdddcb8c7d217e306129a23e2fL'
I-689
I667
tbag7
(g8
g9
NtRp210
(I1
S'48141abf3fa271c7cef7d1afed41d522c74faca69dac62bdac59310e915bb244393734498c71032c22bf2a3d81b42caf6001ae248915c2c1bb239e4ef3a919d90fdf07024337bf1de801bfc6972117cd3022a9bL'
I-692
I667
tbag7
(g8
g9
NtRp211
(I1
S'eeafa304a4a62865186160764ae26c03e7b3755368e866668fb389853138b1b8b26d23453125a6b8a3c2b7c30c937ad31cc715ec5ab19e0da2c55dc0df026c682639bca358fa332eecc500bbee5afbb95ac4c93L'
I-693
I668
tbag7
(g8
g9
NtRp212
(I0
S'd5d98c13fb549810f30ebfd9b2a819bb2caa48a031f249622e62a142fa58a774c8661fa180d3fdfd677d6c0040fb6908c8b32fbfc1cfaff601a36c3c7c1ab8abd1cd83c7ab1afb545e01ea788bb4c5a714485c9L'
I-692
I668
tbag7
(g8
g9
NtRp213
(I0
S'1e3a64f6e2ea87446ba30b86ef1e0d706e922b4efb1584a50155750127997f518b5e66287ba9c3e61c5add769ed1071363e2dc0d9e84e9a3373731a307eacceeaeb4653e037444c2f89092ac5dcb117a4545307L'
I-690
I665
tbag7
(g8
g9
NtRp214
(I0
S'3a889c68e4a2d56defa62d0c871077cc2e1b61ae8b688028b1e7cc302bb6fd6d38ab623ca65b7b05e685afc957e26fdbabb80f0da0fb8eed99c31ef907429d0d036251a2f146c2509d48fadaceab622584f9041L'
I-690
I666
tbag7
(g8
g9
NtRp215
(I0
S'7abcd45a0eee823c59fd2bb17d0c8f447de7d0247439cffb2294b10fd1ce8c2ca1b2a82cb6ab39bc1e4e98867c5b405190249c49ac6c4af5c5a52fa33c75d299c4ec0670df97ff0734373f6e736c7140ca7de91L'
I-691
I667
tbag7
(g8
g9
NtRp216
(I0
S'9c50c504ad36df58473ff49c18524853d338ae4fba14d0154990f563dbc160a11a889d3eecb8ef2c425096525d49cd98760ca98325b097ee1481a834e28b8a5b71dc35c9c78a02911bbd196eab92f1bff39ac87L'
I-692
I668
tbag7
(g8
g9
NtRp217
(I1
S'5b46b0b1239217e95917eb64723469421ab1f440dbaa4b5eaf6965aac7b854371641b204140b939888c386444dbd7251ab7fda15f69c2f55418137de1870129a930f64fe023ba07a8e205944dd9d28cad1adac3L'
I-693
I667
tbag7
(g8
g9
NtRp218
(I0
S'dfae27e15a3f08316914f824adf166ed31e943af4c45008c92ed720d360788eac223d7835d2ccefa9246d2c0a6c0e162577cd8e07032bc65b5714a67d25d126b90fb90e6b661144b157d44430746d58840c69ddL'
I-690
I668
tbag7
(g8
g9
NtRp219
(I1
S'105a6fc4415e950e9d7d77b3c5d8ce3b5be8fd362cb8588335d25bb6c04101d273cbeedcff9ea22b641492fecf8bd66d64572edb3b7f988ecd0b8bfeeaa779b03b8353049e2747bdbced45f7fb3b4308a625b9bL'
I-691
I665
tbag7
(g8
g9
NtRp220
(I0
S'211ea5e68bd51757b01ae9696ce604d12f49a3666b2d95dcf206eb1b4eb41670f7763928dc448e5f186df40f30575119b7f66cf626a040fc6f4b230b821123c115e30afaee5fbf169debfe89a1854486543e8e7L'
I-691
I666
tbag7
(g8
g9
NtRp221
(I1
S'8950c663c3bc4d838078a4fa972ef3389f28adc7dfc0facd5b31ef7522d6a8421e3a3827039eb3837f19633d50295eb654814fe9e58c67319e203e3ded5d2300891b76ce5625ad8c3b7274dad946206344edf79L'
I-692
I668
tbag7
(g8
g9
NtRp222
(I0
S'447c11ba4f78620ffbb7c90a6c44313aec4c7f7a60ccbbfa1fe42829a374548b0625c3537179f594ca28e7acbaf77176623771718b26d670d9f6b3a0006ee6747e1ee5d0b7b3cf000f0d409c9236ae7cd758d39L'
I-690
I667
tbag7
(g8
g9
NtRp223
(I1
S'efbd2df64083c934411772e7b84393901f021f00054bde6c1a5ce854db1630c5b3646a1b8ae76889ad791c5d0a2469bdd96263ad94fbf55b35a97f7fdfc6ab66c30278743e95687861771ead81aa7659d74e81L'
I-691
I664
tbag7
(g8
g9
NtRp224
(I1
S'ac49b1c5e3e67e783b695ece3b3f82c5844b2f87b66794fb305e373e82e1a1d2fb13d8aa07d3772f15c8d8d61fcfa475ead46db9f78586969be6b51d4dff382a120606efbfc70bd202544b8cfbf79536774d09bL'
I-691
I668
tbag7
(g8
g9
NtRp225
(I1
S'2f00696c91f4aa3e79fe5c96b9a95eb2d134fcff2553d16503ac301084bb6680325dc744cb24648bea7fd4549669064b9c62334d7dca450070b730b2a96175799282a0bfa756384b4c2a64931fb90a46eff5175L'
I-691
I666
tbag7
(g8
g9
NtRp226
(I1
S'162d51921d3fa8a83e569fcc43d89dc9e9f247ebcb5fe75c15015b811e5b9c863bc1305cc56cd121fbdd6c49189818047b3256432e3edae8f65cdf31436bb81709c8150f3eb5afd1857c87d13839a3fdd33fc75L'
I-689
I665
tbag7
(g8
g9
NtRp227
(I0
S'2a95a53c1badfae67d4823c08cf9fc46bf7d4ac8974eb833c94fdcca4655a0a6b6746666b214e5ad4b5ec9b31d832febb2e66e0e1239ec4f2b216a10b035c69cbc6f6b72e89dadd03f70d8755da6c4f9598f399L'
I-690
I666
tbag7
(g8
g9
NtRp228
(I0
S'68e7b7f56231d33819fb97d4461e12007981b274b63de0f762f0774f1e8104abbcaf7807db410b7fa9c0cbfd92e0ddf56bebb4abda26e5c12a2329625202be296cd7c82bb47ae410822770d00918e856d940945L'
I-692
I667
tbag7
(g8
g9
NtRp229
(I1
S'383e8e4175544f396eaa1f4d1cbba6205645806a4fa9917992908550d5e10c27a33ebc2f98cd18b79215e8a0b63ea4db8f9bdb1e631c764449967248f49975dc5b6fc1f0d458cd6c23d399a8518a16d4312c5bfL'
I-691
I666
tbag7
(g8
g9
NtRp230
(I1
S'925b83d4fdc053764e147c28c0b5d2362bcb233a4e65d8b0021630220cf4ad68b97f5dcff76df4d8f9107f4a5b47440abafe0f59420014bd320b4a33f1c4031bca2c0584ea6788b0958b5148d19b0b73e997c1bL'
I-693
I668
tbag7
(g8
g9
NtRp231
(I0
S'976aaf8a260b7989e8c8574c85a9387ea4e6099566274b15c62c0499795f364badfdb415c1e686db64c46b89afc3ba555ffac4eb085b04c5a126442180b055e0679d5ac873d9851853324acf3336f603046321dL'
I-691
I668
tbag7
(g8
g9
NtRp232
(I1
S'2fe3f4efbf93b922b69cef6d00f3f5d58f612c7d138a9069e7af80391a94021e798f025ad337d6ed067804f718b6fb70c24dd79f89c8605f933aeaaca43c0888047407c20d15c118ba11cc1f3daec55a614a045L'
I-690
I666
tbag7
(g8
g9
NtRp233
(I0
S'23f50c09969de69fa13563f475604c418118adece45819fb6627817c2166ddd4244eb94e5e31a011de97247ba428c64f0aa0f615537feb5425575a23cc11e5431332f78d5bbfad61b313eecab41efc0c823fc41L'
I-694
I666
tbag7
(g8
g9
NtRp234
(I1
S'259006e41760af7930a3ed92bae2be9674b75cecbd49383aca88440e1262f8e8036a3cfdacd81d216a38f8e6942d164dde219302f2abd2e495a22138b01bb728138491240f9c7b90e264858512e31d2045c189L'
I-689
I662
tbag7
(g8
g9
NtRp235
(I0
S'2bede381f0ac0e493ea6da78f2cc982e650d9fcb4773c3322924a22ef0a3af56d88d23ef666bbfdff78c85f6c13a0706d8e0ddea841d823f76e6ec4d65851e00bdb2b14e701fbe5ce87e671bc64fa27af00587fL'
I-690
I666
tbag7
(g8
g9
NtRp236
(I1
S'bd961747ae903939752c276bfef5c6f9d144efb30c2fcc8c56419a2cca2110d240cdbc44d5d190590c04fb16bc450adb292bdb9e25414211283cb8569defb04469cbb8be54a2dcb532e5c6bd10158b5e4cace51L'
I-692
I668
tbag7
(g8
g9
NtRp237
(I1
S'58862d4598a8f82c048cfbd2f09997239752b0cad3b0c7cfa363fe34b8de8cae06f070bc3d6e5dce959e7404bc7a17a14aeedcab254af29a17ebfd52ca87ea9dceb45b6d56e2dec57c9a7fa3ffe277763c182ffL'
I-690
I667
tbag7
(g8
g9
NtRp238
(I0
S'7ed77503a4d06289b6b2b51cefef035cb9ba5111ef336e4af5bece8efeeebae42d95fb88d2b3d66841c28e5f839dbb6ea41d6cb4691ebd04b26796e76e9e43d738e2488cb1269d24332c3ca11088c1a858a5d8fL'
I-692
I667
tbag7
(g8
g9
NtRp239
(I1
S'64b6111d9b1d0a2e47dbea0919f2fe58d22d45555d96cf4c602eb0f59f17f170814f9254404e40ebc975afae8d038fbdf6eab19592575a1addf0fa5f979e77bab3d33499d51754609f925ac58ae2a983e670db7L'
I-691
I667
tbag7
(g8
g9
NtRp240
(I0
S'a4c1698294039e08221d79afebe2a19d37d06113f92e447c3fd0a07c443a54ad14ff74ea075783e5fdfa22d166c33a3592281e0a3536cc2c5ffe04e897bd941f5f4709fa4f0a0f458b88e4aff1b97005a0d76e3L'
I-691
I668
tbag7
(g8
g9
NtRp241
(I0
S'2f8770235be4c6030503435c42bc706397e35f3f359284ec806b70a8dfc4e878d12b90ddfaa023fbc8f4a90282707eb6a2411b4921393163fa0bba481ff102c038b46de311fc8fd933acc0bb9d55ec4f96fe2e9L'
I-689
I666
tbag7
(g8
g9
NtRp242
(I0
S'b40b74094af39b7782d015f59c18ec5f219f04fc5e55f4974bb2709e2d32c7b0e4efd820596f6ab497b06b5dcd3a96bf4bfde901606340bd3c2af689d1ac0cb00735fa5d61bd114cbca57fd93fd4bcca4644811L'
I-692
I668
tbag7
(g8
g9
NtRp243
(I1
S'105a6fc4415e950e9d7d77b3c5d8ce3b5be8fd362cb8588335d25bb6c04101d273cbeedcff9ea22b641492fecf8bd66d64572edb3b7f988ecd0b8bfeeaa779b03b8353049e2747bdbced45f7fb3b4308a625b9bL'
I-691
I665
tbag7
(g8
g9
NtRp244
(I0
S'1179c6132da85f5a3dd182e9bdc728d26138d0f8aa0d8b58744b39f8d1d5348d2e4bfebaf7d971b4fcf041de9aa4f19a299569f8dfc2a5020dfc8655b4f2caa1df7ffb805678b13c723b5aa5915cf827c1cf78bL'
I-686
I665
tbag7
(g8
g9
NtRp245
(I1
S'bae2241f3dbccd6acf34928e13c0d1222a0190c51c42ec332932524494f56ba67c6c599254cb0069dc84c2059f7e6bf6ee6e7cb0e87a77781f689365e70f96293248861eae0c25e95b5df38f6f8e4e5eeef1a71L'
I-693
I668
tbag7
(g8
g9
NtRp246
(I0
S'94d1459df632856e3794fd153c6c469a486d1122fc0d6b40065b947fb83e765199922fcef344d3b5480ab9b959135ac7748ed7279dad200ad2cee7e8a54855494e0c1ce61f8bafed87fbd8ee749511163345c09L'
I-693
I668
tbag7
(g8
g9
NtRp247
(I1
S'b5c0501d7cb29505e3148bea65e2b6fbcf9dfb1c79b4f7cc8a34a64868005e041d8873b925a8c0224ae8dcf6a8850e36967e0fe7b30b426f38a362ec497aa2e70da0f93377b6330bd313ab50339d6377f780753L'
I-691
I668
tbag7
(g8
g9
NtRp248
(I0
S'7318b46ea11bba88e7f139e917ace3b8f8abb943ab96fd21d8abc48bfe2fce9599f258b75ca6055074658748398d9ab1a4866ddc797810c24d016388bc27c96ce62ca7c0bdafb9761402793288a0f545b0658f7L'
I-692
I667
tbag7
(g8
g9
NtRp249
(I0
S'2954066680e907f7a40ca769291fd9cc88d6468ac15c547637591ba525bcb2fdd92cfde864f27d384a92f7192af0d28a1c4b5c916812dfd70dfab6c1ff2864cfd5d6eda5616c517f5e65bec8af845eb9ed6ebf5L'
I-690
I666
tbag7
(g8
g9
NtRp250
(I0
S'7f6f7b1996636146f0fa5b3b7ad0b79987ba20b2b686aa3afc51bf1b2f098e7d51950e0423045f5c8436ebc31eb8333748ecfbf0dd781555757c78cec05ac8404fea1ee59c1dfc6604954ae73250ad4303ac365L'
I-690
I667
tbag7
(g8
g9
NtRp251
(I0
S'e1871f364a4d3149d41e91b35ba5f417e44587c809dd6df0390dbf984d6937e1a2d112f7f3432435164c9b2fe7cb90ba32cb7392fd196cb560421a69a8f56e310a8b2ecff2ef1b971879fa2ff18d5565bc96193L'
I-694
I668
tbag7
(g8
g9
NtRp252
(I1
S'2a90ffbe450f8307a08816f1478bea7883cd252e2b86f951b3b131c983fbdfdaf8dcb9a7136ec1838ee59bb7db856c6d19263ae4fcddccfe486929a3f14ef529caeef17f2588c2f5d9ae8464b44183125c84543L'
I-690
I666
tbag7
(g8
g9
NtRp253
(I0
S'609123a296a848c6b284b10ceb1e8a2a8c92c1b5647000501108ac4416ac9ce0adf6fbd310bb5dc4ad123486d4a9c40b68a9588ab53f397d9b3334821f9117c2f252402ec9b15f401495745f03c79d75fcbd713L'
I-690
I667
tbag7
(g8
g9
NtRp254
(I1
S'50808134df75e88de8ae6ed906764cbf4d0da62f3b3d058f10937229cb9c91d847b2a60558c04fc48fb4a22b008662fd5075d7a22f1effac165f43ab700fc9e2a3d7a74aceeccb11fc99763a7ebc04361c4ecc5L'
I-690
I667
tbag7
(g8
g9
NtRp255
(I1
S'fc16f3f54b78c07fc17d5cc7cf36aa9129142660cf1af0daac44ce854352ee40f58b428c11f585abeca9ea7536c7eda8a6f7ed7864e01db83ba36527b3f43f5f4e4ae6535c1eb95e9151bb21cab1d5f2462bda9L'
I-692
I668
tbag7
(g8
g9
NtRp256
(I0
S'6c2fcd9fa1ce723efddcb5509aed866aea1649688b85c90476721fa599bf1a61f7fe96f9d592d5f7ff1887936ee19e55b38df90f504f4f7665c1f260da309b2fbefe7020d9571885ee4fce045d9c840ac1c7075L'
I-693
I667
tbag7
(g8
g9
NtRp257
(I0
S'eec747ede19d73cccc7548224270245f4f8a040efeb7c2d4fc42391282d79d56b327031791454a2349022a92bc4b6b7bebf22ca2c7b219dc32c72adaa1d8c5f73eb2be28ef3c48fc500d10eae67565fc4282dd5L'
I-692
I668
tbag7
(g8
g9
NtRp258
(I1
S'4559c41f5efcd0c5aced60f6a0381768839a4605e155e38f73607c4bfc1b43d4d94062c51dc349a99cb4eb86156a7ae4358483b6ea31abde7202b7a12ba06bea7b726e7baddadcbbca4413305ba185ab3d45b4fL'
I-690
I667
tbag7
(g8
g9
NtRp259
(I0
S'9093622390d54d51314b932cb48f867b0f39d7c92ce3d68db7c81604cb6edf9ae652d501e0b125c7342b0ca5752d25891cb50a2c1e329adf3e452169c99bdf4241f211b2a0ed05c87998ca06b984b00f040e46fL'
I-692
I668
tbag7
(g8
g9
NtRp260
(I0
S'6a74d59fe21761d887038699355a273ed8eff5ec2834ea2945b20aee581f916cafee37e70d0cabc2f9eaa670e59d3950e5f10dee88729577cef10b481be1331e35f2f70d45bb9afc4850d3101a5bfe0195b4943L'
I-693
I667
tbag7
(g8
g9
NtRp261
(I1
S'e2ff43cc9fd3d8ddd718616aa48f18d4e3ef07443c69ea89aa396e91f9c3bde571571e542aab6612fdce6b46f2005d069fbe0ebc4f891110115297d56dd5086c95f7a4a95588618f369302f98d4cd247f1d5e0fL'
I-692
I668
tbag7
(g8
g9
NtRp262
(I1
S'84fc12fbb378372a6c22db94993e56e5b5d7d367394d84d33981992d751eb3e326201cfbb56912d59b1d96d3e754d82478bb27f8a65ec30f3c689e49ed2a3484e860fcf889310acde7ab56a0cab1dacd25b7a6dL'
I-694
I668
tbag7
(g8
g9
NtRp263
(I0
S'19e30198e570ed16bcdf2aa973cc319a0c9826cffcb9b7fce30235eb6ab03872cc96cf89d93e269ba1616a3f50748108be95d2f791e7b2e03a015cd1c51c28ea6052466cb9a613d944984964f9cc9a0dddc3adL'
I-688
I661
tbag7
(g8
g9
NtRp264
(I0
S'15644f9eb211b301e2291ab8116bbfb4fc9cf354776599bd6f7f34ccabd55f8300ddae286fb2ff6c7683374e82767f9a10fde49bc7bd402e60739cf50d8e9b637fba35f395675aa9ae140fcba4767cd8d64b58bL'
I-688
I665
tbag7
(g8
g9
NtRp265
(I1
S'e4630c7db0d3a280faa9edbc51b880ecc1a872b81de7b24ac055842be6f611f8ec7b7eccc871bbed87e53ed6ab4a32c53c8f0b19887a65624be74df172cd3bf34525e849e67238af0574733f1bb5c34d37ae767L'
I-691
I668
tbag7
(g8
g9
NtRp266
(I1
S'3b6056525db36d2ed513b5d21ff2ea4f3721a36b87b98b1770a0e5719bbf8eedc00495776e869c97c33a6ef0ef78868de5284d7249aa736210e931cb3c4c03490827012c08ee4f551bd10911ac18cc274aca045L'
I-690
I666
tbag7
(g8
g9
NtRp267
(I0
S'4b9eb5bf53ba43b09c0827c562f3998cb1e260df550c0b4d035d17d7c2214372cd8e62d1c8d1f26dbfa94818f0ac3e6c7fb3e999e3c81d8aad1ec826143fc0bc5bd855491e24117dc5da52da47bdfb0ca89cbd3L'
I-690
I667
tbag7
(g8
g9
NtRp268
(I0
S'211ea5e68bd51757b01ae9696ce604d12f49a3666b2d95dcf206eb1b4eb41670f7763928dc448e5f186df40f30575119b7f66cf626a040fc6f4b230b821123c115e30afaee5fbf169debfe89a1854486543e8e7L'
I-691
I666
tbag7
(g8
g9
NtRp269
(I1
S'bae2241f3dbccd6acf34928e13c0d1222a0190c51c42ec332932524494f56ba67c6c599254cb0069dc84c2059f7e6bf6ee6e7cb0e87a77781f689365e70f96293248861eae0c25e95b5df38f6f8e4e5eeef1a71L'
I-693
I668
tbag7
(g8
g9
NtRp270
(I0
S'2200c2c3325c8ac585dc13e37b166a8886637d8d55a1331a7d19d6c81244d7c7cedac99cf8af2c2c7c53bd7c7cddba6c4c8650b5eec2aa90c048180654373c18d4952cfbf3ea1a9e0b2db7bad90a565e6c15eb1L'
I-687
I666
tbag7
(g8
g9
NtRp271
(I0
S'8739dbf1b6ec25c123ee38fbc6b9efc852a3a07192e27493657d64880c398135e5697f605817af8e3b28a100ded4d5377e2298fcaec008342600536c4e7ec55e99c3c650e8f7d44cde4fb0050258203e7210a75L'
I-692
I668
tbag7
(g8
g9
NtRp272
(I0
S'cbba0cacc955c7788b06aab5b89d16f622a9e50a5fc4c193baa90ca2cf924c85fe4388d3e1c6187657325aff8c2ec4ec1e0c8e709d5462556bd78f91e563d587372b8ab1d3382bc0cab2073f99d62f735488291L'
I-693
I668
tbag7
(g8
g9
NtRp273
(I0
S'50b2f09ada9265ed9537ca2b2d12460ec3e0672fc7334522a190ef95b2345482cfe6581d33c5daf4c06fd18341724c115852f1794aa49ec53b4cf2b85545f2acd3772dd7daf3c4339ba4b93dfb8046d0142ba1dL'
I-694
I667
tbag7
(g8
g9
NtRp274
(I0
S'7ebd139a6fd49a2e8ccaa35fa2ac6e11b65053b2d213d65e059e11d786a36c2d119d278d0826ebf709eec04da2979fa8b48a7104a854b56a3da3ece42f39921a802bcb2cfca418a4f1d0219d9d00ab598a96787L'
I-691
I667
tbag7
(g8
g9
NtRp275
(I1
S'8692ad6c2fd61e9217d642975b1d2eac5d51d7d6eabdbf3b84a65d4496db484b0fcad1bb85898d62f836ce40afdfe685bdcccb420c1683816ae1c4a6aaf827cab20434828585a190fedb62032808354e2e02dbdL'
I-690
I668
tbag7
(g8
g9
NtRp276
(I1
S'b9de79dcc4da0b7470d747a2d4dac36e76b4b77b7233f768e6e3ecf53a624fe45ff26ee18249301ac7eb602d76bcfb3ae476f613d9ed820a36b2b15de8e57b24196601d60444ea596e16c18255d46795f08800dL'
I-693
I668
tbag7
(g8
g9
NtRp277
(I0
S'35005f4840a16c9754cad3e898b9520bc75ca9e5b156f71bcf451df78253b95a380bc6905055c43539bab582adce201b36ef7625015261ad12dd03c033f2ac59eeaa04ee51c16abda3462d09d4ce98b3b565b8bL'
I-692
I666
tbag7
(g8
g9
NtRp278
(I0
S'1f0ae42a5487114d1d2fa32cf9b3337b3d99e5ec5e9ca61acf9c2614a2af22a5f7ea8ef07d47e84a019ff614b952576579183104b1f3895d9df714b4e05ad0cfcb90d5af3e904f8ebc9d88b907ced24eb8cbde7L'
I-689
I665
tbag7
(g8
g9
NtRp279
(I0
S'51415519e3263f559e7d37038d53cf8d3adac7887c55538113a334f8d183bd5019e8505466d0e8574df20481bbf30926759a5c53ed4611e741ce51a85a6392444fc1511bfcba816bfc497e62622c9c824cd92e9L'
I-691
I667
tbag7
(g8
g9
NtRp280
(I0
S'440bbb49c6b492c3c3c989239a2d5d0ee5a9d896fb393f68815dbcddd01a582bd33b72b19b927c863ab7c2f0bb274f78ff2249e45f78d979b6fc03e873775318e0e064b88cbc16a9899b88a190b4896af273653L'
I-690
I667
tbag7
(g8
g9
NtRp281
(I0
S'9d32b0ee084f103399085bfbe96593bb0d51340cc0a057fcee2c8cc0ad2459e2846d91bf123166eedd941078ac4e8eb4633339c7c74409d63fe4d2ea5ef9685146a2d4caabfa0488358a989a972c83b89b09a9L'
I-693
I664
tbag7
(g8
g9
NtRp282
(I1
S'6dd11c517e8ab9ec23e46888a52f27476fab0ae48bff0a0de743b4b99b606d72ecc92ac2eeb5a346c5be0137f9aff3bcfbf9396f23072a33b311e85fadcc6d1bfeed068ed35bb269e11f1f367475117d02840a1L'
I-690
I667
tbag7
(g8
g9
NtRp283
(I0
S'1b6c31ed147680e3b22e665553f41e14ea3e58dcc71dfe58dfa91882b5b8b2c944c55ebb8b047f09046bf1fff15aef1a19bb5be307307b80c7921f7614b17538c562bacee7aa9b2636e3936f941c1d033106f19L'
I-691
I665
tbag7
(g8
g9
NtRp284
(I0
S'10f498cccae509778bae5124424916f05afe8dc6821c03408ad09913a0f75f7e1660a4259796621244e90dcbda79b5511b7e6ea61727c3081820e503a4018b99b73eb267ae2f62905770a7ce92a9793c6789531L'
I-689
I665
tbag7
(g8
g9
NtRp285
(I1
S'fd637b465236aef08a1d272b58a07e7425cd5216e381af37091b0eff19b53d7fa0cb8dbf3e469d3b364b84a686b6326daa8f6e83a2972f8805066aac1c85c83f59c95171938b2bb741b662ca96a81d8a4363e91L'
I-695
I668
tbag7
(g8
g9
NtRp286
(I0
S'57d12973d54931b631c1a47ac37c39428db49f4662688215b818eb2f143b1b485c05fb38aa7de3e7dc302e2a2415abb3e699c33c2d9d6a71c800e9431a292abe6ea17eac325f281b4480b137427536d7d3f1c77L'
I-692
I667
tbag7
(g8
g9
NtRp287
(I0
S'7213152d11e5db4e2162bbdcd3cefa2302e3b9605a815fe8d3061c375cc167072268ca62118e04b30c62a6490113016d501c3d291e73e378f67261f26adccd34886c36597d4d64fc0bc36a84d628abe7e4b3121L'
I-694
I667
tbag7
(g8
g9
NtRp288
(I0
S'c18fd7b8ae38611c2a9c14b1765571897169f1d27e8380c2d78d33b114e159c25a3ec7897191ac5f51616eb9d631fc5336b6d8e32297ad1e6f3a0194d1dcd0ea699573b9518143c4d978a6232a322b2574d62b9L'
I-692
I668
tbag7
(g8
g9
NtRp289
(I0
S'4d345943dad890a1300ff07d09c854e528cd7ef2e2ad384502bcafb3f20e99b42d277158e0ea4d2db2ac8b3ae280a3af2ea69aa5c2a677a4934a603f94268e5bb6bf7ffff808b97e3a7849b1f62c0f1873b55d3L'
I-689
I667
tbag7
(g8
g9
NtRp290
(I0
S'85ea603e96ff109a66740e94c215c0c11ff7239922f823a679e5237b10645981d6de4887bfa241b38f92bbb5c1c241da0193840627740e22a4ff81aaa3900171127d435b1f7ce482023620d8816f811e68e42fL'
I-688
I664
tbag7
(g8
g9
NtRp291
(I1
S'686750f96ee5b55199fa271bf3bea10bf9690d91c292d390516a6b321349c53b719cc2c44851465573a6524f7c8229e3819411d3c15fda750fdcd3941e4bc658dead2f1e8c6e4052d51bf17e243cf57c215c7cbL'
I-690
I667
tbag7
(g8
g9
NtRp292
(I0
S'8bb6562fbef8478f153a793c67dea9ed3679d76104b9757a8a35a70e786be58e998936885448c73b521671d9adc388b083b7f9a141a706a86394f7b8de21ae3ae58c1f4a8c7c464d69dd9718d18a49505f730a3L'
I-693
I668
tbag7
(g8
g9
NtRp293
(I1
S'8950c663c3bc4d838078a4fa972ef3389f28adc7dfc0facd5b31ef7522d6a8421e3a3827039eb3837f19633d50295eb654814fe9e58c67319e203e3ded5d2300891b76ce5625ad8c3b7274dad946206344edf79L'
I-692
I668
tbag7
(g8
g9
NtRp294
(I0
S'94d1459df632856e3794fd153c6c469a486d1122fc0d6b40065b947fb83e765199922fcef344d3b5480ab9b959135ac7748ed7279dad200ad2cee7e8a54855494e0c1ce61f8bafed87fbd8ee749511163345c09L'
I-693
I668
tbag7
(g8
g9
NtRp295
(I0
S'8739dbf1b6ec25c123ee38fbc6b9efc852a3a07192e27493657d64880c398135e5697f605817af8e3b28a100ded4d5377e2298fcaec008342600536c4e7ec55e99c3c650e8f7d44cde4fb0050258203e7210a75L'
I-692
I668
tbag7
(g8
g9
NtRp296
(I0
S'3f517242fc0a58f499c3e621c69f1eb0e3dc9d6330d2eb8838e784a3e42ef7ce04f7fc3f26078a18227a376e75d5141681275ecadafc2d16a7462fa895d2c841b3627c00dffa5a66cf311f6976563b650492403L'
I-688
I666
tbag7
(g8
g9
NtRp297
(I1
S'2e9c5fa9c85b5390c8bb6a35f85b569247b42df1fd46f523073ef436f66180fba79b31eeee44d85fc265b9fed681b0ef9362414cf1d2c7d2f11479b4094858154ac1fa68a11e172db0111f195a056c331391db3L'
I-693
I666
tbag7
(g8
g9
NtRp298
(I1
S'77b78eccb0b29e84517912cbb5bb68e835fc0dc354419fcab8330dd41f2a37068c2f76bb1a70abb6e95e02eea59e6dd9da288e1dbd75cc86f4ccb86ac4b280442ef3a2149f71a5cc96829dc87c7a3e528989993L'
I-692
I667
tbag7
(g8
g9
NtRp299
(I0
S'829b7bc210ecc1c1a9d74e302ce1d8ca62a29d5c3054520c5189cdc260e3cdc3829882088b1dd9933daa00570ba36e999e3185c2e41ed2a971bca9deaceb50be4325c28d7706536fa67765ad3be478e44275845L'
I-690
I668
tbag7
(g8
g9
NtRp300
(I0
S'6455a62bcb2016f92d6a2efa786d6badd79e5ddd9b7b6f97f96f4b98bebee8d49cbcbfe322bc43854c586d5af95195d43fc905ebc947eff8a067cf15f3bf95a7d8ff5543414e8f62fb1ada4d6f94f2e10ae8595L'
I-694
I667
tbag7
(g8
g9
NtRp301
(I1
S'254c7f76a86ec1ee12f1c4ff43e13b79d88f5fd187ca4dd11cb0b09d713650437060fde6b4209bf12f79c83a8812e084ef3fad40c6cf45f1da31b2c8ab1ea89c9c696b30a6b14df77de2907c2d9f554f618ba27L'
I-695
I666
tbag7
(g8
g9
NtRp302
(I0
S'41c933cd9d7576f23df6f8e3224d38982b258ebfcb4ae0716529d40920f12f7e4e7f87d611188327ee3adf29662543c9ced453121a61a4f116f80645dc4ce709e080a5d6f952001cf623efb2e217bca2a4d4d3fL'
I-694
I667
tbag7
(g8
g9
NtRp303
(I0
S'a517a0d72c5926cc790e9b2fa5f430be6c611e54e1514497dbe05a58ebdb68c2ae311d7487371089da15cfc1ef2e77749b4f6c1afe9c31702925592a9f8102dcde02f6bd69dedd50101c874359afa3f50c7cf4dL'
I-691
I668
tbag7
(g8
g9
NtRp304
(I0
S'debc248cbb5d1543a7a730867c15276bb52ebccba540647c634b0535258da7ca0c4b91d5dcaa606d1ad5d55d2b5fa5df0771ef42ee39d568207ff7a4e3d9769a3f9f0abefb1d69a9684b5526038cf2d7bdef9bfL'
I-693
I668
tbag7
(g8
g9
NtRp305
(I0
S'ad03d321a12b34b5a0d2691a12ad621dc61cdd0dd6b31420172b878ac2148f11272a6789c9284100efc8cd1bfe7dc25a5387da8910653b2ce825b598966a285a9de487dbd331b53ed2e269320d384b330ec1653L'
I-691
I668
tbag7
(g8
g9
NtRp306
(I1
S'45d642076d51c9b9b6e7039a62b096dfac70b0a556400ad4f66d24a32e82f636c9c9182eaeec43a48c9acc2d5babaaf45a48bfdbd62bcf12df2605a5a785dd15ef3d4dc9788536ba62421941f90b77164464767L'
I-693
I667
tbag7
(g8
g9
NtRp307
(I0
S'd6105cf4d29f457d1064b2183d3bf9f1842434360df7d41c104ace0aa6a0da4ef64c4a46e2b93a20f360d3870393847146ba12e5acac48a5b73362ac63f6798cc73fd5bce45fdc4fde3b80d07231d8179a7a517L'
I-692
I668
tbag7
(g8
g9
NtRp308
(I0
S'c36bfbb574d3321cad3b0b1b447ca641453cdabad0cd63f6603924d93d932cf6c2b22cff81139ecbdde90127ade0ffc76d2f174e22335e4c619a321003738902dd81e7637c18665a90451c8fc1db24a1563b763L'
I-691
I668
tbag7
(g8
g9
NtRp309
(I1
S'5e37badb8498874ca29dcbac9c83eb7edcbbd8a69c8281c903e3e757be8a425a2fff1731cffe8c11c3fb75de629b8fa1acc7e24f5b55e612c184f114e39aaf355cb971b94ac7b56898b52506b46262eee11529fL'
I-691
I667
tbag7
(g8
g9
NtRp310
(I1
S'2dfeea7d8a58737f67e1b066331b039c2b0bec51ed1872cba8c72da160e8fa445ced5cd52562def85aae8f2b6a920407bf8bf126d4a3d46afa73c192ed87cb7bc81d18636150fa2747815009a6c1e3e56ffd021L'
I-690
I666
tbag7
(g8
g9
NtRp311
(I1
S'84806fcc65b062efea9452c2c6be343036ee9e43adefcf992b61599e5332d2b62d4298af157042dc45f829b9f4703de205e593764d2bdca8de5dbdb8c84fa49b2d7954af630ce8096c75cb92d2221e7e86202efL'
I-692
I668
tbag7
(g8
g9
NtRp312
(I0
S'd7f9ea0a22f8ab5db717f4b261e7713fb78972924b9bc93f264e4badb44dfdfe060d80f63ab198321697a7deff6ae2398474e4182370a831db80c82880342b92e281ac1d85ce4fb3ed4ac6698c1cfb827c4194fL'
I-692
I668
tbag7
(g8
g9
NtRp313
(I0
S'cda50d46621268df6b7266a17c75cb8946bd75ecf1bb41ceea69388ddf541eed055f4bace56f6efe999af7cb8f36ad786fd8c6aa5203174876203e12784b76eb6b86ad2712ad3ec1b03071ad683799558b24737L'
I-693
I668
tbag7
(g8
g9
NtRp314
(I0
S'd82f77b6dcc426ccb53e7067c27391ccf59a842d17e7ddab3180d4a856a6cfe449e237115ebea3e90f27668a41f39300b5c0a0d59787c377ddabeb165d8bd76496bd3344b11ecbd1c1b5dcef1bd4b27516bce51L'
I-692
I668
tbag7
(g8
g9
NtRp315
(I0
S'8d0e3ff7e2348f97a3d19a7d206696ef9e3f856350665039930c8ed6f67803c584fd2b1581dc508c7ff1e7a4009c77097ef9137430d14d58de9f857ea85ab404b26d58dbdaaaf90fc68d7105fb2b5ded4405b03L'
I-693
I668
tbag7
(g8
g9
NtRp316
(I1
S'2d4758b59e30f5671210f4853bba99352c92f20dce3f53785981e667c95dbb92dd78e1510a0af0c2cba96247c839094326141e52a6525cad0f22100a3ca867a4ded39d8414bbe255b9ce8317a2fc2a5c655981bL'
I-689
I666
tbag7
(g8
g9
NtRp317
(I1
S'41fe28a058909314977a4c3f748e69712a2e72d534b68ba05326f43fb278211d5977940f5256f3f16aa62d1f4ac023ac393586d44cdbe23acd1ce46ccf1bcfaf9ba8241fd1491ffe26bfda92e845631706c8439L'
I-690
I667
tbag7
(g8
g9
NtRp318
(I0
S'447c11ba4f78620ffbb7c90a6c44313aec4c7f7a60ccbbfa1fe42829a374548b0625c3537179f594ca28e7acbaf77176623771718b26d670d9f6b3a0006ee6747e1ee5d0b7b3cf000f0d409c9236ae7cd758d39L'
I-690
I667
tbag7
(g8
g9
NtRp319
(I1
S'b5c0501d7cb29505e3148bea65e2b6fbcf9dfb1c79b4f7cc8a34a64868005e041d8873b925a8c0224ae8dcf6a8850e36967e0fe7b30b426f38a362ec497aa2e70da0f93377b6330bd313ab50339d6377f780753L'
I-691
I668
tbag7
(g8
g9
NtRp320
(I0
S'cbba0cacc955c7788b06aab5b89d16f622a9e50a5fc4c193baa90ca2cf924c85fe4388d3e1c6187657325aff8c2ec4ec1e0c8e709d5462556bd78f91e563d587372b8ab1d3382bc0cab2073f99d62f735488291L'
I-693
I668
tbag7
(g8
g9
NtRp321
(I1
S'2e9c5fa9c85b5390c8bb6a35f85b569247b42df1fd46f523073ef436f66180fba79b31eeee44d85fc265b9fed681b0ef9362414cf1d2c7d2f11479b4094858154ac1fa68a11e172db0111f195a056c331391db3L'
I-693
I666
tbag7
(g8
g9
NtRp322
(I0
S'eddf3d258a03ff971b826630f6df76c7a7af44a81e9c73695e4b13c65205ad7696a8bb4f3b2fe9b5531ee5ddcd383fcf2c4e0528471533d437efc03c01b1ef94fae6e4a3e0cba8e326627e048a9657bcee40e31L'
I-691
I668
tbag7
(g8
g9
NtRp323
(I1
S'fa690bcc376e3dc2d9b1ae3b89bf75256818470bafea24ede3111d8b1c41b0f6bc13d19601063fe90759bda982aaa088bc1699efb543c2398ea5d2f621dbbebbfc4f62dd3f38aee17b6f369bd9668e86af0498fL'
I-694
I668
tbag7
(g8
g9
NtRp324
(I1
S'22247871104e7fba5391c2cf2a902141cebb2a41a50edda4ec8a4d30803e837f4504deeced061eb183c477f4e9d6290df71d9684162828f1413df6e6fbe874ad8b1e34745dd3716b9abcfd0bda693248be7e6a5L'
I-690
I666
tbag7
(g8
g9
NtRp325
(I1
S'd61e4b5243b6f3e24a9d514cd57e76db314ac002b7db34e00b79d36f88d17b59414ab41c9ab30f87911f33045e7c189e77caf24dd443e5d14a86c72b8e916ca5507d64ee83354acd27c136087712228390233b7L'
I-693
I668
tbag7
(g8
g9
NtRp326
(I1
S'4348b4c5016964b703ee67b578c522daaa3cb56b8c5ecf7b42946a07f2e5ad6025bccc50eb1ec8dd73bab108bb6a7f88538627bc82004a27e55b46a1e6ccd0e014cdba8a256768d91a06f48f284d9501310903L'
I-689
I663
tbag7
(g8
g9
NtRp327
(I0
S'7fc5d3b601dba434afaa419e75a5319da4b7dc38f3c8d24e1cbd9ed89cc6c11f98c7e88f7b08289ea1b0c3fec7e92fd755fad445d7a5c3fcd09b75dc47cdcf499b5a24574a1be9e4fddc06371463b3e636500cfL'
I-691
I667
tbag7
(g8
g9
NtRp328
(I1
S'6a7f15c0a392d0c13df5511d885d59f5247499fd1b21ce2a5ee14081c2bfaa69e1e49adf139c66d8a7532cbc36b097111a428ecca54d049dc04aa4fd21037a3f9c1e8e9de80338d2db7247bf23234fa92301b1L'
I-688
I663
tbag7
(g8
g9
NtRp329
(I0
S'2dff49840775b5cb42e2fcc6960f6106e8fd17b0b138d9fa98d2c00e7b5c58fbaf2c6a240a67c9dbf0bc5775f6f53cec592f64ddb3e17969006899ff19b2383332eff557a78d4bc67a0ee3c1100639e1813459dL'
I-690
I666
tbag7
(g8
g9
NtRp330
(I0
S'970de6585046a8612fb4422e36574b8b5dfd889eb135fe3f89a39f6bf8adb08f37efdee82767246c66292e570202f187a1e4bf45253ad5ce658dd22334a19c7981103768c2532da0016fd42bf3fb787179ee563L'
I-692
I668
tbag7
(g8
g9
NtRp331
(I0
S'f8da168448a63276890c8e4687ea724261311e457d38b60ee3b2e40e1a1d8a8d1aaacc9de37385366127e39c0e4a68b9de299ba6d21e6003331b26db37707a2895bbcb07306f6c0b380ddf8136fad9ff5924399L'
I-694
I668
tbag7
(g8
g9
NtRp332
(I1
S'cd2ea7ee4f0733ec835e2742e8daad485bd7970b9fee5e5bbde5928da9ea5c2e476ac526bd4e196ea357046b99199cc8f30336220de915d7dfdcb029db73ffb40bb51e460793d1772d5291489a8418ef00ecfbfL'
I-692
I668
tbag7
(g8
g9
NtRp333
(I0
S'75625965f9b0222733b4125afe250138026a4f6249d79f20cffaaa5e426f3a3980e03bd1a7434c9a6596bde4738ee6e6886a24976fb395b1822420f7e21557805b0e65660b6721fe4dc73afbb2a65889601d3ddL'
I-692
I667
tbag7
(g8
g9
NtRp334
(I1
S'f1ebba44063f29a07b2b17a6bd6f99293c60927d7dc176924c1b7902d5f4f37177180375aa372a5934ed533cf55d942f0d1c88e56e84a05352b4648ebd60596f192066588d83f18446a43d7342e1b4aec70226bL'
I-692
I668
tbag7
(g8
g9
NtRp335
(I1
S'5acf6ef52cc53db322674ce131c596a7ece5933de1c31bc24a0729b208c726ef43aa3970adc3d6a7958a88323732d651b6bbff68c1bcb42ded81954bd84d64a150ae8898031db72741b5b838826610cc467ff1bL'
I-692
I667
tbag7
(g8
g9
NtRp336
(I1
S'1a7598f6234fe9de7e39a88f5412a7667db4304f1ce807dcf6543625d861d3f5d0d4df1587bd2fa71ceaa290dc3ac0697f074db67322cf0582373c28743173971cc08bdb816e19cc99a70898c7c09cb3ea7f903L'
I-689
I665
tbag7
(g8
g9
NtRp337
(I1
S'41a72a5a065a4c2bfedbc205d28ea3fad044005668aca16b751ac095e6cb15a71036c344e8d145e78fd468d2332ef8d2daaceed4ccae4154cffddd0225a7eb806c0bab1f94e7558bd413a36bb4d1e48447016b1L'
I-691
I667
tbag7
(g8
g9
NtRp338
(I0
S'175e5b74e7b7876e37f158fb746b59e0d7e8f7e7108d59106600ae6a8aadd6a1d6a8118768e528ed851b2f06b3f0506d1dc83797a756edb01eb89f32ba63dffa5babec474332a3eb60c2eae5f2a5fd3c2d9825bL'
I-689
I665
tbag7
(g8
g9
NtRp339
(I1
S'2a8bede6d9e617cdc1d259f604fbbf1cb112196f688b2dce4e5ff9fba9b916da34191d85222d1604128021f8d6a790da9dd16e22eea8f5f62f050a7e6af3e2e4080c07bb67523bfa9af74030964936df2d4f7d7L'
I-691
I666
tbag7
(g8
g9
NtRp340
(I0
S'2f220ef8d6b4237a429fe1ab17b63ea22cd6bfb41ecae0cc8bbcefed89f2778d913c8119d5b34f97a22fcbec073eb9a6d13d2d09b256c032fb574da4931e9a989b5410a615b62855b0c0e1a0bc86502c8367589L'
I-692
I666
tbag7
(g8
g9
NtRp341
(I0
S'4d1e6cd2f95a3fce702b050c2f8f1af164e2d108383e20c1fb5e93b33bf57583736a6f131cc8e3ff1e8871e9855709f040e1e700b3f4a863d7833bb97060278c8547fbc10d175fda67fa221e83f81204f7ef8d5L'
I-694
I667
tbag7
(g8
g9
NtRp342
(I0
S'30c18c7678bb190da21b2ef1dddd231b63a0962ce5fc4c8bfc7c2dd6fd951418df9c4a02153a0581f036be1012eb22abf5a0467899b1d92bb96be69dc0dc248e34bf416bcbd9a49b7009703fa3f8120810265b7L'
I-692
I666
tbag7
(g8
g9
NtRp343
(I1
S'efbd2df64083c934411772e7b84393901f021f00054bde6c1a5ce854db1630c5b3646a1b8ae76889ad791c5d0a2469bdd96263ad94fbf55b35a97f7fdfc6ab66c30278743e95687861771ead81aa7659d74e81L'
I-691
I664
tbag7
(g8
g9
NtRp344
(I0
S'7318b46ea11bba88e7f139e917ace3b8f8abb943ab96fd21d8abc48bfe2fce9599f258b75ca6055074658748398d9ab1a4866ddc797810c24d016388bc27c96ce62ca7c0bdafb9761402793288a0f545b0658f7L'
I-692
I667
tbag7
(g8
g9
NtRp345
(I0
S'50b2f09ada9265ed9537ca2b2d12460ec3e0672fc7334522a190ef95b2345482cfe6581d33c5daf4c06fd18341724c115852f1794aa49ec53b4cf2b85545f2acd3772dd7daf3c4339ba4b93dfb8046d0142ba1dL'
I-694
I667
tbag7
(g8
g9
NtRp346
(I1
S'77b78eccb0b29e84517912cbb5bb68e835fc0dc354419fcab8330dd41f2a37068c2f76bb1a70abb6e95e02eea59e6dd9da288e1dbd75cc86f4ccb86ac4b280442ef3a2149f71a5cc96829dc87c7a3e528989993L'
I-692
I667
tbag7
(g8
g9
NtRp347
(I1
S'fa690bcc376e3dc2d9b1ae3b89bf75256818470bafea24ede3111d8b1c41b0f6bc13d19601063fe90759bda982aaa088bc1699efb543c2398ea5d2f621dbbebbfc4f62dd3f38aee17b6f369bd9668e86af0498fL'
I-694
I668
tbag7
(g8
g9
NtRp348
(I0
S'235c16820f9944e4971df39d14b21fe4821147c1eb167903a88a4bdbd7b4dd77d255414fd5f5eb75fd419fe59eb4637ba94ffe4ad2218a9c00af30a6a15c5e18e74cdcf3bc4785d73e2c483591c8c45f9b38425L'
I-687
I666
tbag7
(g8
g9
NtRp349
(I0
S'5caba1f34ca3a723024165185b8269e5fab1267c4c32ff69e51f45c482b1988b2ac53f08d38b8a37dd4b953c5cc124e372ec8a51be61c1a799a29c8477f874cac3bbaf06e2c06743a7d70b3b3bc0493735424fL'
I-687
I663
tbag7
(g8
g9
NtRp350
(I0
S'b72044bd6d2880ae4eadf774ab3b3a5df1fb4fbfa6f44225bb0bba844f0e8148d4c6c8081104f0e7c755f8eaf79fb65985b6ec00321deb90235c7270cca8966a41dc7e55c5ab657451f3e5b10277b8a0151aa27L'
I-691
I668
tbag7
(g8
g9
NtRp351
(I1
S'1a9d6ce6125d09c54f9d63f4f96995ee7d8d60d7159442112bca98e695ec3f69bb022138092816ecb2e51927a173f0fd4478aa478b11deb74e408861a1313f9e03ea640ab4972d4b33608c4a52369a03be9c56fL'
I-690
I665
tbag7
(g8
g9
NtRp352
(I1
S'48904c9536d3c69cc503f196fe28a44fed20d5321ab67b8bd28eb24f092c4777dc94c3b3deaf17ef8d5bbafb1fe491bd841e51c8824f75873572f865335c5c0eafc815c8f843564543664a463c3b98f570342f3L'
I-691
I667
tbag7
(g8
g9
NtRp353
(I1
S'b316dc1b01865e6a6f618ea57a28f0db02a1677e46574adaf93d966ba7edaf4c4d31c73ec842654b3cfbfa84227637487c525add4f2022ca950516f5b4d851fb680be22acb5ac7a233b74a7ae3c892cec00ef0bL'
I-692
I668
tbag7
(g8
g9
NtRp354
(I1
S'94c39c17b4b90fe137bb510c1f34c39a6cc202805d58b544ef4d349bc0b676cfe93075d672f7cebf41d5e4072857013b8a9fbec79bb507641808f4a64e22d029012431d7d7a915c9e2fd02757ed6bd38d031ad9L'
I-691
I668
tbag7
(g8
g9
NtRp355
(I1
S'd55f0ec28d965c8c4fc3de79558915074ade44395a3fa42474d68ec5860908508270b63f7de3d1992d40b0e280da63fb6291400a502701d1e2230e364432618efa277e0b5e7d49e1f6fca03bf73aeef30307923L'
I-694
I668
tbag7
(g8
g9
NtRp356
(I0
S'55f6434b6b489801530399d70fbb3da09d3d86977ced0ad500f550a30cdaecb12e58ea139db8c534642fcf56479f1978d7231489b5bd39ac35f4ed78d01633cc29fe4acddc3020a23601a75ceb0382d5924c969L'
I-690
I667
tbag7
(g8
g9
NtRp357
(I1
S'ca8db21a27ec699f04bdc396529f8223bafbe9922008f613932e9988e0794ca8f494937f162878b075228a51634e764346f58f886b1702c84c5449675ccd6cb3c0dda213c6c0d02b1311b7c7f20b15a9094c83L'
I-687
I664
tbag7
(g8
g9
NtRp358
(I1
S'63ce94de83d6865192e136612adfddfead682b35c83a11bb8da9a2540d1b5040ca51501197a86fe265c0fd58787a0836d2e780c07c1b138aaa4aab11bcf51dae7908a90631819e4474315eb63c7ba62577ae92fL'
I-690
I667
tbag7
(g8
g9
NtRp359
(I0
S'4c797cb224d1084dccdfd7c2a90b2d0f52b1166399e0f9248eeef721e7f6c67af5bfef217af4f672a0d4d3b8bdac09089f08b85db5a30496d064c14c40375ebc2fd3ce39d5a505d5bf0d2b25a1229e0e1175ba5L'
I-690
I667
tbag7
(g8
g9
NtRp360
(I1
S'37882a47821370e18bc91dc736435d2038f8740d643b9d9c3171290d0a5e368b22d1438c43a9a6088ea83f38cbd3292154f2bd24b571d39256e306ebc488edc50d932c9d6606d92855d8c880b9be3f85bbe1a3bL'
I-691
I666
tbag7
(g8
g9
NtRp361
(I1
S'b2ff5988f601f14c15b657b3dd49469f2526b4bef06db0fbd3a9be493786b44e8b6759c907a70a3a4e27bbfbe0fa64802bc90feb1dad0996d074436fb10835e661afc135a9f4a60a9639dddbd301de62a9f5177L'
I-693
I668
tbag7
(g8
g9
NtRp362
(I1
S'ab1788d49b8b3bbab691764991d0b300e76f3ba4ac330cc7bf853254758287b75c6295ad32a1c363f7c18b60b47d69b471663320de7485b38d2416e2d8f9a243f353b92df3cf3cad2e6254adba7ea7ccd3a18bL'
I-687
I664
tbag7
(g8
g9
NtRp363
(I0
S'fb641c146a116a50ca0409cb260fa858cc47b463b8136b545555cc9c9a15b6be761c75baf33acbc77b43b826861b69bae55fa01d157cf4117ab54b509708063b8cbf791621af8b5be799163997caf961b90a929L'
I-694
I668
tbag7
(g8
g9
NtRp364
(I0
S'c2690a148cdfe1ab27bfafca8082e1ef5511436e0ccd39f56f630540f14eef6925b0dca93254eee4e29bebcfa6e311167858058a54d13bde86cf91951d629233392fbe4cbdad2438399d15d42cfed4871286b39L'
I-691
I668
tbag7
(g8
g9
NtRp365
(I0
S'39e3421dd71aef37afd58ff541f6bd7d83f0e88c6f07f1b309d2bd744f2eaf479cb9f8d9d7fffb2217672e3e92b44ead5f1aa65ef2ea28642f4dd1bc3db8e32b56f7e5f25174a501e0a59c09630b367d1fada1dL'
I-690
I666
tbag7
(g8
g9
NtRp366
(I1
S'a497af1a551012bb888ee5c60e4a8117c9c77b1f8bc27d0977cdfe26fa7e6f359d1330f5c5cb6a336c3e6ec70b69698387f7f19e075abc2ca0c383af4d610da9d724235cd848842f0e44df3ec0386937b2977fL'
I-688
I664
tbag7
(g8
g9
NtRp367
(I0
S'446d7ae46677497342f039870ba47527094266dc9b04dd9a032f90f42de4c6d120fe4bef2f2aed3f31132036a6780470586933060e3fbe257cda971eef299e79d1c566ab45185c6891f89a7b714d23414a2a70dL'
I-690
I667
tbag7
(g8
g9
NtRp368
(I1
S'ac49b1c5e3e67e783b695ece3b3f82c5844b2f87b66794fb305e373e82e1a1d2fb13d8aa07d3772f15c8d8d61fcfa475ead46db9f78586969be6b51d4dff382a120606efbfc70bd202544b8cfbf79536774d09bL'
I-691
I668
tbag7
(g8
g9
NtRp369
(I0
S'2954066680e907f7a40ca769291fd9cc88d6468ac15c547637591ba525bcb2fdd92cfde864f27d384a92f7192af0d28a1c4b5c916812dfd70dfab6c1ff2864cfd5d6eda5616c517f5e65bec8af845eb9ed6ebf5L'
I-690
I666
tbag7
(g8
g9
NtRp370
(I0
S'7ebd139a6fd49a2e8ccaa35fa2ac6e11b65053b2d213d65e059e11d786a36c2d119d278d0826ebf709eec04da2979fa8b48a7104a854b56a3da3ece42f39921a802bcb2cfca418a4f1d0219d9d00ab598a96787L'
I-691
I667
tbag7
(g8
g9
NtRp371
(I0
S'829b7bc210ecc1c1a9d74e302ce1d8ca62a29d5c3054520c5189cdc260e3cdc3829882088b1dd9933daa00570ba36e999e3185c2e41ed2a971bca9deaceb50be4325c28d7706536fa67765ad3be478e44275845L'
I-690
I668
tbag7
(g8
g9
NtRp372
(I1
S'22247871104e7fba5391c2cf2a902141cebb2a41a50edda4ec8a4d30803e837f4504deeced061eb183c477f4e9d6290df71d9684162828f1413df6e6fbe874ad8b1e34745dd3716b9abcfd0bda693248be7e6a5L'
I-690
I666
tbag7
(g8
g9
NtRp373
(I0
S'5caba1f34ca3a723024165185b8269e5fab1267c4c32ff69e51f45c482b1988b2ac53f08d38b8a37dd4b953c5cc124e372ec8a51be61c1a799a29c8477f874cac3bbaf06e2c06743a7d70b3b3bc0493735424fL'
I-687
I663
tbag7
(g8
g9
NtRp374
(I0
S'51dc4b8c8673856c0884a463485b0fe7d271f23bca1cc91ea9c31f72ac80378b15f446045097d362d2da564ac354d8631aa31067a4669f64f3b09743cc24869fcb5d5cd2627992a8b181d3e096b308d6a71bc07L'
I-688
I667
tbag7
(g8
g9
NtRp375
(I1
S'7caf3c964d91d9fc23b999621a8037c20b9cfb9133404827f3f0c615cec93427a6a691fb3d8f092ae32246f96b6531c8793f886402d55e4d573c660fa9da5b5abe2f45ef70d9341ab553bb6e42d0c26f4533f39L'
I-692
I667
tbag7
(g8
g9
NtRp376
(I0
S'1aafa653b160252290d6c3ecbe7d5ead552d3eefb7ee65ca8e2edd80edd072deaf6c9ed993f33b85bed5ee666d447f4aa53f18c4816e30ff0d64412d3a7f0948d701f4d0f5d668a0f049e1276b743d69e3cc8b7L'
I-691
I665
tbag7
(g8
g9
NtRp377
(I1
S'9e35b603e204b7da051f6b22104a467e1f194c4fa4b8ec4810ccafcf89f63f712ce5081b4caf659ff297249fee0a384c82704a5fd748723eb3cffc21a5d45b7ac1a31fc8c90560cc04d0a113c79d793fd735ec1L'
I-691
I668
tbag7
(g8
g9
NtRp378
(I0
S'849bec165a73fc1ac6d3f0e00c2e13c8eeaabae75c88f6d3d9ef8eca11b4ec48d08ec043cd6b55ca117a24b5d669b4a84ad6cdfb9496eadfd2a843af7c7f9c29a6a48afa40c6e81256a262ddac8a8f70c7b93b5L'
I-692
I668
tbag7
(g8
g9
NtRp379
(I1
S'6a81a0f24b44e4341a29136be47a8d937967712a9c8bacc8c90fd79290a98c4ae4c240a5db977cf0d9fa5b9915e2126f2ad32d655a2e2791c83d6a844f150f8c4eaba0c71ceed4ac2b4df1c426b65e8b73b8adL'
I-687
I663
tbag7
(g8
g9
NtRp380
(I0
S'b8c7b9e10b0add92d5145ec289c4cd9c3c6e10f88bd9b757a4548b6a3cf92700ccf4901dc752674e460f2cfbd447e4f545cffb6cec78b3ba1cb173e5b8de4fa599b79f493af91c03d1fcc6fe1f62d1f793ac327L'
I-691
I668
tbag7
(g8
g9
NtRp381
(I0
S'4da55265df38c07a2d37c9392210b083a89095dbf2d4a2884c8e19ab841d098afa157dc654f35b0a23c38f8ebcf68d5928fc85145b76f8e794bb61f5a9dc72f4005f2b0e23496e4ba4d3e9f7603b98b6aa22f37L'
I-690
I667
tbag7
(g8
g9
NtRp382
(I1
S'c3a4aeb105907c8b04886e0dc4d0ecc8b4fb2f5b0a0c6e239ea335d566173eed40e3c179876c1dee6524a98aeecc9fcc38176317d12b8d32cc4a72b7a085fce3b087ce5c3303df2c9ee52d4ba1fd4868f0c3007L'
I-692
I668
tbag7
(g8
g9
NtRp383
(I0
S'243e6f2fc638b14d70a5e30e66e94de930ed5d4b96f75a95f291dabf9f054892738a336442a60385310ef95c60bb4a865d0f1f37af84d2dc90e9008e6928c53de6c28fb50011464fa417058a77fb0da93bd709bL'
I-692
I666
tbag7
(g8
g9
NtRp384
(I1
S'5c1e70dd51b509fb113cbf5440abe2b405aaa70ca648e247cd644344aeae070659529d96d3cc81966d5526ecfd0a4465d079601b3b8dbdee273fad39518d32f05e804ba5eacff8965e96ecabc0798382f3b9405L'
I-690
I667
tbag7
(g8
g9
NtRp385
(I0
S'caba368fb9720126be6d23eb1381a94f5474fef5f4c7e87ab84f53aa401bdc1d76ab18339020b9ce4606c9a3e4a36cf39fe180dfaec8edd75e3ab6ea1864eefe9bc5300e83e4903d432813feb5a3bc10ac8e07bL'
I-692
I668
tbag7
(g8
g9
NtRp386
(I0
S'b121a41747c349c167f54bd6911361619cabc47d5678bb732bec567b8705c65bf9ce8d0b68c8ef1f0cf97da564ce58bbcc61db1564c63c08e0ec403470566697250f6e94999af02b8d148092777bad95a4a1243L'
I-692
I668
tbag7
(g8
g9
NtRp387
(I1
S'303251dc70696d372f2c4e3157bfd8ae106b386ca6b5b815e844464510a79271d9521a3b3437a48e4dcd2aac787bfcf716457b5a7329a794b2dc1dbdc51f84a9f702c11911da76bba630dc9705be943d21349c9L'
I-690
I666
tbag7
(g8
g9
NtRp388
(I0
S'cadfcd6e5a8eb1a7207a5f1391fa81394017ae38109b2e7abcf6393f5b942b1f0c6c4e74e9ee6f0f08d5463a71553751ed636e07728cdb2865e4396ff004c4eafc1f8c76a228a67a17d91e5f8029858f5eb23c3L'
I-691
I668
tbag7
(g8
g9
NtRp389
(I1
S'352ba0de21023329511d3d5a6a1d5f41dc4ca063b23c240561c70baa9cfed844e51c9c7b7d625f19262cb1f77fd413f2bbf7950505f97cca6cdfbd5d6c46b3a06669978be1c4f49067ba201486e4a4cc14ba0e5L'
I-689
I666
tbag7
(g8
g9
NtRp390
(I0
S'1fb55990a0d8148cb8bb63aba8dc5a93a6fd9967869de36fc19458ca534acdfaa33fea4e4383e0e2f4df270d8e6cbe60072fcb0a82e8ff1f9be9917e77a5dabec921ad8e19db445cf86c176823a9bdc719268bfL'
I-690
I665
tbag7
(g8
g9
NtRp391
(I1
S'8cb00b71879e71d817a8b1082ccd7ba68249c1b08693c6ad422c9f9ae37b5746a703704e5d3d25e19c9648633422be35f345eddfc1075a05915282f32a4fcf5879ff96a615bf177c7d8d2c052931a9b562735dL'
I-688
I664
tbag7
(g8
g9
NtRp392
(I1
S'4052123b7ca487ef59a54737e854ec6f056bbff7ef464596701ae85e2d4a072ede671fbfdcfc24b7cd88ffa95aee39507e76354ec117e7a9ad7a19a537315f94e0aa245b889a5e67128dbac837f6d11d4606d1fL'
I-691
I667
tbag7
(g8
g9
NtRp393
(I1
S'2f00696c91f4aa3e79fe5c96b9a95eb2d134fcff2553d16503ac301084bb6680325dc744cb24648bea7fd4549669064b9c62334d7dca450070b730b2a96175799282a0bfa756384b4c2a64931fb90a46eff5175L'
I-691
I666
tbag7
(g8
g9
NtRp394
(I0
S'7f6f7b1996636146f0fa5b3b7ad0b79987ba20b2b686aa3afc51bf1b2f098e7d51950e0423045f5c8436ebc31eb8333748ecfbf0dd781555757c78cec05ac8404fea1ee59c1dfc6604954ae73250ad4303ac365L'
I-690
I667
tbag7
(g8
g9
NtRp395
(I1
S'8692ad6c2fd61e9217d642975b1d2eac5d51d7d6eabdbf3b84a65d4496db484b0fcad1bb85898d62f836ce40afdfe685bdcccb420c1683816ae1c4a6aaf827cab20434828585a190fedb62032808354e2e02dbdL'
I-690
I668
tbag7
(g8
g9
NtRp396
(I0
S'6455a62bcb2016f92d6a2efa786d6badd79e5ddd9b7b6f97f96f4b98bebee8d49cbcbfe322bc43854c586d5af95195d43fc905ebc947eff8a067cf15f3bf95a7d8ff5543414e8f62fb1ada4d6f94f2e10ae8595L'
I-694
I667
tbag7
(g8
g9
NtRp397
(I1
S'd61e4b5243b6f3e24a9d514cd57e76db314ac002b7db34e00b79d36f88d17b59414ab41c9ab30f87911f33045e7c189e77caf24dd443e5d14a86c72b8e916ca5507d64ee83354acd27c136087712228390233b7L'
I-693
I668
tbag7
(g8
g9
NtRp398
(I0
S'b72044bd6d2880ae4eadf774ab3b3a5df1fb4fbfa6f44225bb0bba844f0e8148d4c6c8081104f0e7c755f8eaf79fb65985b6ec00321deb90235c7270cca8966a41dc7e55c5ab657451f3e5b10277b8a0151aa27L'
I-691
I668
tbag7
(g8
g9
NtRp399
(I1
S'7caf3c964d91d9fc23b999621a8037c20b9cfb9133404827f3f0c615cec93427a6a691fb3d8f092ae32246f96b6531c8793f886402d55e4d573c660fa9da5b5abe2f45ef70d9341ab553bb6e42d0c26f4533f39L'
I-692
I667
tbag7
(g8
g9
NtRp400
(I0
S'2564a884f9034590852ed87aa4e942e50b1ec536f8991f988023e5af5f8e2ecbada05f1296a03dd0abc7a93e871396e8047918abaaf08f4bf6afeb9f830f0284f6887cb18c55a7cef09ff195c8a9729548cd799L'
I-687
I666
tbag7
(g8
g9
NtRp401
(I1
S'3ab5f827eaf723e2b60af59fedbd4daf60fc61f6a548f7e75b5a65db0ac0a866d3453535e00ee22ff1a62d9a7d1c2525ff3208f2eca129d3e8cb70afd97d0e0e07182b3daf9b47668014f20a033698ac2b87621L'
I-691
I666
tbag7
(g8
g9
NtRp402
(I0
S'3d33de6bbdb3022b72f4f3c44968c59efb24edcb124699088acd479123bb4d56e0a349f21f9497c90f0c5e4c0790ea03c64501c6ec6f4b5f1cfa4c279826d4cf457f5cdd3db2f4d5a1f89a9800ea537d0d525c3L'
I-694
I666
tbag7
(g8
g9
NtRp403
(I1
S'd176d377535eb0401be521c662908ebff2b981789664f32ed29eb0184835d7d304ba478d32d98315cb952821bcd3bed72b8a4650cdf1a576c8e8e03732f4970ec3ab97e5f14dba2e1f693bc9a79bfcc23da9f5bL'
I-694
I668
tbag7
(g8
g9
NtRp404
(I1
S'8ad1f38079d9d901a8ff2ca25923dd7a58958906f506b693b3e7644e3da7cda48f3e55f1f4e90f0a7d1214ee8188ef9ffbba34e83f0c175d1fc0da99767ba6c86a1af1bade8189935935ded5b5c30a452469547L'
I-691
I668
tbag7
(g8
g9
NtRp405
(I1
S'38d114cea736f9c794125e7cef58cdbe3bf4ca491ed55ad870e0ca9d9851f699c32a5e5368b83803f0d3ee224a8728653d5f50d9cac52335dff66edbb286689d757ff192d13579ee92aca663a74b31c6c9b55c3L'
I-689
I666
tbag7
(g8
g9
NtRp406
(I0
S'c1f9f4f7a7793050b1660c05704894e7428b08493e652b337ffd39cd1a58ad03121205b9a4e74b0d036b264638e6912cae53ef4d2ff016e36bd612230d272678c4a91ce3298b850440a141cfaf1d0db05633ab7L'
I-693
I668
tbag7
(g8
g9
NtRp407
(I0
S'df1ad3c7c4181e583a71a04d471cb5264266e450311b12b3446356204b8b7f1f94153cb0cae0a755726fb6f2e10a09a5bba97141076f371acaf7326b27959e565e8dd22ce0811f435a823d60d1418897aaa9d31L'
I-692
I668
tbag7
(g8
g9
NtRp408
(I1
S'bfbbc8c26bda6fb6b309e421d95a795973f3725903ea809ad522676d4d91280ac09150d187004f1a0426625fad8606095d07e93abbccccdbcde2cc577e85ffdeb4604e2b6983a231c85d116db65953daf1cb0cbL'
I-691
I668
tbag7
(g8
g9
NtRp409
(I0
S'cfcfaee401d8e7125ac1da3477d59110d5172babc13bc832d1fd1b81ba88c401493b0b2e5a4131b31fb04eafacba6cd2160ca4a3d106880b63b1252de925132f0f21801440d8361cc4707e1fbe862c7c5c95bb3L'
I-691
I668
tbag7
(g8
g9
NtRp410
(I1
S'8c34e04e65536cc1b10836962005c350846387bd0df15ed71287fbd5d6191002313c4d8bd2037bb5cc99db880c7ea11d54ba797577f376a788bcf51df3640072ac58d8c7eacaea2cb8759b092f8ec4eca6a1df1L'
I-691
I668
tbag7
(g8
g9
NtRp411
(I0
S'3db71ed9be4f04ea02ac832d9b0b04bb2ffac25519f5aa0060300cc9131ab82057380f77983768b0d236768cae80619ddb7e24612f5c6c31cbb196e1b892c7ff8c96b37ec204a141517e77d1d023cc340090bf7L'
I-694
I666
tbag7
(g8
g9
NtRp412
(I0
S'f3f650205f2ce64f78eee655d43bef89777826087335e899c65bd18133ac5a123c3c64ac46f1c90dea4b160510eb099653b13257e63f5251e22bb5b2d15b3c0ffac3cf1842aee9e9fb7118fcc64ef076519916fL'
I-695
I668
tbag7
(g8
g9
NtRp413
(I0
S'818b50a9d092fa542ad1027452312774ea21d922632cbf04e0a84e9faa676192212d111a317455b261b5de336fdb251ab56f44b5a308db2db25ed321230d8eea23d5d00f5dba9f0cc783ba77d1f087e25461b6bL'
I-692
I668
tbag7
(g8
g9
NtRp414
(I0
S'784366e9e5a0c9c4bb14b458aae71678b12ad154e314e3fdedc6beeca3250ed05291dea147d53167b5d5404b5ef5df233961c8275efd8029f7f6ee6c074262d2e974675f28c9acd430eb0ecf56d35c1ed31f1e3L'
I-693
I667
tbag7
(g8
g9
NtRp415
(I1
S'd4be163b9039fb0cde1c33987aa0120b6f41ed66798f3d5832241fb2b224db92530ac068ab3f57ffff0049ad0909d7d6eccc67b4eaf80383a385ed83de9ac38e9351b1e58c98f5484e70f5958fbd19ed425849fL'
I-692
I668
tbag7
(g8
g9
NtRp416
(I0
S'7965874aea8e30c14f540467ef7d2464157272d64bb56ada57d26624b122628ae518eff3070b6ea19756b1ae8605c76aa3d1d3ff55163f9fcba6fe31e47e04805479918d0b99d4401d65f3c6eaebe91e4cb6777L'
I-693
I667
tbag7
(g8
g9
NtRp417
(I0
S'5e53eb5530bb5265e6f6b1d6ab46cb2c142e699f0a7151d4acd486d68bab16a6150867f7f73b098a37f9d9ae48c0219de878c85e6f73e273f051a8fa9e0705c1c5dfa153c7d3eafcaa82faab561443e5ff9d5fL'
I-690
I663
tbag7
(g8
g9
NtRp418
(I1
S'162d51921d3fa8a83e569fcc43d89dc9e9f247ebcb5fe75c15015b811e5b9c863bc1305cc56cd121fbdd6c49189818047b3256432e3edae8f65cdf31436bb81709c8150f3eb5afd1857c87d13839a3fdd33fc75L'
I-689
I665
tbag7
(g8
g9
NtRp419
(I0
S'e1871f364a4d3149d41e91b35ba5f417e44587c809dd6df0390dbf984d6937e1a2d112f7f3432435164c9b2fe7cb90ba32cb7392fd196cb560421a69a8f56e310a8b2ecff2ef1b971879fa2ff18d5565bc96193L'
I-694
I668
tbag7
(g8
g9
NtRp420
(I1
S'b9de79dcc4da0b7470d747a2d4dac36e76b4b77b7233f768e6e3ecf53a624fe45ff26ee18249301ac7eb602d76bcfb3ae476f613d9ed820a36b2b15de8e57b24196601d60444ea596e16c18255d46795f08800dL'
I-693
I668
tbag7
(g8
g9
NtRp421
(I1
S'254c7f76a86ec1ee12f1c4ff43e13b79d88f5fd187ca4dd11cb0b09d713650437060fde6b4209bf12f79c83a8812e084ef3fad40c6cf45f1da31b2c8ab1ea89c9c696b30a6b14df77de2907c2d9f554f618ba27L'
I-695
I666
tbag7
(g8
g9
NtRp422
(I1
S'4348b4c5016964b703ee67b578c522daaa3cb56b8c5ecf7b42946a07f2e5ad6025bccc50eb1ec8dd73bab108bb6a7f88538627bc82004a27e55b46a1e6ccd0e014cdba8a256768d91a06f48f284d9501310903L'
I-689
I663
tbag7
(g8
g9
NtRp423
(I1
S'1a9d6ce6125d09c54f9d63f4f96995ee7d8d60d7159442112bca98e695ec3f69bb022138092816ecb2e51927a173f0fd4478aa478b11deb74e408861a1313f9e03ea640ab4972d4b33608c4a52369a03be9c56fL'
I-690
I665
tbag7
(g8
g9
NtRp424
(I0
S'1aafa653b160252290d6c3ecbe7d5ead552d3eefb7ee65ca8e2edd80edd072deaf6c9ed993f33b85bed5ee666d447f4aa53f18c4816e30ff0d64412d3a7f0948d701f4d0f5d668a0f049e1276b743d69e3cc8b7L'
I-691
I665
tbag7
(g8
g9
NtRp425
(I1
S'3ab5f827eaf723e2b60af59fedbd4daf60fc61f6a548f7e75b5a65db0ac0a866d3453535e00ee22ff1a62d9a7d1c2525ff3208f2eca129d3e8cb70afd97d0e0e07182b3daf9b47668014f20a033698ac2b87621L'
I-691
I666
tbag7
(g8
g9
NtRp426
(I0
S'8931e98100046b1e3e6a577166f66049a624e932b8bcbd2601caaa60b0a728e48ed82e8c83537983e06446b47ee5e181a089e88eadde0761fd84837c9e1fb5a9c6b461aa7941096190358d5e2eb0faffaacca01L'
I-689
I668
tbag7
(g8
g9
NtRp427
(I1
S'18796e74f80872788a7002cfd0ee11654ec0f27d17e0359dd9951d0f4591e588be0ecbc119c6400902e45ed2c4862f8b4c42a8d5361864ff99c4c9275adace2518421875373ac692dca92585478b7aff640a01dL'
I-691
I665
tbag7
(g8
g9
NtRp428
(I0
S'6c2ed9d9e22adc952c0e09ee9607e04d87b09e3f6de099870bf12c8caa7ff617dacf7bc835663b78bca05b174ba966743f87cb872dcd054b1bd458e39af5b0fba4966aec00602c51e710e3ac9cce8eb44da4acfL'
I-691
I667
tbag7
(g8
g9
NtRp429
(I0
S'3d07a7d4e6eeefa335574c765ef651ae7afa1b2ee59198c3e3f6b8c62fe0e4a696f19b994bff68235a23d1eaa345610643a467d7d22de2414df03f49bf746d0cbb84a4157e148dd13c469f2c31556c1a35d9523L'
I-689
I666
tbag7
(g8
g9
NtRp430
(I0
S'a2b4db50034ac80fd0309997a566e244b501c54e9b7f2a99e4da41aac97d46f469b9f6630fbae0d496d125abd699780a81f4a377e312706fa0f6c80d8e3d269399bf676ae4ad2bc83bbbccce028b74a48bf10fdL'
I-692
I668
tbag7
(g8
g9
NtRp431
(I1
S'1ea36dd7758ffa23de0c58d19844ad0ac685e92ce014a5f75e01cd3e182ac336d569feeac2c34494c70c5e54d08801c78a541516625f9a81cc347e874c49cdc6a38b356e315f2cdf000a06fb8120085313fb113L'
I-688
I665
tbag7
(g8
g9
NtRp432
(I1
S'8a127603586ec06d09fb0634f244cac58fb6771871312ba8e4621788c292657207bd08853ca54037a34b77694c4d112cf07d6d9a2a16f8434285e314388b9d3da0ecf564500a9ca87d55c4dc2f36efb6889a7c7L'
I-694
I668
tbag7
(g8
g9
NtRp433
(I0
S'35797c3a070d80829d9534ebd69ade28986ca14b7f492d856813bd592774fa68f205dbcad4a3cab4283118ac8925d2bcef9f20b200bcba4dd83e19b4476b72bfd61d58f5df54051a4b18e78cd5ca3a5af7df60dL'
I-691
I666
tbag7
(g8
g9
NtRp434
(I0
S'e0a04b9f640de460a00fe315a0cbb913126e3e37108e3a5f22a824329c8df6b5d5b29f1dcb1c2aa5de8753099fe26f4a77007879ea71176c39eb09a6cc4bf8c222b522cc08663bf65c3fbd38b7a89aac8659ffL'
I-691
I664
tbag7
(g8
g9
NtRp435
(I1
S'14b9ef276bba9af78302778c7b77f1277958363743d73941acc337972c34942141a0375294ad3197fbc071c011d8645a8c29975354c7bb3e30d46070cd46107b2981a4b7fbce7ec1f138ebb67bd915fdf84dc29L'
I-689
I665
tbag7
(g8
g9
NtRp436
(I0
S'36d9bf3f7f9440af13c408843bd4eb648599a88020aa5fe77e65e1f024e2d8a25b7127e1e024544103a2701535422f67969998b3ec0312c2c095c00ba9a0fd330b8255486581576e1b6e06cfe23c171bc49665dL'
I-692
I666
tbag7
(g8
g9
NtRp437
(I0
S'23ecf8d53739af12cb572f929b12115b945d1af7782062a9264011706e02bbe1ae6dd25a41fcc8ea9bc5932d4365b7c76ace2f7d89959b0796df0b3896c475c8574ed5ad5e3bc26bf44328992719adc91fe6da9L'
I-689
I666
tbag7
(g8
g9
NtRp438
(I0
S'1af6bc2a5384e4c5b286779361b1903faa7cb9ff993342b2b873c1f9c5397aca25fee2966feba6f44f9979c5c532148e725c396a412d68b2dabb4610b52131fa560008f1f10ee20dec911ccf7305745f506f1adL'
I-689
I665
tbag7
(g8
g9
NtRp439
(I0
S'f82dd8dd79df26f59e133fe648e63cef5bbfe95c145867dfcc1319d8b100752c9cc4cf4cc43052748b94b32025103c5e4e38f5539b9c2a451b8985043c1a0bbc5a780e75bdf253ab83f575a5ea984069dba68fbL'
I-692
I668
tbag7
(g8
g9
NtRp440
(I0
S'23b95363d686fe8eb0f92db060acde6081599fcfe16c80c249638739ff0319e3edbf88b25a6fa00538b22e7139594d7300e5857c80943025b1765f4c90d106717020f971a7fea9c2ab741f2f251399bea06015bL'
I-690
I666
tbag7
(g8
g9
NtRp441
(I1
S'86d5d1c28ec4c9dc2510b027c8fabe225ee327689bfd0c731086241d4bdf5546fc3ed6fa831580c9ab389191fd929b59a5d881e86517f9618b15377d2f28d569cefda1074398d3881d62d25e1885a622087a749L'
I-691
I668
tbag7
(g8
g9
NtRp442
(I1
S'10baafa1bdcc9265af754e9473017ba2a344e6b187665f11ad7d58d5e9ed73c53a344ad1d2d2923bb747d5506b693ea16ab0a60b876a848030eb8d740ffadab04b50c7599dfc9e1c36fb69f8fa88b6644fb32b7L'
I-688
I665
tbag7
(g8
g9
NtRp443
(I0
S'2a95a53c1badfae67d4823c08cf9fc46bf7d4ac8974eb833c94fdcca4655a0a6b6746666b214e5ad4b5ec9b31d832febb2e66e0e1239ec4f2b216a10b035c69cbc6f6b72e89dadd03f70d8755da6c4f9598f399L'
I-690
I666
tbag7
(g8
g9
NtRp444
(I1
S'2a90ffbe450f8307a08816f1478bea7883cd252e2b86f951b3b131c983fbdfdaf8dcb9a7136ec1838ee59bb7db856c6d19263ae4fcddccfe486929a3f14ef529caeef17f2588c2f5d9ae8464b44183125c84543L'
I-690
I666
tbag7
(g8
g9
NtRp445
(I0
S'35005f4840a16c9754cad3e898b9520bc75ca9e5b156f71bcf451df78253b95a380bc6905055c43539bab582adce201b36ef7625015261ad12dd03c033f2ac59eeaa04ee51c16abda3462d09d4ce98b3b565b8bL'
I-692
I666
tbag7
(g8
g9
NtRp446
(I0
S'41c933cd9d7576f23df6f8e3224d38982b258ebfcb4ae0716529d40920f12f7e4e7f87d611188327ee3adf29662543c9ced453121a61a4f116f80645dc4ce709e080a5d6f952001cf623efb2e217bca2a4d4d3fL'
I-694
I667
tbag7
(g8
g9
NtRp447
(I0
S'7fc5d3b601dba434afaa419e75a5319da4b7dc38f3c8d24e1cbd9ed89cc6c11f98c7e88f7b08289ea1b0c3fec7e92fd755fad445d7a5c3fcd09b75dc47cdcf499b5a24574a1be9e4fddc06371463b3e636500cfL'
I-691
I667
tbag7
(g8
g9
NtRp448
(I1
S'48904c9536d3c69cc503f196fe28a44fed20d5321ab67b8bd28eb24f092c4777dc94c3b3deaf17ef8d5bbafb1fe491bd841e51c8824f75873572f865335c5c0eafc815c8f843564543664a463c3b98f570342f3L'
I-691
I667
tbag7
(g8
g9
NtRp449
(I1
S'9e35b603e204b7da051f6b22104a467e1f194c4fa4b8ec4810ccafcf89f63f712ce5081b4caf659ff297249fee0a384c82704a5fd748723eb3cffc21a5d45b7ac1a31fc8c90560cc04d0a113c79d793fd735ec1L'
I-691
I668
tbag7
(g8
g9
NtRp450
(I0
S'3d33de6bbdb3022b72f4f3c44968c59efb24edcb124699088acd479123bb4d56e0a349f21f9497c90f0c5e4c0790ea03c64501c6ec6f4b5f1cfa4c279826d4cf457f5cdd3db2f4d5a1f89a9800ea537d0d525c3L'
I-694
I666
tbag7
(g8
g9
NtRp451
(I1
S'18796e74f80872788a7002cfd0ee11654ec0f27d17e0359dd9951d0f4591e588be0ecbc119c6400902e45ed2c4862f8b4c42a8d5361864ff99c4c9275adace2518421875373ac692dca92585478b7aff640a01dL'
I-691
I665
tbag7
(g8
g9
NtRp452
(I0
S'3b30c8555ea049f08ab04c586825c2432813de5105e9c40218cc863e0562795b77f550898251a83cd852d34583b3c555f42a0935671889507ec8073ee19f42f7769d5a973977a7f6c07b388edebbc721b0c2799L'
I-688
I666
tbag7
(g8
g9
NtRp453
(I0
S'3c111848959cfba06af6a380c3a3364ba4aa37d98b84b238303bdcc189ec8eb6799c1237b1476ec7168440d9235485da0b7e65b97dd4c0fba14d69e3bacd5b99fc47681623f5d93c1415a4cb5e908451a09563fL'
I-691
I666
tbag7
(g8
g9
NtRp454
(I0
S'20cc28d7b66587f0e61d5156d08af1476213333546f46f5da40efb5e016d0a6bb595fb29f23c914d5c26d4cb61bdbd6d0409854c52779253f0949d641e6255b4509c15c92e4a38b711c75a627e14936bc004fbfL'
I-690
I666
tbag7
(g8
g9
NtRp455
(I0
S'411136f553f8456537d3038ac346d370de7ed662dc8ff8ddce8b427cd2ec1dbdca94f57bd63a883b08c47cf0f9b409806016e587dec179b3d5881c7b6c7b25f42c846687d143c788a790d5f4115b3f46cb0e063L'
I-689
I667
tbag7
(g8
g9
NtRp456
(I1
S'3a208e8574902d82d4ac93f0256b44acab6c21132111de2aafd4d176d971b017cc8599810f5ca0c8a311a284786077f4846d9720ad63b49212ee0e60e5888653fe3d15d32eace25c221fabbfb0652f3740c924bL'
I-691
I666
tbag7
(g8
g9
NtRp457
(I1
S'2477d88b2d5386017365ab116cac5c7b5174743b422d0a2e02c1a1f5ae167fe8d7fe736c08acad4f7c70b8c62432ad6bbd7cb511541f58d0e1995479ae9f8ceb09853dc6731e7d330337bfc47b7e0580eebf4dbL'
I-692
I666
tbag7
(g8
g9
NtRp458
(I0
S'4a43ee54ec35d8f7441376c1ccdf88710a18e2e7cb5d2537f0454296d7a1614a8414fdd53870d15eaebb72adba76de003dd2736734e3ad97d6687e227bd7476dc40078daa2c1810bbf3c5be26177e8d44fd3493L'
I-690
I667
tbag7
(g8
g9
NtRp459
(I1
S'1728885f0fad81cdfb17fc8f1bbc1977cea75f219ee28856b0d6d6045a433aec0c9d6a37d25489b2a52061640db49b6b2f2f31830f5bd4b7c776011ad9e25b81ba47e71060bb64515ab598b2e50b326fe11fcd3L'
I-690
I665
tbag7
(g8
g9
NtRp460
(I1
S'a978101d13634860530f303f9b40eb8540f7b18409e8b8dd229a80319acb0d09e1cee565b973cac7cd359fc3373b893adf8b45e014968d806a0e13ad9aa195e9f302a591b56b901e82ddbe0229273cadc4ff58bL'
I-690
I668
tbag7
(g8
g9
NtRp461
(I1
S'5cfc7b01d44d60cc40f8d3a1df8507f6f764206da0c45d154863c03aaae89c1828f82dd31817b5965b57eb1ae29e36fe7c0df6b8b06c77416e63ba34156b8187b740e2a60562b188363f8d245bcbfab71939b2bL'
I-690
I667
tbag7
(g8
g9
NtRp462
(I0
S'2c632064522b7d6ed94756e0e0e50877e4de6346a0a37b806693cc87dbde4c0b2d235eda9c6e1220536141c825c6ad6f56c661dbe158afe331e8b94479da96f8dcf1bf0de996071da020f5fec3285b9f32b8b1fL'
I-692
I666
tbag7
(g8
g9
NtRp463
(I0
S'7cbf2f1da27c0dfe2a8eeb092bbbddcd8149736c4230c429e879ed4a75b3d5f9176c03ad6c1005d68cadecc27c294a54a09891768c624f8349e587262e926376eab243586d0ea799985ae1cf84adf8dac19b663L'
I-693
I667
tbag7
(g8
g9
NtRp464
(I0
S'5007fc8c0bbc665dfd68f6f29e4f33d45c6e049926c3335975dac2d2a8fc2e657d2ee2b6ac90d8057d076cd0cb272f08f365cc06bcf9e6d89c7527e62d319931f8cf8b28a576b392430c71866fe0f79be272f6bL'
I-691
I667
tbag7
(g8
g9
NtRp465
(I0
S'6aef6b47fee37c93043dfadef480212e41884f6edd506fa102abe4f0488707eac3a9df9f1f7526df36e4095630d7138983820362eac99ddbe3582636164d8ad471eaf8d8009f38d416918864266915c21cfd389L'
I-691
I667
tbag7
(g8
g9
NtRp466
(I1
S'86b0f3041d86bf415d22aa964560dc7e65856ad2c10b61e83f444eb7643808e2758193dc43b1690963ebde32961d1fc78a5d47b35e294efade439121c1b23fb33680c9575d84671f6c4ce652fd9082dedab0077L'
I-690
I668
tbag7
(g8
g9
NtRp467
(I0
S'1d1dedf11400bbca5155de800eb3989e2701b510ad3563ece12e51c5c1aae13d02b3e4f812d16bb523a8907a0ba97f76081f69fe0d019763f0353e6ad41a9c134c5a372a0a795aa05b714efbdbcfc5052ed3c37L'
I-692
I665
tbag7
(g8
g9
NtRp468
(I0
S'68e7b7f56231d33819fb97d4461e12007981b274b63de0f762f0774f1e8104abbcaf7807db410b7fa9c0cbfd92e0ddf56bebb4abda26e5c12a2329625202be296cd7c82bb47ae410822770d00918e856d940945L'
I-692
I667
tbag7
(g8
g9
NtRp469
(I0
S'609123a296a848c6b284b10ceb1e8a2a8c92c1b5647000501108ac4416ac9ce0adf6fbd310bb5dc4ad123486d4a9c40b68a9588ab53f397d9b3334821f9117c2f252402ec9b15f401495745f03c79d75fcbd713L'
I-690
I667
tbag7
(g8
g9
NtRp470
(I0
S'1f0ae42a5487114d1d2fa32cf9b3337b3d99e5ec5e9ca61acf9c2614a2af22a5f7ea8ef07d47e84a019ff614b952576579183104b1f3895d9df714b4e05ad0cfcb90d5af3e904f8ebc9d88b907ced24eb8cbde7L'
I-689
I665
tbag7
(g8
g9
NtRp471
(I0
S'a517a0d72c5926cc790e9b2fa5f430be6c611e54e1514497dbe05a58ebdb68c2ae311d7487371089da15cfc1ef2e77749b4f6c1afe9c31702925592a9f8102dcde02f6bd69dedd50101c874359afa3f50c7cf4dL'
I-691
I668
tbag7
(g8
g9
NtRp472
(I1
S'6a7f15c0a392d0c13df5511d885d59f5247499fd1b21ce2a5ee14081c2bfaa69e1e49adf139c66d8a7532cbc36b097111a428ecca54d049dc04aa4fd21037a3f9c1e8e9de80338d2db7247bf23234fa92301b1L'
I-688
I663
tbag7
(g8
g9
NtRp473
(I1
S'b316dc1b01865e6a6f618ea57a28f0db02a1677e46574adaf93d966ba7edaf4c4d31c73ec842654b3cfbfa84227637487c525add4f2022ca950516f5b4d851fb680be22acb5ac7a233b74a7ae3c892cec00ef0bL'
I-692
I668
tbag7
(g8
g9
NtRp474
(I0
S'849bec165a73fc1ac6d3f0e00c2e13c8eeaabae75c88f6d3d9ef8eca11b4ec48d08ec043cd6b55ca117a24b5d669b4a84ad6cdfb9496eadfd2a843af7c7f9c29a6a48afa40c6e81256a262ddac8a8f70c7b93b5L'
I-692
I668
tbag7
(g8
g9
NtRp475
(I1
S'd176d377535eb0401be521c662908ebff2b981789664f32ed29eb0184835d7d304ba478d32d98315cb952821bcd3bed72b8a4650cdf1a576c8e8e03732f4970ec3ab97e5f14dba2e1f693bc9a79bfcc23da9f5bL'
I-694
I668
tbag7
(g8
g9
NtRp476
(I0
S'6c2ed9d9e22adc952c0e09ee9607e04d87b09e3f6de099870bf12c8caa7ff617dacf7bc835663b78bca05b174ba966743f87cb872dcd054b1bd458e39af5b0fba4966aec00602c51e710e3ac9cce8eb44da4acfL'
I-691
I667
tbag7
(g8
g9
NtRp477
(I0
S'3c111848959cfba06af6a380c3a3364ba4aa37d98b84b238303bdcc189ec8eb6799c1237b1476ec7168440d9235485da0b7e65b97dd4c0fba14d69e3bacd5b99fc47681623f5d93c1415a4cb5e908451a09563fL'
I-691
I666
tbag7
(g8
g9
NtRp478
(I0
S'696f60213f2058f6515fbb13e46c8eb6d3d9ffd8a1bb010b12116087d396a872c745642e6cd88dbfe943dabd0e7782faf27c69fbdeb809c53cbb7d7679cf1ff4e9b4b39f879725a19896b75680c937e0a25bacbL'
I-688
I667
tbag7
(g8
g9
NtRp479
(I0
S'946c61e4555ddd7b817e80a500fd35a20163a0c7bdad664644f3ae9daa7c633db58157ac81f8c6183037dca12745ae4a0eb9cede3b95bfeca8eabf51a3e5ad83b23ff5007bcbf30d9552ceca993ae5188588efbL'
I-691
I668
tbag7
(g8
g9
NtRp480
(I0
S'88df941e446fc48a7124ac93064ec2e049e0ca18d0dec6976f9a47f7acf4c39d06f30e3655d6cf9b55b159a2361b4c13dd8fa8743f037d475b6782fe60e974e6623552123f02a17debfeb0816b55fe71be10949L'
I-690
I668
tbag7
(g8
g9
NtRp481
(I1
S'2b85777582e78851f593ad3985488b881e8b8a6b7783de6354201e02e550f53425ddd1f1245a357dcced67c27348cbd5e13a9b37b80355ae92aa8b6a877342e3c670a1fa363e954ac7abb62944f989900b5f2e3L'
I-690
I666
tbag7
(g8
g9
NtRp482
(I0
S'8ae9dcfd9103a7ae4aa1a3c9217d8a6d67c2849441fe6995395b37be8205a58d4c32faf33de60793883971bbbe7f1e71466a779ebdd10756ebab27de1dbbd167fa3240e136410b4f17e4122fa927a29417bc10bL'
I-690
I668
tbag7
(g8
g9
NtRp483
(I0
S'bdda506b33d6f9688c3cc52873b703bb23ed3d579a0260dc8d26ff4384a50b5e00ecffb5fc07e4a43ecba5cd6794040275a4ac75bd560b4adfa3738cb59ff29a9d5187407a7b781f3fff5eaf98d02de8ccb1799L'
I-692
I668
tbag7
(g8
g9
NtRp484
(I1
S'126d85c473285b41008ad4a458fc0cc02fbada74e7e8ce788877189e3ad8ca994a90fbc4943b4c1479853714ac25d29377edfaeffbea632e8c75f3645eed7b994ce4db3096788f7e027cebdd5317b5a22ca6545L'
I-689
I665
tbag7
(g8
g9
NtRp485
(I1
S'7f806e48f48a9b346c232ee637bd03458795acdaeeaf47080a6841745fd22b32ccc2530a53835aa01b0e00e496f5b8772747d4b81aa1ae85028b13373c21454d41fe1a8792fbddf892104eaec8d404db07e15e5L'
I-691
I667
tbag7
(g8
g9
NtRp486
(I0
S'383c96f231b6c9e0d229917cd0d2786b96f69d2f0ca091258390e5733e71dd660f59b7fc23b479fe0945ed1f729752edbf8d96e371af77901501398ccc001e472d83ab99880907e16e8146e868ee3e66632c37dL'
I-691
I666
tbag7
(g8
g9
NtRp487
(I0
S'e704647d056e5b2c3b332ed1c50898d2fd84a4c531ed4494f494f769eba31cb7b0438c10d1c1e8ed8e94a1bb207f70857f3f6d184d020eec7169e9e489d034ed18531d30b2896c41a1d791ee66158ff0d8303d5L'
I-693
I668
tbag7
(g8
g9
NtRp488
(I0
S'6906395a698604554a73b18becdf2657c1c0213c43d86e90080de9923e48e3724f68e21dd605c48786298ac95d48307db0da042e9b78f6f0f79a30ceae6c9a31fc12816bb076d8de4cf76b250ada5a7ec834de9L'
I-692
I667
tbag7
(g8
g9
NtRp489
(I1
S'518f3ef34d830775412512b31f4cd258c6cb66fac0e230bfc23d84b93f9a1acab20a8ebf23577e30a78850045795a5bf727739da5f573910b39a90e55cbff7a6661f4a96483a3cedccd562b7bbf519d2c5395c7L'
I-691
I667
tbag7
(g8
g9
NtRp490
(I1
S'a4024df94c7c561d0fa31da05b04b88d051b667e82ba400f6498376a85ef8198e9bf39f92fa729b88b6544052bd300910cec86edf33f1c117cfff090b4bae164b14aed656117612f0a8908377dc2bdb1d5a1d7fL'
I-691
I668
tbag7
(g8
g9
NtRp491
(I1
S'cab5961dfc6c966f55e21358a0c1a5686d815be7f9fa0a86f43b74bda21fae8475064aa39b7d2a0a758dd6e06d40131457468345b4fa82545b6c6a91d53debbb2fe47cb458f43a9d6fff45725dd146ec93f19b1L'
I-691
I668
tbag7
(g8
g9
NtRp492
(I1
S'ec61582e5801480e6e3bd4975a25215a9969e9942d1ab968275a1d2cf2bbfb25d6e85d1fc0ebf26e87a8356293ef0543129291a70650180e99e42294cccd2e45f91a0f5ffabc54586303912c51ed00ea5a04aedL'
I-693
I668
tbag7
(g8
g9
NtRp493
(I1
S'383e8e4175544f396eaa1f4d1cbba6205645806a4fa9917992908550d5e10c27a33ebc2f98cd18b79215e8a0b63ea4db8f9bdb1e631c764449967248f49975dc5b6fc1f0d458cd6c23d399a8518a16d4312c5bfL'
I-691
I666
tbag7
(g8
g9
NtRp494
(I1
S'50808134df75e88de8ae6ed906764cbf4d0da62f3b3d058f10937229cb9c91d847b2a60558c04fc48fb4a22b008662fd5075d7a22f1effac165f43ab700fc9e2a3d7a74aceeccb11fc99763a7ebc04361c4ecc5L'
I-690
I667
tbag7
(g8
g9
NtRp495
(I0
S'51415519e3263f559e7d37038d53cf8d3adac7887c55538113a334f8d183bd5019e8505466d0e8574df20481bbf30926759a5c53ed4611e741ce51a85a6392444fc1511bfcba816bfc497e62622c9c824cd92e9L'
I-691
I667
tbag7
(g8
g9
NtRp496
(I0
S'debc248cbb5d1543a7a730867c15276bb52ebccba540647c634b0535258da7ca0c4b91d5dcaa606d1ad5d55d2b5fa5df0771ef42ee39d568207ff7a4e3d9769a3f9f0abefb1d69a9684b5526038cf2d7bdef9bfL'
I-693
I668
tbag7
(g8
g9
NtRp497
(I0
S'2dff49840775b5cb42e2fcc6960f6106e8fd17b0b138d9fa98d2c00e7b5c58fbaf2c6a240a67c9dbf0bc5775f6f53cec592f64ddb3e17969006899ff19b2383332eff557a78d4bc67a0ee3c1100639e1813459dL'
I-690
I666
tbag7
(g8
g9
NtRp498
(I1
S'94c39c17b4b90fe137bb510c1f34c39a6cc202805d58b544ef4d349bc0b676cfe93075d672f7cebf41d5e4072857013b8a9fbec79bb507641808f4a64e22d029012431d7d7a915c9e2fd02757ed6bd38d031ad9L'
I-691
I668
tbag7
(g8
g9
NtRp499
(I1
S'6a81a0f24b44e4341a29136be47a8d937967712a9c8bacc8c90fd79290a98c4ae4c240a5db977cf0d9fa5b9915e2126f2ad32d655a2e2791c83d6a844f150f8c4eaba0c71ceed4ac2b4df1c426b65e8b73b8adL'
I-687
I663
tbag7
(g8
g9
NtRp500
(I1
S'8ad1f38079d9d901a8ff2ca25923dd7a58958906f506b693b3e7644e3da7cda48f3e55f1f4e90f0a7d1214ee8188ef9ffbba34e83f0c175d1fc0da99767ba6c86a1af1bade8189935935ded5b5c30a452469547L'
I-691
I668
tbag7
(g8
g9
NtRp501
(I0
S'3d07a7d4e6eeefa335574c765ef651ae7afa1b2ee59198c3e3f6b8c62fe0e4a696f19b994bff68235a23d1eaa345610643a467d7d22de2414df03f49bf746d0cbb84a4157e148dd13c469f2c31556c1a35d9523L'
I-689
I666
tbag7
(g8
g9
NtRp502
(I0
S'20cc28d7b66587f0e61d5156d08af1476213333546f46f5da40efb5e016d0a6bb595fb29f23c914d5c26d4cb61bdbd6d0409854c52779253f0949d641e6255b4509c15c92e4a38b711c75a627e14936bc004fbfL'
I-690
I666
tbag7
(g8
g9
NtRp503
(I0
S'946c61e4555ddd7b817e80a500fd35a20163a0c7bdad664644f3ae9daa7c633db58157ac81f8c6183037dca12745ae4a0eb9cede3b95bfeca8eabf51a3e5ad83b23ff5007bcbf30d9552ceca993ae5188588efbL'
I-691
I668
tbag7
(g8
g9
NtRp504
(I0
S'4deae93dec0d001a9f276181e012c79d5ae49ed1d1781663fa0be761c6814a41818ba75fde07928baabdfe976e861799e2516219682ad30cd59e05731e590f8e5e1be04e2db44ce3d2cfc58aaf1b198832c88ddL'
I-688
I667
tbag7
(g8
g9
NtRp505
(I0
S'50fde2812031e42b392de2aa0fa6fe39164899852720cf4293fd135bffd944ee8be6e9e78432230664f478ae1fcf65ec6e57d42bbfc35f2c2ba09a471d31141495fec69b78043f32395404b4ee11e87be2e2ffdL'
I-692
I667
tbag7
(g8
g9
NtRp506
(I1
S'dd8a200e42c68315c09c95e418ca6ed4522ade990c9cfb97a4e62dc0d3e12ea1750a4bd8bf92c4929f74b975873947dbd913f3ea39724fe0548b599f67776c77e4ecbe98b0d81597d73e57ddeccc4d0ee0e4385L'
I-692
I668
tbag7
(g8
g9
NtRp507
(I0
S'f4170c9b652dfaca3e114a46c245435c5f3cf1de4157264c2b87cae4b7479d7323798591a1306f0ea5313db112f81c00db38b9f3ad87b837761068652b732982f41a85284844791ce88456ad1584c8c0db7c1b1L'
I-692
I668
tbag7
(g8
g9
NtRp508
(I0
S'21526310e230f8cdf4fc76bbc0abc5749a278603729fdc21ddaa2735d8f2a85018ca04f842eced3ae9de11a1f2eba21886e3caf7a53053b4ec084ca86d0033eb97caceb580fd1eafd3895ca6ae3f3b03b85f281L'
I-689
I666
tbag7
(g8
g9
NtRp509
(I0
S'ffbeac2a844ff64b042a8a3c5cfe101ef076f30a889534e0db2b76a3a26271f3e07bdb575fca73a8116dbe1be40cb933c5984fd3d22f1dc0107418994a919d39d68f10456d3e6d1d519a189f48306a2c659e7f1L'
I-693
I668
tbag7
(g8
g9
NtRp510
(I1
S'a3fbd2fcd2dd860367e6f142d5a397d593d38d40c148d9f689749daf6d35809a1b47a0bd53143a79572d8f17834a3fc93032021abcf323ee77bdda087aeea5e5f7fbb8eeb1c126ce44331bbc68c06e7ea7134ebL'
I-691
I668
tbag7
(g8
g9
NtRp511
(I1
S'cbbb7d2d3761b9f8354ecee9ac71afd09e70e7b923b846f04750dfa76de7077a89be3c2a2e6374356d4790d8d97512c3a935dd20a2750897237b2da76024cd9b507694cdbcc45c98c303b1712d4f469b343ed49L'
I-691
I668
tbag7
(g8
g9
NtRp512
(I0
S'997203dc6af282ed34daac589996136f47665c6e4b45e2421d1a3ac24512029e335815fd65171c3ec5e33e8fbae643ad1d0e419b016061d61be1e6d0e590ce980ec95c93de499870c0ce254fb09a28cfceda875L'
I-691
I668
tbag7
(g8
g9
NtRp513
(I1
S'321ea4853cc710d1180e1b2ae76e111e2864a41419930a517cc50f7e8e076e7047e3a051513dd59ee6144fb9b025bcb95371db7367b6295a4f2a77a77160b98d55db4574ebb7cdf458d3eab162498ef5e84bf31L'
I-691
I666
tbag7
(g8
g9
NtRp514
(I0
S'f29141953b56a142e9ec05a3adb815f2526cfac5c2162806b0b8a99c89eecd045c0190d1bd991238b25e710ea0bafbfc31787aa0e33f1d5c4397d974371f976d18ef6ce49571899d263e8229a616a24ade425a3L'
I-691
I668
tbag7
(g8
g9
NtRp515
(I0
S'a663544759304b0e8dd8a12c886cb7f44467f2ff847c7e16b1c5cd222a18b68875c1c34dd263558b510ae244dda414147dd5dbc85cd2bd12f8358e4dbfba982ee87bfe90f27a4d38ad72a869d75cfe915975bfL'
I-687
I664
tbag7
(g8
g9
NtRp516
(I1
S'3110580fb8e214d895a4cf973d95c4880c1463be80229c5fbe89acc72b65d7230e892e1b09d3f733ac74104f1a6396473dd4fbd9160bf9225d97a050a15c0ab2a7d152f31c3579b4b45b7461ea50e1400924af1L'
I-689
I666
tbag7
(g8
g9
NtRp517
(I1
S'76fc990a1b962724b9a0d14caf5753868ee193e5c511889db105ad496462fcd7379d64c0b607b0351334583b46b2beaea39e54c5b61b8c1333298906154e829d242faffabd15f89b82cec4127c48ffb79e01947L'
I-691
I667
tbag7
(g8
g9
NtRp518
(I1
S'925b83d4fdc053764e147c28c0b5d2362bcb233a4e65d8b0021630220cf4ad68b97f5dcff76df4d8f9107f4a5b47440abafe0f59420014bd320b4a33f1c4031bca2c0584ea6788b0958b5148d19b0b73e997c1bL'
I-693
I668
tbag7
(g8
g9
NtRp519
(I1
S'fc16f3f54b78c07fc17d5cc7cf36aa9129142660cf1af0daac44ce854352ee40f58b428c11f585abeca9ea7536c7eda8a6f7ed7864e01db83ba36527b3f43f5f4e4ae6535c1eb95e9151bb21cab1d5f2462bda9L'
I-692
I668
tbag7
(g8
g9
NtRp520
(I0
S'440bbb49c6b492c3c3c989239a2d5d0ee5a9d896fb393f68815dbcddd01a582bd33b72b19b927c863ab7c2f0bb274f78ff2249e45f78d979b6fc03e873775318e0e064b88cbc16a9899b88a190b4896af273653L'
I-690
I667
tbag7
(g8
g9
NtRp521
(I0
S'ad03d321a12b34b5a0d2691a12ad621dc61cdd0dd6b31420172b878ac2148f11272a6789c9284100efc8cd1bfe7dc25a5387da8910653b2ce825b598966a285a9de487dbd331b53ed2e269320d384b330ec1653L'
I-691
I668
tbag7
(g8
g9
NtRp522
(I0
S'970de6585046a8612fb4422e36574b8b5dfd889eb135fe3f89a39f6bf8adb08f37efdee82767246c66292e570202f187a1e4bf45253ad5ce658dd22334a19c7981103768c2532da0016fd42bf3fb787179ee563L'
I-692
I668
tbag7
(g8
g9
NtRp523
(I1
S'd55f0ec28d965c8c4fc3de79558915074ade44395a3fa42474d68ec5860908508270b63f7de3d1992d40b0e280da63fb6291400a502701d1e2230e364432618efa277e0b5e7d49e1f6fca03bf73aeef30307923L'
I-694
I668
tbag7
(g8
g9
NtRp524
(I0
S'b8c7b9e10b0add92d5145ec289c4cd9c3c6e10f88bd9b757a4548b6a3cf92700ccf4901dc752674e460f2cfbd447e4f545cffb6cec78b3ba1cb173e5b8de4fa599b79f493af91c03d1fcc6fe1f62d1f793ac327L'
I-691
I668
tbag7
(g8
g9
NtRp525
(I1
S'38d114cea736f9c794125e7cef58cdbe3bf4ca491ed55ad870e0ca9d9851f699c32a5e5368b83803f0d3ee224a8728653d5f50d9cac52335dff66edbb286689d757ff192d13579ee92aca663a74b31c6c9b55c3L'
I-689
I666
tbag7
(g8
g9
NtRp526
(I0
S'a2b4db50034ac80fd0309997a566e244b501c54e9b7f2a99e4da41aac97d46f469b9f6630fbae0d496d125abd699780a81f4a377e312706fa0f6c80d8e3d269399bf676ae4ad2bc83bbbccce028b74a48bf10fdL'
I-692
I668
tbag7
(g8
g9
NtRp527
(I0
S'411136f553f8456537d3038ac346d370de7ed662dc8ff8ddce8b427cd2ec1dbdca94f57bd63a883b08c47cf0f9b409806016e587dec179b3d5881c7b6c7b25f42c846687d143c788a790d5f4115b3f46cb0e063L'
I-689
I667
tbag7
(g8
g9
NtRp528
(I0
S'88df941e446fc48a7124ac93064ec2e049e0ca18d0dec6976f9a47f7acf4c39d06f30e3655d6cf9b55b159a2361b4c13dd8fa8743f037d475b6782fe60e974e6623552123f02a17debfeb0816b55fe71be10949L'
I-690
I668
tbag7
(g8
g9
NtRp529
(I0
S'50fde2812031e42b392de2aa0fa6fe39164899852720cf4293fd135bffd944ee8be6e9e78432230664f478ae1fcf65ec6e57d42bbfc35f2c2ba09a471d31141495fec69b78043f32395404b4ee11e87be2e2ffdL'
I-692
I667
tbag7
(g8
g9
NtRp530
(I0
S'bd1b766c89e55a435f1968cc293f0ffe938c940bbf2ee12bad668938ccc93eca0f3b659aa84bbc047b19ed82fa62a554702c8da68cf064497a26c84dd2dfcd976d667efb1c8592c5bb3d11aab9617345b30941L'
I-685
I664
tbag7
(g8
g9
NtRp531
(I1
S'ebaba07e5065fe764bfc2b40f39b91dd83fe21b98d9e690668b69bd784679a34a7bb984c885e61aadb6aa595aa7c6c4c9ef1bcf403c035c1e52b26e153e7ec974927be8faa8243ef904dcc5a728d3cf9718a4ffL'
I-692
I668
tbag7
(g8
g9
NtRp532
(I0
S'7f3502a9a8d0b5a275482f163c4dfa9114e944012cd21107a8d602092ac914213bede0466d5f9c6a0752c7aeef5aab5d1b4baec5b4f6df7906d125c4e1a9943f803a7abf25922d032416c5f5037a4e7ffe82435L'
I-691
I667
tbag7
(g8
g9
NtRp533
(I0
S'a83c2dd5fdb850e4ff585a61ab876ec39cce6167e9c954f9161996eb863adcd1cef552e4ba3fe3ed3f60a915ff8e4e68914c98d2d9a805f37b2ffad720e23258d30c8be27de5efcab4dcd085cf94c01e94b820bL'
I-690
I668
tbag7
(g8
g9
NtRp534
(I1
S'6eb9f8bd723a6ce3155a52aa57cd14b84708d7633a8986195a920d42b871a13763765234a1072a30a731529552301c955b0f0536685bf58b86efa791c8a620a019b24d97d40c8290db717a4b263543611930e87L'
I-690
I667
tbag7
(g8
g9
NtRp535
(I1
S'47af1ace88d11dae16bed1cd36ba389ecb1fdc3ac8c2c0f2750e1dff7b45095b50e87762d7f198e2aceeb8c10cce21eb0ac6c5e9306c8a9decc0887909170a6f37f1624c072ebca1b495564db36ffdca2bf3e13L'
I-692
I667
tbag7
(g8
g9
NtRp536
(I1
S'76406d38cc102f2478c1c9b89af2ff488738b070ccf9c49dc23df9bfe1ec1635b949222cc17b431ab67f825a51db3e13c80d3aabd7db8891167281f953a646bfbc79d8b0b380df2cf82f9c004d390bee74aeeafL'
I-695
I667
tbag7
(g8
g9
NtRp537
(I1
S'67cfe50597e3ba11d67b5d8fe009b0898a83095ded635cbff9cf09e39dfb73e10a6b0e462dae4a769a474b3c2be306a73333e0d508a096d69b11706aeb5ec01ee38855d3dcd085dd870bd0b206ffe0a815b1c61L'
I-692
I667
tbag7
(g8
g9
NtRp538
(I0
S'9d1b222b0c6c735ed173dcfb18f8173442978bf8f855a275d19b8e2705fdd97cec4e17fbd74691461b643c8526118c271ec9141b9d37bc7b055807dee36b8366159d748f349ee7aae1f9a2d7ad4cc7c3e1638d7L'
I-693
I668
tbag7
(g8
g9
NtRp539
(I0
S'bec068e82cd85059da6a43c750393218df8708c5514c5a21025096515c20f09a2d1c6e7b8befa1e0380d07d1f160623e67a5d7f2905f9c1b00d167b9275224ff820662c29471dd5b4729c4d0ab95108885d67ddL'
I-694
I668
tbag7
(g8
g9
NtRp540
(I0
S'3a70d0505b07bcce083dff26889868e34619384a12961f233de668e65d87809ded62fa56e3191cc2424e037b49f3f4ad8712a7a3128f3bb200d0f1eb41b0efd81c542321d82cbc7d2bb2cca0d744429691349e7L'
I-690
I666
tbag7
(g8
g9
NtRp541
(I0
S'd1d2290af46e1d307479d826a9aac8172e299d7f9a2e841f43c3cc86df9b9fafc2d5def534e611fa5a997af6fa3b52c72a3c3acfa1d2cbcfc96df2e4713d58c0ba4faa8dc940e65416945e9e8def4a200632e31L'
I-694
I668
tbag7
(g8
g9
NtRp542
(I0
S'5eef6820e94945e74595534991843b7c9797bfbe50310612af892baf193d92f3af8f9bf92c72a04e828e9fedc4734d08661bad7963533eadb4df2ed8dfb675e1bd08fb2c4c96b62ecbac5f6ee29ac756f99d6f7L'
I-691
I667
tbag7
(g8
g9
NtRp543
(I0
S'976aaf8a260b7989e8c8574c85a9387ea4e6099566274b15c62c0499795f364badfdb415c1e686db64c46b89afc3ba555ffac4eb085b04c5a126442180b055e0679d5ac873d9851853324acf3336f603046321dL'
I-691
I668
tbag7
(g8
g9
NtRp544
(I0
S'6c2fcd9fa1ce723efddcb5509aed866aea1649688b85c90476721fa599bf1a61f7fe96f9d592d5f7ff1887936ee19e55b38df90f504f4f7665c1f260da309b2fbefe7020d9571885ee4fce045d9c840ac1c7075L'
I-693
I667
tbag7
(g8
g9
NtRp545
(I0
S'9d32b0ee084f103399085bfbe96593bb0d51340cc0a057fcee2c8cc0ad2459e2846d91bf123166eedd941078ac4e8eb4633339c7c74409d63fe4d2ea5ef9685146a2d4caabfa0488358a989a972c83b89b09a9L'
I-693
I664
tbag7
(g8
g9
NtRp546
(I1
S'45d642076d51c9b9b6e7039a62b096dfac70b0a556400ad4f66d24a32e82f636c9c9182eaeec43a48c9acc2d5babaaf45a48bfdbd62bcf12df2605a5a785dd15ef3d4dc9788536ba62421941f90b77164464767L'
I-693
I667
tbag7
(g8
g9
NtRp547
(I0
S'f8da168448a63276890c8e4687ea724261311e457d38b60ee3b2e40e1a1d8a8d1aaacc9de37385366127e39c0e4a68b9de299ba6d21e6003331b26db37707a2895bbcb07306f6c0b380ddf8136fad9ff5924399L'
I-694
I668
tbag7
(g8
g9
NtRp548
(I0
S'55f6434b6b489801530399d70fbb3da09d3d86977ced0ad500f550a30cdaecb12e58ea139db8c534642fcf56479f1978d7231489b5bd39ac35f4ed78d01633cc29fe4acddc3020a23601a75ceb0382d5924c969L'
I-690
I667
tbag7
(g8
g9
NtRp549
(I0
S'4da55265df38c07a2d37c9392210b083a89095dbf2d4a2884c8e19ab841d098afa157dc654f35b0a23c38f8ebcf68d5928fc85145b76f8e794bb61f5a9dc72f4005f2b0e23496e4ba4d3e9f7603b98b6aa22f37L'
I-690
I667
tbag7
(g8
g9
NtRp550
(I0
S'c1f9f4f7a7793050b1660c05704894e7428b08493e652b337ffd39cd1a58ad03121205b9a4e74b0d036b264638e6912cae53ef4d2ff016e36bd612230d272678c4a91ce3298b850440a141cfaf1d0db05633ab7L'
I-693
I668
tbag7
(g8
g9
NtRp551
(I1
S'1ea36dd7758ffa23de0c58d19844ad0ac685e92ce014a5f75e01cd3e182ac336d569feeac2c34494c70c5e54d08801c78a541516625f9a81cc347e874c49cdc6a38b356e315f2cdf000a06fb8120085313fb113L'
I-688
I665
tbag7
(g8
g9
NtRp552
(I1
S'3a208e8574902d82d4ac93f0256b44acab6c21132111de2aafd4d176d971b017cc8599810f5ca0c8a311a284786077f4846d9720ad63b49212ee0e60e5888653fe3d15d32eace25c221fabbfb0652f3740c924bL'
I-691
I666
tbag7
(g8
g9
NtRp553
(I1
S'2b85777582e78851f593ad3985488b881e8b8a6b7783de6354201e02e550f53425ddd1f1245a357dcced67c27348cbd5e13a9b37b80355ae92aa8b6a877342e3c670a1fa363e954ac7abb62944f989900b5f2e3L'
I-690
I666
tbag7
(g8
g9
NtRp554
(I1
S'dd8a200e42c68315c09c95e418ca6ed4522ade990c9cfb97a4e62dc0d3e12ea1750a4bd8bf92c4929f74b975873947dbd913f3ea39724fe0548b599f67776c77e4ecbe98b0d81597d73e57ddeccc4d0ee0e4385L'
I-692
I668
tbag7
(g8
g9
NtRp555
(I1
S'ebaba07e5065fe764bfc2b40f39b91dd83fe21b98d9e690668b69bd784679a34a7bb984c885e61aadb6aa595aa7c6c4c9ef1bcf403c035c1e52b26e153e7ec974927be8faa8243ef904dcc5a728d3cf9718a4ffL'
I-692
I668
tbag7
(g8
g9
NtRp556
(I0
S'69c559b33f7cddbf7fddd4d27697a084a4a78131bc349181624a4843bf5528669f4f2133e615af58b58a1c31be31ba11d8b708e9183d537af37f013613c825902230af9b281f49758a6f6e7293dcc3042c7670dL'
I-689
I667
tbag7
(g8
g9
NtRp557
(I1
S'45a4120f0357e3afe87f409547428932b4ab38e1de74e0e6268f50014e3a9778d8c67a499d44e1014e6978583f27f1589bdb15f488c489b5642251a6a417346e2cc599fcbaf906ff0f2f5b8e85d2f1eae7d6d8bL'
I-690
I667
tbag7
(g8
g9
NtRp558
(I1
S'2ca3d05398fed7bddef687e260a29f522fe7cff70918627df7c02cda5fc90da0a43cc3618eaae8e0e55569d0f2c553a0701c2eeb122fae8a387aa3ab1c92db5dc17ac35fb2f5873a8a2524769f751383e69417dL'
I-689
I666
tbag7
(g8
g9
NtRp559
(I0
S'197511cd80566778e1e0abc3518268beef47f7d46510e0f4f66899661e00b2be15e06de0c8388bf287c984d245f68c519e1e88a5abb9e194a7997e778ba61f1a7226638a90878c8bfc930b444c630888a6e4d1L'
I-690
I661
tbag7
(g8
g9
NtRp560
(I1
S'fde2069b912aa90319adfd30c9d89abf149821a6e2f9970e7191048872f66e7403597168813d1c5dceb8fc924381c4cd6d465380ebab3633ce3bcc4f64f17ec45d9f013b82d0b1246ab2d42bac77b2715374a4bL'
I-694
I668
tbag7
(g8
g9
NtRp561
(I0
S'1e6e4d5fbf2c597ff63b07732a1284373ad7501904b2455f9f028456bd8ff88bd2e537007e3c9550260043da9713cc679c60e7a4b82c621c8e6530931e97a14e5f4b3a75a5faab01136d7a915fcd9cbcf161961L'
I-695
I665
tbag7
(g8
g9
NtRp562
(I1
S'eea41fc38f33bf9316b38591b8f0c390a5cce9b2981f5bf4390c3bb3a671d9a0fa27be7faa60396c599daec00bf127a9425cb35e67e3f59c60070a034535892131711b74bf47ecef34bbe144b082232bc5926bbL'
I-693
I668
tbag7
(g8
g9
NtRp563
(I1
S'4a35e16d0e7956e4573576fbec2aa32fde9f245c72f1bbbf70a78793effc30e7acbf4421ceb05940dd209abc24ffbc216d1f6a776d269c128358faa124623bff14ee39578075811d46aaac7855cac20065e5693L'
I-690
I667
tbag7
(g8
g9
NtRp564
(I1
S'a606cd27d6e3e91c308df09bbb2fafaff70645a68ca49b4e57398b0807d81b5947654df246a3178fdd9f115f209188683867b6c78e9bfd7c396d15148ea935b48beb122558cf9e26bede84bf8df796480e34bbbL'
I-691
I668
tbag7
(g8
g9
NtRp565
(I0
S'4eba549447cb6a4e2074d43285fad41676cefe41095ff4bd5d93a9c06249c5e2932cc90dab8458147d71af7ea09d2d9d04620754e2823c2f341ed10da0f509f4aefaeb7e9adda18e9ee5404d320689c0d615b57L'
I-690
I667
tbag7
(g8
g9
NtRp566
(I1
S'4b14853d23d446325b1dbc000153e0aea8f0f4bf7043d0dfd9c8dc3d834e7eeaa3e16f6a5e0eeebe3706d80425376d05e42d742d48083bd6756b2e3bbc52e968ca1395d50161c75f333199a08abb0d90181d51fL'
I-692
I667
tbag7
(g8
g9
NtRp567
(I1
S'1a2b4b1592f0112f28b79d99b714f78ebf9fc83853beff1d8a032bd87f617fff24b35cfca27e77e9e0cc5ac01b4f3a3aafbabcd1f403fe6b521debe5805b30fb103264cbb126da7c7fd0f346b66a073ab7ddc47L'
I-689
I665
tbag7
(g8
g9
NtRp568
(I1
S'2fe3f4efbf93b922b69cef6d00f3f5d58f612c7d138a9069e7af80391a94021e798f025ad337d6ed067804f718b6fb70c24dd79f89c8605f933aeaaca43c0888047407c20d15c118ba11cc1f3daec55a614a045L'
I-690
I666
tbag7
(g8
g9
NtRp569
(I0
S'eec747ede19d73cccc7548224270245f4f8a040efeb7c2d4fc42391282d79d56b327031791454a2349022a92bc4b6b7bebf22ca2c7b219dc32c72adaa1d8c5f73eb2be28ef3c48fc500d10eae67565fc4282dd5L'
I-692
I668
tbag7
(g8
g9
NtRp570
(I1
S'6dd11c517e8ab9ec23e46888a52f27476fab0ae48bff0a0de743b4b99b606d72ecc92ac2eeb5a346c5be0137f9aff3bcfbf9396f23072a33b311e85fadcc6d1bfeed068ed35bb269e11f1f367475117d02840a1L'
I-690
I667
tbag7
(g8
g9
NtRp571
(I0
S'd6105cf4d29f457d1064b2183d3bf9f1842434360df7d41c104ace0aa6a0da4ef64c4a46e2b93a20f360d3870393847146ba12e5acac48a5b73362ac63f6798cc73fd5bce45fdc4fde3b80d07231d8179a7a517L'
I-692
I668
tbag7
(g8
g9
NtRp572
(I1
S'cd2ea7ee4f0733ec835e2742e8daad485bd7970b9fee5e5bbde5928da9ea5c2e476ac526bd4e196ea357046b99199cc8f30336220de915d7dfdcb029db73ffb40bb51e460793d1772d5291489a8418ef00ecfbfL'
I-692
I668
tbag7
(g8
g9
NtRp573
(I1
S'ca8db21a27ec699f04bdc396529f8223bafbe9922008f613932e9988e0794ca8f494937f162878b075228a51634e764346f58f886b1702c84c5449675ccd6cb3c0dda213c6c0d02b1311b7c7f20b15a9094c83L'
I-687
I664
tbag7
(g8
g9
NtRp574
(I1
S'c3a4aeb105907c8b04886e0dc4d0ecc8b4fb2f5b0a0c6e239ea335d566173eed40e3c179876c1dee6524a98aeecc9fcc38176317d12b8d32cc4a72b7a085fce3b087ce5c3303df2c9ee52d4ba1fd4868f0c3007L'
I-692
I668
tbag7
(g8
g9
NtRp575
(I0
S'df1ad3c7c4181e583a71a04d471cb5264266e450311b12b3446356204b8b7f1f94153cb0cae0a755726fb6f2e10a09a5bba97141076f371acaf7326b27959e565e8dd22ce0811f435a823d60d1418897aaa9d31L'
I-692
I668
tbag7
(g8
g9
NtRp576
(I1
S'8a127603586ec06d09fb0634f244cac58fb6771871312ba8e4621788c292657207bd08853ca54037a34b77694c4d112cf07d6d9a2a16f8434285e314388b9d3da0ecf564500a9ca87d55c4dc2f36efb6889a7c7L'
I-694
I668
tbag7
(g8
g9
NtRp577
(I1
S'2477d88b2d5386017365ab116cac5c7b5174743b422d0a2e02c1a1f5ae167fe8d7fe736c08acad4f7c70b8c62432ad6bbd7cb511541f58d0e1995479ae9f8ceb09853dc6731e7d330337bfc47b7e0580eebf4dbL'
I-692
I666
tbag7
(g8
g9
NtRp578
(I0
S'8ae9dcfd9103a7ae4aa1a3c9217d8a6d67c2849441fe6995395b37be8205a58d4c32faf33de60793883971bbbe7f1e71466a779ebdd10756ebab27de1dbbd167fa3240e136410b4f17e4122fa927a29417bc10bL'
I-690
I668
tbag7
(g8
g9
NtRp579
(I0
S'f4170c9b652dfaca3e114a46c245435c5f3cf1de4157264c2b87cae4b7479d7323798591a1306f0ea5313db112f81c00db38b9f3ad87b837761068652b732982f41a85284844791ce88456ad1584c8c0db7c1b1L'
I-692
I668
tbag7
(g8
g9
NtRp580
(I0
S'7f3502a9a8d0b5a275482f163c4dfa9114e944012cd21107a8d602092ac914213bede0466d5f9c6a0752c7aeef5aab5d1b4baec5b4f6df7906d125c4e1a9943f803a7abf25922d032416c5f5037a4e7ffe82435L'
I-691
I667
tbag7
(g8
g9
NtRp581
(I1
S'45a4120f0357e3afe87f409547428932b4ab38e1de74e0e6268f50014e3a9778d8c67a499d44e1014e6978583f27f1589bdb15f488c489b5642251a6a417346e2cc599fcbaf906ff0f2f5b8e85d2f1eae7d6d8bL'
I-690
I667
tbag7
(g8
g9
NtRp582
(I0
S'8ac9b82bc6798ab987fc6643369dc8d92b46694c3e4d83c101f05052d595c9ca0263db271b559f86188b3631ec0c27803be057f26b8d609ddf46ff3018373043836b1c29dbb52de28b0db7c789b0e5614c2e3afL'
I-689
I668
tbag7
(g8
g9
NtRp583
(I0
S'4fc77a3c8ae49db2924bf371d20d3b9fbcbb2e07b8b73eed047a136a82c31efd09b5db9ac259a7ee9985bd9e58e8b7bb208f55ad4492e4e39d06c4631c40374299aa48ff37f45063cf8163a485338290c9a0cabL'
I-690
I667
tbag7
(g8
g9
NtRp584
(I0
S'1ec9cb75329028cc572c848781504893f0e6ad40c3db77e3f84a8b4fde0580bf39d2c54c49f725d16ac694e8c6d1bea2b1235ccaeb2cffcc9c18f8b53c39ba0b0c6e8893d182f82b461bc5060c22247479619c1L'
I-690
I665
tbag7
(g8
g9
NtRp585
(I1
S'56caf9372375c5e2e2213fcc5a5207d5716e61b11ef8d8defa05ed46785f2244910ac69f7c83489a8007774351f96a0baff54cfa5cd984f1dbfd362eefa697b8482898fafca64aafd58d75094306135315742dL'
I-687
I663
tbag7
(g8
g9
NtRp586
(I0
S'28356d0914ad91c111e0abb958cc54214d3d82e4edd350b1eb7519b1a95beaad6afbb5f79db19a949d74a70a212e56bb3a44a70c54e381cd0d5dbe5021e22ea178dc1693d369a45b1de6f022e6dec113072ee51L'
I-691
I666
tbag7
(g8
g9
NtRp587
(I0
S'48d12abe59323d5997cbd187a336493448b1ccc888717d676f32d679214e16be83eb0430de6efc68519946296913929bdf5a3dcb5042e37da1caf6797e43f96c86764db477531e05f0e7b584c5094ee63aa5e29L'
I-689
I667
tbag7
(g8
g9
NtRp588
(I1
S'aa99bf4d46195df275454ad7c09adeabe3580fca5fa2e888631ba61f75c3a613ffa632c74e71d089e3de5648304f203b468f10d69fb8c5a79570d255f554bcd26d08834c7f93551b3a3cbd3833e47a8fda2dad5L'
I-691
I668
tbag7
(g8
g9
NtRp589
(I0
S'502fcae2b21122e1a0de9375f4e5a3337456d1c1e17e6f9eb4f4e44151c7cd8008bc2af4d8eac3c5badc7d631f183ed974d66612e328470e06339ff598563b587c33d765558da292a89b634ed68573115c2c4adL'
I-689
I667
tbag7
(g8
g9
NtRp590
(I0
S'1501de5a21e458344b3ba81bec4dd2acf3fd8a9fd9f8b025131da5bec303265e7034f14333a23c2692870b87a2063d22d30affbfd5160c385ee3616f61db43691758b28597dbaf86d66bf740bb8b32bcdaa1fb5L'
I-689
I665
tbag7
(g8
g9
NtRp591
(I1
S'1cf3e8f5eeec5de94491459314c1888b55320caff51106f7a944cc1558b881534328af1b6850cae8cc01dbcb29c198778aa8ef27bb74272583f1a492049a2dcf96ec0674fbda100ca5ea4a46a6192701cfd305fL'
I-688
I665
tbag7
(g8
g9
NtRp592
(I1
S'80b40643d37314ad6293615bee4cdbf2b6a846dad1144f5295ee332e60cecfe8f99589f8158636ed2705cd82b5f2064a072dc6cd7ba0d8418b13ea7510eea3588f8dec903d2548b754026a4251475fc62a6b3f7L'
I-692
I668
tbag7
(g8
g9
NtRp593
(I0
S'23f50c09969de69fa13563f475604c418118adece45819fb6627817c2166ddd4244eb94e5e31a011de97247ba428c64f0aa0f615537feb5425575a23cc11e5431332f78d5bbfad61b313eecab41efc0c823fc41L'
I-694
I666
tbag7
(g8
g9
NtRp594
(I1
S'4559c41f5efcd0c5aced60f6a0381768839a4605e155e38f73607c4bfc1b43d4d94062c51dc349a99cb4eb86156a7ae4358483b6ea31abde7202b7a12ba06bea7b726e7baddadcbbca4413305ba185ab3d45b4fL'
I-690
I667
tbag7
(g8
g9
NtRp595
(I0
S'1b6c31ed147680e3b22e665553f41e14ea3e58dcc71dfe58dfa91882b5b8b2c944c55ebb8b047f09046bf1fff15aef1a19bb5be307307b80c7921f7614b17538c562bacee7aa9b2636e3936f941c1d033106f19L'
I-691
I665
tbag7
(g8
g9
NtRp596
(I0
S'c36bfbb574d3321cad3b0b1b447ca641453cdabad0cd63f6603924d93d932cf6c2b22cff81139ecbdde90127ade0ffc76d2f174e22335e4c619a321003738902dd81e7637c18665a90451c8fc1db24a1563b763L'
I-691
I668
tbag7
(g8
g9
NtRp597
(I0
S'75625965f9b0222733b4125afe250138026a4f6249d79f20cffaaa5e426f3a3980e03bd1a7434c9a6596bde4738ee6e6886a24976fb395b1822420f7e21557805b0e65660b6721fe4dc73afbb2a65889601d3ddL'
I-692
I667
tbag7
(g8
g9
NtRp598
(I1
S'63ce94de83d6865192e136612adfddfead682b35c83a11bb8da9a2540d1b5040ca51501197a86fe265c0fd58787a0836d2e780c07c1b138aaa4aab11bcf51dae7908a90631819e4474315eb63c7ba62577ae92fL'
I-690
I667
tbag7
(g8
g9
NtRp599
(I0
S'243e6f2fc638b14d70a5e30e66e94de930ed5d4b96f75a95f291dabf9f054892738a336442a60385310ef95c60bb4a865d0f1f37af84d2dc90e9008e6928c53de6c28fb50011464fa417058a77fb0da93bd709bL'
I-692
I666
tbag7
(g8
g9
NtRp600
(I1
S'bfbbc8c26bda6fb6b309e421d95a795973f3725903ea809ad522676d4d91280ac09150d187004f1a0426625fad8606095d07e93abbccccdbcde2cc577e85ffdeb4604e2b6983a231c85d116db65953daf1cb0cbL'
I-691
I668
tbag7
(g8
g9
NtRp601
(I0
S'35797c3a070d80829d9534ebd69ade28986ca14b7f492d856813bd592774fa68f205dbcad4a3cab4283118ac8925d2bcef9f20b200bcba4dd83e19b4476b72bfd61d58f5df54051a4b18e78cd5ca3a5af7df60dL'
I-691
I666
tbag7
(g8
g9
NtRp602
(I0
S'4a43ee54ec35d8f7441376c1ccdf88710a18e2e7cb5d2537f0454296d7a1614a8414fdd53870d15eaebb72adba76de003dd2736734e3ad97d6687e227bd7476dc40078daa2c1810bbf3c5be26177e8d44fd3493L'
I-690
I667
tbag7
(g8
g9
NtRp603
(I0
S'bdda506b33d6f9688c3cc52873b703bb23ed3d579a0260dc8d26ff4384a50b5e00ecffb5fc07e4a43ecba5cd6794040275a4ac75bd560b4adfa3738cb59ff29a9d5187407a7b781f3fff5eaf98d02de8ccb1799L'
I-692
I668
tbag7
(g8
g9
NtRp604
(I0
S'21526310e230f8cdf4fc76bbc0abc5749a278603729fdc21ddaa2735d8f2a85018ca04f842eced3ae9de11a1f2eba21886e3caf7a53053b4ec084ca86d0033eb97caceb580fd1eafd3895ca6ae3f3b03b85f281L'
I-689
I666
tbag7
(g8
g9
NtRp605
(I0
S'a83c2dd5fdb850e4ff585a61ab876ec39cce6167e9c954f9161996eb863adcd1cef552e4ba3fe3ed3f60a915ff8e4e68914c98d2d9a805f37b2ffad720e23258d30c8be27de5efcab4dcd085cf94c01e94b820bL'
I-690
I668
tbag7
(g8
g9
NtRp606
(I1
S'2ca3d05398fed7bddef687e260a29f522fe7cff70918627df7c02cda5fc90da0a43cc3618eaae8e0e55569d0f2c553a0701c2eeb122fae8a387aa3ab1c92db5dc17ac35fb2f5873a8a2524769f751383e69417dL'
I-689
I666
tbag7
(g8
g9
NtRp607
(I0
S'4fc77a3c8ae49db2924bf371d20d3b9fbcbb2e07b8b73eed047a136a82c31efd09b5db9ac259a7ee9985bd9e58e8b7bb208f55ad4492e4e39d06c4631c40374299aa48ff37f45063cf8163a485338290c9a0cabL'
I-690
I667
tbag7
(g8
g9
NtRp608
(I0
S'25a8082a473970bc291eb4a74d3d4abf385c178b7de4ad620567812b42198bc7476113a435cbf4ba973601022e8496b07f62e19c2f160364b3da1571d7bd20bd6553d1495a74050012107715496f85cb9c3eff7L'
I-687
I666
tbag7
(g8
g9
NtRp609
(I1
S'a725c5141c7b5ffa9f4c6d852fb17ab30ba0fcabd38ff539aa2effb18f2dae46b491bcaed4b0848cd80cd7de35dc11387e1b2c5bf5b4553322555d824389c603d3e863ea774e4c22177d74ecfb29816e0979b99L'
I-691
I668
tbag7
(g8
g9
NtRp610
(I0
S'e7629bd87d6d495d177a234ab54f6ff55e867598221acee0baaa7c3b127bea03f3ee9439f8e214f019d57b6c406710ef6b1d66fda854e73147e680940d53e5fcd9ce14b5fecdd5de49e323de0b56c9fbfa26787L'
I-692
I668
tbag7
(g8
g9
NtRp611
(I0
S'978272a8b1ddb8a9330317c4f1d5149e36dfcb94960ea68b3a9448a880f344604aa03cf2fe89c94d6440983587b5b7cc1ad30e02acc71ed97562ba82841125593c479b16c6946fd861de62cff3e526ec77db36fL'
I-691
I668
tbag7
(g8
g9
NtRp612
(I1
S'6e7d2b686c372b4aa6ebbb60fae61e9b4b015bf3c6e4e55ae3f90ea945720dcf873cfe38fcf66168ecaacb68104a54f0f705f6781ea039a9cc946e0af338e5106e4a77faf44bceec3b2abbb436a071af38f1e41L'
I-691
I667
tbag7
(g8
g9
NtRp613
(I0
S'3fac6015efc1d07b7b37688c5554c4ce640b1686efb02e9cd3102328a58b8be0bce1c023b050c005b29a34427cd53314d3676ab52f29e9f29fd0087b16106a941323890a0848b0d8545a808bf1ee7ec104c39f5L'
I-692
I666
tbag7
(g8
g9
NtRp614
(I1
S'414a2af9042d376769907b8147804318843a396a6b007fe0163a3706e9a471a7eab81983ca356415b0dbeb5af49309d253be3ffe78bfaa5f6ab894c6014f12ad2e1362c288c65a44ed5072b6b19d08d8141c001L'
I-690
I667
tbag7
(g8
g9
NtRp615
(I1
S'6b87b77451e6b4489bb80da675a2e924ec2db551ee147c850ca5bf22895183f9cc41168ba9dbf7ba51eb3be138cdeac26a6e895f7a7ee7a89f7e5608670f0aa772ed900596e03714946f3c0d218d0bfe22a2823L'
I-690
I667
tbag7
(g8
g9
NtRp616
(I0
S'2aa59c0ebc1488504533adb15ab91235d43ac3b1f25a12b22e4f3064be307faea62f3ccc79c4c1cd23bbf2b6558fa606b89cd7d6432f35c4bb5cc6d3df97525c9aae49ebb55d11667b54ce2b1e38117a611ed5dL'
I-689
I666
tbag7
(g8
g9
NtRp617
(I0
S'420fe4222ddde9fe1c989c34ba56ca649c892fe34067cce9490136b72170563a6a0f3231c267ee2d61e9fc3226c2fb2fc97c85bc275437a7664392835cae8af6cfae195ff81d2fdddcb8c7d217e306129a23e2fL'
I-689
I667
tbag7
(g8
g9
NtRp618
(I1
S'259006e41760af7930a3ed92bae2be9674b75cecbd49383aca88440e1262f8e8036a3cfdacd81d216a38f8e6942d164dde219302f2abd2e495a22138b01bb728138491240f9c7b90e264858512e31d2045c189L'
I-689
I662
tbag7
(g8
g9
NtRp619
(I0
S'9093622390d54d51314b932cb48f867b0f39d7c92ce3d68db7c81604cb6edf9ae652d501e0b125c7342b0ca5752d25891cb50a2c1e329adf3e452169c99bdf4241f211b2a0ed05c87998ca06b984b00f040e46fL'
I-692
I668
tbag7
(g8
g9
NtRp620
(I0
S'10f498cccae509778bae5124424916f05afe8dc6821c03408ad09913a0f75f7e1660a4259796621244e90dcbda79b5511b7e6ea61727c3081820e503a4018b99b73eb267ae2f62905770a7ce92a9793c6789531L'
I-689
I665
tbag7
(g8
g9
NtRp621
(I1
S'5e37badb8498874ca29dcbac9c83eb7edcbbd8a69c8281c903e3e757be8a425a2fff1731cffe8c11c3fb75de629b8fa1acc7e24f5b55e612c184f114e39aaf355cb971b94ac7b56898b52506b46262eee11529fL'
I-691
I667
tbag7
(g8
g9
NtRp622
(I1
S'f1ebba44063f29a07b2b17a6bd6f99293c60927d7dc176924c1b7902d5f4f37177180375aa372a5934ed533cf55d942f0d1c88e56e84a05352b4648ebd60596f192066588d83f18446a43d7342e1b4aec70226bL'
I-692
I668
tbag7
(g8
g9
NtRp623
(I0
S'4c797cb224d1084dccdfd7c2a90b2d0f52b1166399e0f9248eeef721e7f6c67af5bfef217af4f672a0d4d3b8bdac09089f08b85db5a30496d064c14c40375ebc2fd3ce39d5a505d5bf0d2b25a1229e0e1175ba5L'
I-690
I667
tbag7
(g8
g9
NtRp624
(I1
S'5c1e70dd51b509fb113cbf5440abe2b405aaa70ca648e247cd644344aeae070659529d96d3cc81966d5526ecfd0a4465d079601b3b8dbdee273fad39518d32f05e804ba5eacff8965e96ecabc0798382f3b9405L'
I-690
I667
tbag7
(g8
g9
NtRp625
(I0
S'cfcfaee401d8e7125ac1da3477d59110d5172babc13bc832d1fd1b81ba88c401493b0b2e5a4131b31fb04eafacba6cd2160ca4a3d106880b63b1252de925132f0f21801440d8361cc4707e1fbe862c7c5c95bb3L'
I-691
I668
tbag7
(g8
g9
NtRp626
(I0
S'e0a04b9f640de460a00fe315a0cbb913126e3e37108e3a5f22a824329c8df6b5d5b29f1dcb1c2aa5de8753099fe26f4a77007879ea71176c39eb09a6cc4bf8c222b522cc08663bf65c3fbd38b7a89aac8659ffL'
I-691
I664
tbag7
(g8
g9
NtRp627
(I1
S'1728885f0fad81cdfb17fc8f1bbc1977cea75f219ee28856b0d6d6045a433aec0c9d6a37d25489b2a52061640db49b6b2f2f31830f5bd4b7c776011ad9e25b81ba47e71060bb64515ab598b2e50b326fe11fcd3L'
I-690
I665
tbag7
(g8
g9
NtRp628
(I1
S'126d85c473285b41008ad4a458fc0cc02fbada74e7e8ce788877189e3ad8ca994a90fbc4943b4c1479853714ac25d29377edfaeffbea632e8c75f3645eed7b994ce4db3096788f7e027cebdd5317b5a22ca6545L'
I-689
I665
tbag7
(g8
g9
NtRp629
(I0
S'ffbeac2a844ff64b042a8a3c5cfe101ef076f30a889534e0db2b76a3a26271f3e07bdb575fca73a8116dbe1be40cb933c5984fd3d22f1dc0107418994a919d39d68f10456d3e6d1d519a189f48306a2c659e7f1L'
I-693
I668
tbag7
(g8
g9
NtRp630
(I1
S'6eb9f8bd723a6ce3155a52aa57cd14b84708d7633a8986195a920d42b871a13763765234a1072a30a731529552301c955b0f0536685bf58b86efa791c8a620a019b24d97d40c8290db717a4b263543611930e87L'
I-690
I667
tbag7
(g8
g9
NtRp631
(I0
S'197511cd80566778e1e0abc3518268beef47f7d46510e0f4f66899661e00b2be15e06de0c8388bf287c984d245f68c519e1e88a5abb9e194a7997e778ba61f1a7226638a90878c8bfc930b444c630888a6e4d1L'
I-690
I661
tbag7
(g8
g9
NtRp632
(I0
S'1ec9cb75329028cc572c848781504893f0e6ad40c3db77e3f84a8b4fde0580bf39d2c54c49f725d16ac694e8c6d1bea2b1235ccaeb2cffcc9c18f8b53c39ba0b0c6e8893d182f82b461bc5060c22247479619c1L'
I-690
I665
tbag7
(g8
g9
NtRp633
(I1
S'a725c5141c7b5ffa9f4c6d852fb17ab30ba0fcabd38ff539aa2effb18f2dae46b491bcaed4b0848cd80cd7de35dc11387e1b2c5bf5b4553322555d824389c603d3e863ea774e4c22177d74ecfb29816e0979b99L'
I-691
I668
tbag7
(g8
g9
NtRp634
(I0
S'2d8ce2570df8e034e5993155d570c655ceec0a2d972e76b76b04ba43ed35c3c2bb29c65e277f472b97722b8ca7377a0aebc25c0d47a5089d90cac559771cd5ae8add3b952445953644884915b6eb977dd34152fL'
I-687
I666
tbatb.