cnumpy.core.multiarray
_reconstruct
p1
(cnumpy
ndarray
p2
(I0
tS'b'
tRp3
(I1
(I25
I25
tcnumpy
dtype
p4
(S'O8'
I0
I1
tRp5
(I3
S'|'
NNNI-1
I-1
I63
tbI00
(lp6
ccopy_reg
_reconstructor
p7
(cmpmath.ctx_mp_python
mpf
p8
c__builtin__
object
p9
NtRp10
(I0
S'5f6e4031a4ee71a9e1c0ee7374027e1174c57bd689c599e5aba5c7e13f6fabfa8c3eb6bfc1e0526d0c4fd8bb6ae2eb71cf9aa22568840a6b2dd3a8cac963b07829d259c2bd752261e23604dfaa6ba95bc881ee1L'
I-695
I667
tbag7
(g8
g9
NtRp11
(I0
S'2e56f0dc493fe9b06882661d312a9c8913ddef7d989990c93fb0cd198c680fd982da472f6597d49679e70078cfe9bfaed7887a8bc8a3970211874a1137ca40c403211b1d3db36ab0d62549fa19a943cf85537dfL'
I-696
I666
tbag7
(g8
g9
NtRp12
(I1
S'ed50637ff5073aea3adedb397d6058f4f19416f36b31935f58dfc866e250bb1d8fe982ac2c5288056c4a8ea119a4575390dca56d692626afb508939edbc9437cd23d6b24e069e7184f3e75b8e73413763c12c19L'
I-699
I668
tbag7
(g8
g9
NtRp13
(I0
S'262d6530237cd8921e619e1facea3c30dc000a58283da64b55122bf2295904933dba2acb1f1356b8336dcad473960cfbe5cbb64be54b2236858f016a1c5e52c65acc961a0049b2b7edd37965d158c9364b1c655L'
I-697
I666
tbag7
(g8
g9
NtRp14
(I1
S'80a774a9593231fd3a7f3b60cd0d93a64af66db4accfb0e163ea7910c8986c79eaf8f9eda05697ee42a5be4298165051aebfbff3550d5d5f4869d4e82baf1beffeb198997d3f514d712e14838d720b9b3d80d8dL'
I-697
I668
tbag7
(g8
g9
NtRp15
(I1
S'e81a0e05243f08743987822f0e9770d716dd0256fcde03f5fe5191031874b6d8dc009206d3f9e4258d120c8fcbc1f2e54a312d420aa47bc5618cc83a7982a45cc8caf706869a0fd9b4f96559443ffa5a5ae7665L'
I-698
I668
tbag7
(g8
g9
NtRp16
(I0
S'22be12876f5bac07a8444efdffbe271f7545dca5d0f35aab506927631cc36b2ec1977102d999bf9bceeddbca4b2312238deb4a20d6fad15daf596ec958ec4eb8c7b77c55ddc5182e1a780a4c9b9c8ba46236499L'
I-695
I666
tbag7
(g8
g9
NtRp17
(I1
S'1638a3ae7e54cef6159478422007c8df344ee7e9883f9c83b2447f4118a697f2948089a11f8db5c7eb524486cc718f1156fe6117e35bf09058a9b571be38c32a55d6eaf0009f31e14f285c1e77359a1076107d7L'
I-695
I665
tbag7
(g8
g9
NtRp18
(I1
S'b885633146be93eb0799230a0d7554d3e9c1b9fc74ec81e590407d95eeff39009278d7c68640081f11458adae5a4496f0a41bdce2bbcd3db78ad1a63b773755ee0f34524831e1238147f5b95fdc55ba6e1a06bL'
I-696
I664
tbag7
(g8
g9
NtRp19
(I0
S'e0eaf33d22293ee7a72d5456c6a6e2353897ad068c8e24d7dce4860f0d8381bca6a9adbf7d08f51e8d0ceb55c8d72e37899e09cf713aecca0edbc41ba161e14b7955775429984989c5168acba56ec504cce91e9L'
I-699
I668
tbag7
(g8
g9
NtRp20
(I0
S'2210e83329a1151216b972c062fe2109df051b7ec52fa717727669e5dec26bf9d1e5d472e574b1d7fe0da5e6afe06442d8f0fa37d9be444f4c76181713295809aadd1bdb4983b6b721618b385a5ae0a458dda01L'
I-698
I666
tbag7
(g8
g9
NtRp21
(I1
S'a22b302d016aad66becafa592e7b3235dac0d860919aad93dcde1e13e77e3bd6cd4f1309c174df820e44cfc6bc9d90ea06c2323fc437cc8003374e82a19d4cf5582eec71a61ba1191fd0e3110442a244022b761L'
I-701
I668
tbag7
(g8
g9
NtRp22
(I1
S'75bfc8ef76a4feb6cc7f3438d4c0093dded6d7dbf89082095e26db36baa657b93fd049cfbbde63c377816e83a02e1ecc27cca6c9ce70344510847ee8c67a5ad67b2bc38dc5ee05834669c2a8114c84dab84a42bL'
I-698
I667
tbag7
(g8
g9
NtRp23
(I1
S'743cb6fc624426040313959b20fce9ccb4590e63b055e61768feedb0af1365094c5f01d7e8a8c0d681f9004046a778ba837fff3e689f9ef31b87257fcd2fdcf771833e3337304698a6075233da1c3e761cccba9L'
I-699
I667
tbag7
(g8
g9
NtRp24
(I1
S'8e2961febda268a7cc404c3b6c31923e027c0a5fb8ea893def362ba680f12f78ab0d79b8ff22f0b9bf1f5a2aff8d3617e3b5176836e5f4a9d430b58ec3ede5cf7ee967f9571bc585fa7ce29137a99860994be09L'
I-699
I668
tbag7
(g8
g9
NtRp25
(I0
S'40df6d9ea1be14d932b248ef107b696110c94758f22b7d97e90f250347b6fec1bf92e9064299d50eceba7df7017bf9e78f5266adfa7dbcbfcc3bbfa7120bd199279b4294013ee67a010295c225a508fb187f5ebL'
I-697
I667
tbag7
(g8
g9
NtRp26
(I1
S'b376e1ac06d12f0c67b897ca666dc6cd7641f56cdea5981d885c23a1120b999c67fb448a0293d18c8b0260ae247920258b2c20965c18e9cc342510ca2d4ccd5f94ec9a997e745ef18ff2b1f7471d2505f402655L'
I-698
I668
tbag7
(g8
g9
NtRp27
(I1
S'6a1e621183bb6b59a9026416f309f16df2677bfc3c9fdd79371ab63934406710ac2a1102f9394fd6f47d27ae6fd90c0d0b1262f255ea251574e33574bed75e9f8cd536e13235bc32e789d591d642fff59b27bb5L'
I-698
I667
tbag7
(g8
g9
NtRp28
(I1
S'd8eb99bed122ec006a50e19918a504819ad6a5c7bac37bfc5540a41688b1fc359bea1b637cbd2c84ddb5476046b29b2ca341a11ed2ac3a3df863f03a5f87264a2cd03016aac71edf5fd426692a6fa9d42f5b52dL'
I-697
I668
tbag7
(g8
g9
NtRp29
(I1
S'28ccf017587e46254152f049ab6faf207d4e9db6b2c772e3da5ecd43f5b3e4dd0e52a9eed30b50333bdb8567de631c4f16cf4e4f64ae9e3f0b0dc8b583e1afc6cd70087d4dc13cca6c2e2da8922f5db6bad77a5L'
I-696
I666
tbag7
(g8
g9
NtRp30
(I1
S'd1e62cc8bbfcd47f3d5090f96360c2590f234429ed2a0cc0aff16dad5896672ba809c381b2056991136d83f522ee66203db0a6889fef8a26ffab5485bc12bfdeae0f0131875da24fb3749e61cdc31ccb134be9bL'
I-698
I668
tbag7
(g8
g9
NtRp31
(I1
S'b782d3fc3f87fa0f966360c5aad27c77ca8f00967cd3d976ee389eb6fe215fa216cdfe6dadef9bdde3aacebb020fb2fd8c3a4c92677c4423a5c3ecbaf88ce7831e92e7290825b9efe2c5fba831c289b3a3b803L'
I-696
I664
tbag7
(g8
g9
NtRp32
(I1
S'513e16982e740d1fb64c280f9cc03184d363e1cf00f3b575430faf87d2de37d3344594ee3dd61d8ea88d1d9f71c32041bc916266b1d06343c71d601967fb5bc3f4ffae79718a76202224bec64bab6c4d396d019L'
I-699
I667
tbag7
(g8
g9
NtRp33
(I1
S'de309278acb29e6dc80332aefbb34741226241c56e022b30948a0d813426be202ba0b4cb7c315db47af464836136d20970887324c4bc359e5c21d263ad2f98e20067ee07a580bf32c688d9b14f6bb697412968bL'
I-699
I668
tbag7
(g8
g9
NtRp34
(I0
S'9416264d1d12be500f067cfc9cffa3d03c7f039490b4ff48258bd4a0afab770cc51392109f490329064b304547f00ad6aaf418f442c5b2aee65614d9a22137083979a6dae083bc13627ce3c14eefdd6e10bc761L'
I-698
I668
tbag7
(g8
g9
NtRp35
(I0
S'2e56f0dc493fe9b06882661d312a9c8913ddef7d989990c93fb0cd198c680fd982da472f6597d49679e70078cfe9bfaed7887a8bc8a3970211874a1137ca40c403211b1d3db36ab0d62549fa19a943cf85537dfL'
I-696
I666
tbag7
(g8
g9
NtRp36
(I0
S'e8f9ffd460ef6898348ffb8bd4878251477d22d163e5e4c64441bff7c1dca3668247b47f926a171b79b33faee6a55c542112fe15e4a5d0dca038a50a4eb7ca921875e070b829c679e17c4d571a43141a00d4145L'
I-697
I668
tbag7
(g8
g9
NtRp37
(I0
S'b92beb04d94f04ff6528561962670c63711212599a4bb5ecc52f81106a5bd1e8ba3b8f79b0e0b75e93219e7c18c625850eae6d08d3ccbef3b68fdc09e5157d2d037b88319cd471a0a8140b2c206b12eec34d79dL'
I-701
I668
tbag7
(g8
g9
NtRp38
(I0
S'3cceac8bf859dc77812f7580298c56ba273fcacc116e256e330b7083192f2f0fe1dd4d72ffbbf2671cfa41ea05c9908947317eff74f863052e31f9cc9ba523d027c72603087e0b438e40d6f093b94352b246673L'
I-700
I666
tbag7
(g8
g9
NtRp39
(I1
S'c6d69bcfd6b663c6364c26213eb08de6078a20c6ae9f1b5ed215f5f26506d15ecc5f2cff4c31d48c84bb46f3d0ffe661025046a05618e9377ac147cb32048e1f1c7c62a08c2c513ee9a25b321f859ef1fb3db57L'
I-699
I668
tbag7
(g8
g9
NtRp40
(I1
S'2c9a2b0aba462f4d32d19f6280eab0b80aef0b35711612865b3ca61ac1ec121611cc3f70e27c9cf80e5866cfb052f8f090d7b14c11e86f4e677cc2a31674441eb386c1d32618f1f89ca08420d7902f48cd312dbL'
I-696
I666
tbag7
(g8
g9
NtRp41
(I0
S'b7e01eeb61fae538e8e29faf5da71e1c957bee14e79f6968d9edd4a8eb34e9b5352cf26730571b45f2b0c00219596f3468e59586b94d9741f352d2de12ff55a418ea0ee92c6f9fede6011b106cea8fdf7b6f0dL'
I-696
I664
tbag7
(g8
g9
NtRp42
(I0
S'ae39488f9f34728a8967fca49f1866ccebd2f80d63f4f260660bb40c0996960c13a79af715015d4978bfc86d236186cca1d4be18751f44b36af37b60dd6174667114fb8200afa6b3c00ccc1adfd45e700907751L'
I-699
I668
tbag7
(g8
g9
NtRp43
(I1
S'4c6129ed017cd9b9f3525c4ed048747c212f2fc8c5691687383973afbdd4b3c03918af2061a5a5fda50b1c1574aa12d2ea7d25bc45fb65c6ec681e00475cef7d7cdf469aabd52f194186b88e0ed56f458daf9c9L'
I-698
I667
tbag7
(g8
g9
NtRp44
(I1
S'7955d1758e70c876b163f0451e0deffc0b0d66352684fdca74a4dd8d4e29a45d9a1d454ac648ae4d78551b93abb14ea0be308c8e2c52b9a494a1bda81328c2bb24fd43092bed5a0d9136e597b85fb55b125a2c3L'
I-698
I667
tbag7
(g8
g9
NtRp45
(I1
S'914735a1adf838dfe5d229ddd9f52e9cbad66b0cf376fc8110c898af582b5ad04889ad02aaab229b83b74ee5b999d522f5985b59cc80aec29a724cb18df8fb26c6610d392c803e7022ed728b3bb64923cdf9859L'
I-698
I668
tbag7
(g8
g9
NtRp46
(I0
S'3833f191d02ed822af34404e91972ee2ea0d32bc67f0f71823e6fceaee3a4ee6a14b820fc946546b6e3350becf6a077d606268786f1d10eca8f657d90680bf323252e06e34b7c7bf8800716b0bd023197d6789fL'
I-698
I666
tbag7
(g8
g9
NtRp47
(I1
S'2a668a2ced5729e65f8b9f9a7d09aa4cde60d67c0eb323b6225c978ed2f18b1b939a6e4c81bd86090c2673c0a023ead7aff78b590e746f9232ad5b6e54945da24bfddda8c389400303fcbc0605cd7a65ed7af05L'
I-697
I666
tbag7
(g8
g9
NtRp48
(I1
S'10ef1a3720d6fc1383fbf0ff91f775605073521e26fae64ff9cf7ed08a7c0cc6483651557597cc93e98bed2982b4f60613dbb6db2af78ebbd87545389c489be5d4f61c119a83e78d2f2338b3b30aa1bad384d73L'
I-695
I665
tbag7
(g8
g9
NtRp49
(I1
S'e51de33eab879b42ab26d6a8c9538d98817939465277ecc7755426c41e1d0fc0b26fcf15cc5aee5f1c5bd1e63eb1247b19534793592f686f1f4d231e533db5a1c4b8018c5ea9ca4afdbab594414a1269cf4e32fL'
I-700
I668
tbag7
(g8
g9
NtRp50
(I0
S'e2ba6ba2eb3768a5a3c956d53493afd91a757662fe0b2d603838c09e1d780823cf1cdd7f3e71d5ea4e0c25f26c8d3e61059bf9b4fbdf052a15a947f133a1cafee7c1d5391688e17f6ce70af8eadbbf77dcf7389L'
I-699
I668
tbag7
(g8
g9
NtRp51
(I0
S'9dfdbf9e102672fae8200822d497165a146d769c6b6aa8f6b8cced87defcb8a4b652131daea253b02e9fe7ce8b86189e5adc8617837bf6420974b5750bb533320bbf3c25c7b9eebbb1e799235c849a1eb9c479L'
I-698
I664
tbag7
(g8
g9
NtRp52
(I0
S'8c6adf5ae033d8ca700a533e09cf2767bc6aa51f0bf1995add2dc7857d26019fa2695bdbd7673e17138b5c5f40a96f1daa7ef78f28fda0aae2c70a5b4bd9926e31f17e29f99d08c7f44cde3d2470deff67e76bL'
I-696
I664
tbag7
(g8
g9
NtRp53
(I1
S'3b82de15a697ec07d7a97d346617b32d6b215c6f1f35fe2219d970c963243af0be0f797cdc38224bbf946d81d8b72d6fab8e0e8aae59e5ec6f9bfc4a4b2615759400910e17ed3e6ba7d6c0bb1c07aab29f81163L'
I-696
I666
tbag7
(g8
g9
NtRp54
(I0
S'23fdd13ed823108fe2a9f6b64834c7f2eff9fe32977100bbd9527e5e3c71d56009d3051c3fcfaa3c2ee512a37c89ceaca38dd135677a89f5d000c8ac07ae27dba23fc9fbdc2ebd5d1385eff0e6fee04187268a1L'
I-697
I666
tbag7
(g8
g9
NtRp55
(I1
S'4131c1a811b8df59aaa89421d0c83842c20fa64fb982a60f72fb28d96ad94a12bb701340b2af2f6d41b08045644e6c67924ead2929bf0cfd2a12efe3a3e2d12775e881898415e030e23e9f2e74e62b12f1ffa03L'
I-696
I667
tbag7
(g8
g9
NtRp56
(I1
S'4bae5a61ca47cc404d48d30581e332bdc72e8566e9959c8decf476e1346e22b1be434912675920b4efadc410d83a652b6150258cb31bdc85d0ed1ffbbaa7db5bfdbe9f2968a465df5728b5c2c0c8598e5f28447L'
I-701
I667
tbag7
(g8
g9
NtRp57
(I0
S'9bce58f476a5a1477c0f824da435d825044e66e67e7207084cd9afd0975c02cbe5dd4291e27dddc351ece088243c6878e337d536e22aec1753f19c8ada12960c2558358d8f40dc2e77f31763323136fa966e87L'
I-700
I664
tbag7
(g8
g9
NtRp58
(I0
S'cdde5738bbca985765c5fe964186cd774e07bce60958a765fd38d57925ada74ef08de11cc0fdf8bb7817d21f6234ef43b9b16bc441fd79dc6d651615285d17b59e007398b550164d65e6152d93d0a9572f0495L'
I-696
I664
tbag7
(g8
g9
NtRp59
(I0
S'c1eea73e544f00d8933728aa2b4e2edefe8f19101c3bb674c5dc85f6679dc8295547fc18500c86c976153db52896add20ddaf3369fb731ba2fda885523ecfc9b2e7022ac834d5bf63fd4f95c19773c0ff59379bL'
I-698
I668
tbag7
(g8
g9
NtRp60
(I1
S'ed50637ff5073aea3adedb397d6058f4f19416f36b31935f58dfc866e250bb1d8fe982ac2c5288056c4a8ea119a4575390dca56d692626afb508939edbc9437cd23d6b24e069e7184f3e75b8e73413763c12c19L'
I-699
I668
tbag7
(g8
g9
NtRp61
(I0
S'b92beb04d94f04ff6528561962670c63711212599a4bb5ecc52f81106a5bd1e8ba3b8f79b0e0b75e93219e7c18c625850eae6d08d3ccbef3b68fdc09e5157d2d037b88319cd471a0a8140b2c206b12eec34d79dL'
I-701
I668
tbag7
(g8
g9
NtRp62
(I0
S'11c31520c8d099d508e07dbf2ea7e1f42c5303963f240b3d9462f07f938cd7ccaf2f004daea3ea1f749e98d3714a5cd5bc7f0789333f7bf1cde87d709110a5c48115c31cabfa8c6a3c26861fb886451da91daf9L'
I-693
I665
tbag7
(g8
g9
NtRp63
(I1
S'6e0263351618e41a932aed3494444459cbd7046a08554d7a8a51475fbb86992cb104c1e729942e614f38e9015cdae897c44a25eaccd6514c6de44d53ef650dc18fd7f981bdc8fbfefadf3c10f1ac9342eb17ae5L'
I-701
I667
tbag7
(g8
g9
NtRp64
(I0
S'38ba98ce1aad64bcb9705d0094260de8cfc7ccf9a34afac8d5d2de2a66f5308eabd882fa111ab39157045c57fc8511bf97bff084ea7b59bbe6123268e9b48041d404c4af2402c5a552dc56a8a943b363feec17bL'
I-696
I666
tbag7
(g8
g9
NtRp65
(I0
S'9ee93dd2ea4ab49e10e910a2d8ac27515f9bef7254486a3a9023a3ae276c99f18d055e0f9267d11d53081524fd70f909627a47b0e50888ce20cf281a1ad43797631605155841ba1e42212f9835102a37ef81ddbL'
I-702
I668
tbag7
(g8
g9
NtRp66
(I1
S'854c500d3b964cd22c220f0abad4eb22930cc09b3d2c5c41a94bebacd96292ca227de0f5d9a6eeff9be1de8f9289ce9c5f3b7ec31e6858eb1cead7f55cd387cd7d095e92c2d59adf62395df36499e8ef9a811ebL'
I-698
I668
tbag7
(g8
g9
NtRp67
(I1
S'1fb2beafab75812e779e071fec0b0fbee22e5bd839454d9a2f94434ef947a03ea1b342deac290d9c2c282aea962504799360f1804083fc67e589d70e81db422ed8d8549e3d789796f53764f1aca15625538d527L'
I-698
I665
tbag7
(g8
g9
NtRp68
(I0
S'88dd2673303623e1e33ca3be86d1fbfce962bdd72a34a9d86f9b487cc92e7fa6e6a7c252e1cf5adf9e64c0002996a99f38c499707c0a0a370b49dedf07bf2e8271cb359e81fcc9cf9853256bde882c93e40559fL'
I-698
I668
tbag7
(g8
g9
NtRp69
(I1
S'e29f2c37495ea447b9bad696e2d0df136ee82afcff3532b764d705a5b04e34f0b59aba33d076b2b4b2397aed679ef4d01bfd1631034f39dc66332c5910b81b2d96489822261bd3e51606657ae0fc131a33711e7L'
I-698
I668
tbag7
(g8
g9
NtRp70
(I1
S'aa386a37eff6092c0f88c7249b3113118c99608420633960499ba558e7d56122c0291adbc97c41116a63506b658b521a3422c285f3ac7ecbd2716e731b174d76ec0143cd7c67bbe8d69ddf86222b558177f5503L'
I-701
I668
tbag7
(g8
g9
NtRp71
(I0
S'4901f9129ad08c5af6a596f3bac1e7c47cbab414b4cdae05a5c678755a1560a867f1255d7be00301f37255f1485e1564ae268d8af4c50c76604934722fe97917618cef956ee9da3ae8cefc7df9b3a13840729adL'
I-700
I667
tbag7
(g8
g9
NtRp72
(I0
S'8a398b8b9b806dac9e23cfce53237bade61a86c4076df170188407796927accb88fe6703fc9a9ed860610f4709de016c7dbb7342a60aa915ab33b34d1ed9b57cb9ec971d226f8f2b79259db430b66386b5ec887L'
I-698
I668
tbag7
(g8
g9
NtRp73
(I1
S'2a0495fc2d06972665ab5d745dcbee11292147e561b629de5f6d480e0459039e1edb5e409500d09433174d5353f51a208bf3cc0d4fcbaeee99983b867e7ff2e18cd4448f179e4b3ac52b49de8834694a6ae2301L'
I-697
I666
tbag7
(g8
g9
NtRp74
(I1
S'daff677689a7fa8897c46e72a629dae26fea89c88a7ec8adc1f22bf13a40adb7807e3039da68a82e09ed7f341a3a20e6f78d0e3e8d61f2d158801d4b532b0d23c6d190dea8b757e7e9739f96b145f5810ee3419L'
I-698
I668
tbag7
(g8
g9
NtRp75
(I1
S'7b62193e906a0d5a125cf122285186dc52fe011625a83da8b900b3e401acfc04bbb3765a1f46c3fba873a071d847a64f952cc0e78d376f91260a8993e427ba0507b52187dbc8de095787536e232f8ff8a6ed161L'
I-698
I667
tbag7
(g8
g9
NtRp76
(I0
S'4e11615209f9e34ca19420bf4e27a8cfd44f68549fbf54ac1683c829583727101346869d87579c7f5536bf5dc7f94abf76f105deb014434d67183a24bddfc14ccb1ff059aef04ada3bfb3b322afa8a634d4fb57L'
I-700
I667
tbag7
(g8
g9
NtRp77
(I0
S'b7f07f24f1cb2e74b4f19769805c81d4e324611c00a5d02ed85244cf000dff64c4c1a5a528e54c5f4682f18b9683acf2c6af07a178c08a644c24107de5358e3f2fa81d113ea29bc253435f391a1d1361eb045f1L'
I-698
I668
tbag7
(g8
g9
NtRp78
(I0
S'71a19a9a6bf4744ef9088c7d2102a509f7fbdf6d205ad5c395f53ecc704d8f78c57944bf0119c800d573db99fa4e88cb1b95756617ed476456cea715b2d36e02359e120f22c7c04bd75e9eb526cdb75a1b726b5L'
I-700
I667
tbag7
(g8
g9
NtRp79
(I0
S'24f6767a6744db633cac077db9201873adaed2aee944aed02722131b2ff1235097150c2ba6ae62b55e7e2e5b615c1200e128de415400544eca77589f7235cb07371789ca5a0181f6056a2bd4394b2145414f65fL'
I-697
I666
tbag7
(g8
g9
NtRp80
(I0
S'c468fab3bc17b1d376da7633f7ca5650ff3b57976a96e42baa5f0388067d73fdb25c451b62acf0f4307f08660df389d358642b03d8cd4a07d1c4fe7c071fc0c2a2496c4264353e00f6ca6d32cd921fc25073e05L'
I-698
I668
tbag7
(g8
g9
NtRp81
(I1
S'84e12525e1237d8778efd3eb5c355cd90337163ac974f19991acd9754518e63ec5a7c059d4124ad5405b4194b30e1cfef9dc0110aee208c0c67cb8dac6dfae3c04858c944dd7b5966f6b4891f47ab929118763dL'
I-699
I668
tbag7
(g8
g9
NtRp82
(I1
S'98baf59be0c4f57cdb542c8638ec0248183139680f703ad9be1c4f2b4bcdfbec253827ffc93357f36c8de07ae8ec4257d88d3f989468ef1c666ae7b02c4b390b00ec3a88287ff3cc4ab5aee448015e307e72307L'
I-699
I668
tbag7
(g8
g9
NtRp83
(I0
S'2e9a58cbbe34a224dc079056cedb102176345a19f0ec7937f53f419534090450f8447d8fea847894af1a6a57f15434dea36cf4592920919815a09dbe654a393b3755f44a89cecb88ec1969ee929551372fc6539L'
I-695
I666
tbag7
(g8
g9
NtRp84
(I1
S'8d6d045cb379d1036504c6e288d4a20e747c9ea8acaa1b559eaf6eed25b0b58484251c71e7a1c45d57e4db667b406cb98e1c1cc2b68fa5f8101a26746a8643ec124ad703c80f1d5755f9422e5a66f7ea8654571L'
I-698
I668
tbag7
(g8
g9
NtRp85
(I0
S'262d6530237cd8921e619e1facea3c30dc000a58283da64b55122bf2295904933dba2acb1f1356b8336dcad473960cfbe5cbb64be54b2236858f016a1c5e52c65acc961a0049b2b7edd37965d158c9364b1c655L'
I-697
I666
tbag7
(g8
g9
NtRp86
(I0
S'3cceac8bf859dc77812f7580298c56ba273fcacc116e256e330b7083192f2f0fe1dd4d72ffbbf2671cfa41ea05c9908947317eff74f863052e31f9cc9ba523d027c72603087e0b438e40d6f093b94352b246673L'
I-700
I666
tbag7
(g8
g9
NtRp87
(I1
S'6e0263351618e41a932aed3494444459cbd7046a08554d7a8a51475fbb86992cb104c1e729942e614f38e9015cdae897c44a25eaccd6514c6de44d53ef650dc18fd7f981bdc8fbfefadf3c10f1ac9342eb17ae5L'
I-701
I667
tbag7
(g8
g9
NtRp88
(I0
S'f281219582309c0b4845338c93dbca0f85cdac4c42f9591edc171ba7c823ba7ea1eec1fec02d40424f55afdfe2107602ffca8a46f69e47b18bdad259e96c7d475b83ae50f842e3444546ccad346c8c2c4f0349bL'
I-697
I668
tbag7
(g8
g9
NtRp89
(I0
S'30ee165e7c20aac1a1352cb72e2ff4aaa9e55a50e6ff1799160029b31258db7102c01a04b088812d1a9d67915c3a36b67bb0daba9578077e62578dc4f20318637b7b8910e988ff3559ae1da6df449d578106d51L'
I-700
I666
tbag7
(g8
g9
NtRp90
(I1
S'cf91f4bd59b22ae8086c8a45a3a294987f49c38f88f0d50130ba836a8c0347ef9dc3ca9b5618ca32864aeb220a7dea9c8064b5da9dc70dfaaaee83fd41fbfd3196b531b5df557ecaa4e56b6741ab876142086bbL'
I-701
I668
tbag7
(g8
g9
NtRp91
(I1
S'6d39a3e234a629357eafab087c09d2a49e577a643203c75dece6b6532781257b29aef4e086ac6c7c1e449c06b7e2a4d8f803c2168a53c2736176c77085c185610c93eb6c0491cb86f69f971d890a92668c0cb8bL'
I-698
I667
tbag7
(g8
g9
NtRp92
(I1
S'2813a4c506da60baddbd3a0ff5b8eeafbe2565f506fa655b8e02bb88be64a3021a6c3de5a0cdf3ae930a69afec738989ffc3c14b7790bf0229d90644d40811d6a0bdcff512fb62c340989dcacbffab1b8223ed5L'
I-697
I666
tbag7
(g8
g9
NtRp93
(I0
S'26b125130df8ff0fe5ef6aea27d48c1508692d31e53a43629111399b13f7ad352d45a17b7f919e972e88c98d9815cb9df07e8a4edf6272bc6fa2cee528da9fe9d561c94523242f0e0af67e4d44daf7a6bf10e1dL'
I-697
I666
tbag7
(g8
g9
NtRp94
(I0
S'a25b770ee77121f7f417f2108f466ab420ee7c3fea7f457eab31ac3c2797f975fce8f00b4b23a1cd20f90828568c75088025a9dcaf83814db1286f3cb68d23a2d82be1fbc4087738936bd2b9aec3873de21bf71L'
I-699
I668
tbag7
(g8
g9
NtRp95
(I0
S'109148b3c60ad52d45ad8bf191ca5d2f64386ac28d43a8f3c47c4b77f25c4d16457f3d2505ea562629d7f2140a8800a96fbc0c239094498543d7e97c034538e7ebb9c6abfbef68dcf8b3622c24fdd33c130c97bL'
I-698
I665
tbag7
(g8
g9
NtRp96
(I0
S'3df096f36af352467408fc61bf77807de6da38e732b970e2307f1ac806ae831f7909d973a9764ba39f296b1cbf6c27c8b5593b29f696efb7d1ac29774d656192b12595abf11f1fed12640c3436767434f2300dfL'
I-697
I666
tbag7
(g8
g9
NtRp97
(I0
S'839cd54bc3e2d27a8234bc904fa78c80d11d1845b96d9ac1ddb3fb3c140ce097b184ab4feeffa3324dd3d1c9f541b6b37ac82d39ce16754d18668e204cfd18e896bc97c716316fd81ed752fe572dd2c61b9c72fL'
I-699
I668
tbag7
(g8
g9
NtRp98
(I0
S'ef4b5698a0f0efedc1f951bcfa0dd5cb32475b299f4100a7eb8c18bdddfe5864bf0af0efb73f13bda4ed66ab099cd12a26ba8b2fa75130013a95ba596027addab4f4f89c49b4a303ded632286d0a21208b34b5L'
I-695
I664
tbag7
(g8
g9
NtRp99
(I0
S'2838fa40b4cf96216800a5682f0cbec68715b6765ae46317bbbbced1605564eb46190898cac1ba3465a46f6252e5aa844da8e66b0dad97b0e06eed54930b861e020a27da94bfed56627ee4d603ce8e4d135dda1L'
I-698
I666
tbag7
(g8
g9
NtRp100
(I0
S'40eb74f01cfa7649f5e9b8064331710814827530a9276b088e634584ea1aef142cef754421e5e6194a81b012b3a0639f56344c2b57db2769165d8305199b204b31f59d969a4a72b66e0809b829030c04eb1a50bL'
I-696
I667
tbag7
(g8
g9
NtRp101
(I0
S'297442c5b3623ba00db385e7c861a639e485b61f7be55bd899cf7551d02114fb8fbc805a4d43f27685aad676dc1d2a97e8239b1b675efe7505e0e766c3897569a5113856d65032e55e908d96fb802b7ba01f44bL'
I-697
I666
tbag7
(g8
g9
NtRp102
(I0
S'1141c01b16bb73b1b9efa8b03e861ee110f3aa3d2ed920726191c3d30d956d4e2ccc1622d6fd37a69957fc03b167bb3c72268b25486efb53bf302cd77e29b995f9999f5329a32008e952a1cc7292d9d699e0b5L'
I-691
I661
tbag7
(g8
g9
NtRp103
(I0
S'4fd6848dd8a150a2aa98e857ca11d5a23e437d1215e1c5398a8b79256a0cb1e7193ae3a230ae183764465a161205f221ae761fa807ecffb02f4b37c68434ba898bf73557500961062411345bda08f12fd811893L'
I-699
I667
tbag7
(g8
g9
NtRp104
(I0
S'866e5de45e1c2e81a6fa7cdc1079caadc4ccf7576115086670b5a5d9e9530ea6cc0b5ede8296be1e1c5e22496d2933d41591f0df7f53279ad687ec8dac102187a90d72755cc115976cc1d0d341177e12ebc8cafL'
I-699
I668
tbag7
(g8
g9
NtRp105
(I1
S'804e71f8ed82ba6933574fc9fe8a6942f6c43366a7ded2bc20b0cb816b9824f67a98a4a73660db30617bad607b41e3221d4c6f3beac817f16e8132507e684169d18d7e9bf509bd52ceeb4e92e722b5a8b91459dL'
I-699
I668
tbag7
(g8
g9
NtRp106
(I0
S'648c3ed3defdba7a1fa64ffcdcc7bcee3f194f57a92c90ef3e78090ebc27956eabb71996f02d29c677ee3b367ec38ce5d6434011ac4ca19669d1f08ea6075e55d064c57a5f1e04e83eb43f425a6e94546749f41L'
I-699
I667
tbag7
(g8
g9
NtRp107
(I1
S'2f7ea4c0ad1a750d049d18f32681b01ea2f535fdba344f32d775757d6663f656d4f54a5313a410298348111c40a3ab9a83474e60e9b24f68022477715ef730a34098769e66b19a502d3a07fb182fd8522cbbc87L'
I-696
I666
tbag7
(g8
g9
NtRp108
(I1
S'36979960685a0995443f22308f8db7e5158cd1da5c0b2bb0c38df7b825af3f628f3f6c68bcf1387e0b7a590cdc4247c10c56bdb551d4ba212594be2ffc95fefba802b96028d2fc8397c1843af1e2b6946ec6efdL'
I-696
I666
tbag7
(g8
g9
NtRp109
(I0
S'a300f5fab7b2b98e083becec5f9153fbe16410b598cd4420d4a4310be53c475e0c7f5c8452ba3d7f39dcaebeb036455408b6d3bb5a04e644287af6fda91fc92926c15ed200ba16a4aefc2a5c04f1e8548713837L'
I-700
I668
tbag7
(g8
g9
NtRp110
(I1
S'80a774a9593231fd3a7f3b60cd0d93a64af66db4accfb0e163ea7910c8986c79eaf8f9eda05697ee42a5be4298165051aebfbff3550d5d5f4869d4e82baf1beffeb198997d3f514d712e14838d720b9b3d80d8dL'
I-697
I668
tbag7
(g8
g9
NtRp111
(I1
S'c6d69bcfd6b663c6364c26213eb08de6078a20c6ae9f1b5ed215f5f26506d15ecc5f2cff4c31d48c84bb46f3d0ffe661025046a05618e9377ac147cb32048e1f1c7c62a08c2c513ee9a25b321f859ef1fb3db57L'
I-699
I668
tbag7
(g8
g9
NtRp112
(I0
S'38ba98ce1aad64bcb9705d0094260de8cfc7ccf9a34afac8d5d2de2a66f5308eabd882fa111ab39157045c57fc8511bf97bff084ea7b59bbe6123268e9b48041d404c4af2402c5a552dc56a8a943b363feec17bL'
I-696
I666
tbag7
(g8
g9
NtRp113
(I0
S'30ee165e7c20aac1a1352cb72e2ff4aaa9e55a50e6ff1799160029b31258db7102c01a04b088812d1a9d67915c3a36b67bb0daba9578077e62578dc4f20318637b7b8910e988ff3559ae1da6df449d578106d51L'
I-700
I666
tbag7
(g8
g9
NtRp114
(I0
S'3a5e61acd4b5de56e202c3a9e070a053f142834e85bdae5c1acad0a2f2ccc549b04e87a2892f95addc8abbe4ca5892646e20444b7c2651b323a6bb7c12f282804ae71726f0e9728125ef45a88d83bc128111c6dL'
I-694
I666
tbag7
(g8
g9
NtRp115
(I0
S'468717ae07b25d62cbab684368522d2f1a3a102805fc30d1aa789f587c2a116ca8eae002d36333d4e16050e263b48bbd1ab7b1f156043aeecddc91bb2dd2dde36c6243b68d3ba2bc372f8682d71edc044bb2193L'
I-698
I667
tbag7
(g8
g9
NtRp116
(I1
S'c7e686a5a7946e31a88f2819b2830b11ce3e6438bc5ccd601ed926082bcc152f76f64ce263f8aaf5b0049583f0f466a1b1742e88fee0767b20a2f4eb136faa7a86f24ffd121cc9743133c33da134b5b798f3439L'
I-698
I668
tbag7
(g8
g9
NtRp117
(I0
S'ba10768eb5951cad28923a219b70370bc7be17807acc047561c5beb5114994ae7794c67bd2e0d07cabff4e6bf32bf3a004a02416932947fd3d1544faeaa9a729b5a56ec11c7263a47622b4c489c84aa884fe457L'
I-698
I668
tbag7
(g8
g9
NtRp118
(I0
S'95d89aa620592c9e8e7635e2a171d68594c0fa10c10b8586e628711f283adab134e9f13f1a83ca4c8b93ad888f107a8446f5e918a65b077efa456e02a1f235e3dfb404307e25c87c73ee074edddfb3933fee1fL'
I-694
I664
tbag7
(g8
g9
NtRp119
(I1
S'407485d581fe1afee64f4e1a4e0c27e6ece9c5f931a832c03d8e85bbeaf09a85717a9b1733654844fbd0706fb668adea37a071a767e5fc3a27a477476b46b306d97cee76eec7403dd6c4112244681a91db29823L'
I-697
I667
tbag7
(g8
g9
NtRp120
(I0
S'db0d6cbf7159148e2a9aab33e597073d4df540d1936c8cb28a354fdde9d09ed7131b7241e8709df042b04ad204bd6c900a27dd456df853c66b06473dfb76db051bedad95560dddd3c35ccab4a8945a97ee88aafL'
I-698
I668
tbag7
(g8
g9
NtRp121
(I0
S'62d25dc77e85d7d88f708ffc357b4df21fbf5ad07e4e5c814b2ef56135d53f9ef21e01b971cfbef2d0390422699a6b1dac5a5f8c7e45b7dce57debd680315a0efe65c28f51f6affdbb7b3f9c1c615b00941b589L'
I-696
I667
tbag7
(g8
g9
NtRp122
(I0
S'452de8de5b200c6a777023f83e397656112734894f546fe4dca41b1725f7f09af8ec3a94eb1e48ee6b3fcee48ffc0614b50a70e8307d5d4513bc224498d096d882281067e6c22cbe008c1dbd27a0391b3a79e2fL'
I-697
I667
tbag7
(g8
g9
NtRp123
(I1
S'd9d6ad93b7cd46acd62084eb9ea28ad05766e8a0cf956567f7adf5ac5abde5a4e1c8453900e6d71f170aeb6073fdc6eead260af04b0f28c38019cf540f1e2347d747d5ab06c3c273bd43d8030176db80e7fd63dL'
I-700
I668
tbag7
(g8
g9
NtRp124
(I0
S'f8d85ed29fd6e36a705184da3e182b6fc90bdb6e24ddbad3c1c66d1fed31d64926011a722bf1d59fda612dd6982ce2ac1f28fcda062a8a129813ed8baabb9c6a86a382f196a02e5c72b496d2251d38fed00893dL'
I-698
I668
tbag7
(g8
g9
NtRp125
(I1
S'881dc4c80294fdda69409d106bd05004c353861df13dccda93e913a04a3a7b91a6afa5132c80f37394ed4cb709ccffde0a27e3e3e655ba5820f517f9671b6571aa0413519e212a676ff0f5f71be2ed8f9138769L'
I-697
I668
tbag7
(g8
g9
NtRp126
(I0
S'99efdfe3b548b057f9b41a0b1832084890daa58b601abd6dfd275ac87ee7c10aa7211cf7662f9b6607775c896f4f32189b5e70d63c25c2c5146f45a8ff0d4b4b684313ad010224e6a503e9ff2774f0cb4bacf37L'
I-700
I668
tbag7
(g8
g9
NtRp127
(I0
S'9ed5a9838132a84b4672b8417655e98ef30a2ef340389466452af1d25ccd17caa1c5a3645499ce5f11a6d90a55291c6550c84b16c9fd8bb1594dc5c5452f63abbf0527f96f5368bfb09d181844387b250774d6dL'
I-698
I668
tbag7
(g8
g9
NtRp128
(I0
S'66709f6b94245a11e8346f4b0813758ab3c005e2c0f9db53ca0dc62c5d6bc081e7ea17f410158f632f65aa01040931f6fa1be66f065e981f8095f5a181872a7d67700e4881df9e2bdaf13526f59ad68a179d64fL'
I-698
I667
tbag7
(g8
g9
NtRp129
(I1
S'3432b7a5f42ae60d9a552ab0140834b3b26db28c0090c30a15e9ee8b09fc3a1b5339f4f53556b72960fb147da8b1b1c234c72f44140edcd77d2fb8e4b63d6b4bc67a6d2cfb068d64fdf934f0784af1ce92b4123L'
I-697
I666
tbag7
(g8
g9
NtRp130
(I0
S'26cf8f9cff410f8fd381ec6c1bcb88a1a6c9c1b93dc61ae259b72560b9e8c4a48999d9bb28935f134fbd30cf23f4f51e1c6532572e99755671370412982e03bf891c116c40def74c580a0058957442ed42480e7L'
I-695
I666
tbag7
(g8
g9
NtRp131
(I0
S'f4297c0a76d77116da219e6fc2d8920b5b8e1fb4e2f117347dd7caa594a50b02c91a27048a287d47f5d33d35afd787fdf54f28e48fd68a60010c09e2c1b0d33291f3b19ce6f825938e49f1aef01af6714f27079L'
I-701
I668
tbag7
(g8
g9
NtRp132
(I1
S'6a41cafac6f843453dcb7b44f2ade1147522bbefb62be8840edd25c7b319ab1a6b221d67db49a8adfe7a488ecd29f0e68a7fd1238e78504f80e9a717658b03a6bff29af92e995afa13c19ca38e0f18800917825L'
I-697
I667
tbag7
(g8
g9
NtRp133
(I0
S'cd47261b61738c7f0c773c0f3fbc83131559233803d309445e9be1eee5d688f5d8ebf316a63009a844c3d059e933d41835580f8c82f67875d26fadf9d7e6fe53297a795555e5773a018dcb0743e4fd9d14ec44dL'
I-697
I668
tbag7
(g8
g9
NtRp134
(I1
S'29c9114335df7f9e580a8c7bb2e1729f0cf210441b85708f6a62b293c8bb2a051119a9edf20db0b1b8deab1b7dcebe9b16e028f4c828bef563057def5cff681cea49d8ce6c0410cff40a86db52f3dcb34011eb9L'
I-696
I666
tbag7
(g8
g9
NtRp135
(I1
S'e81a0e05243f08743987822f0e9770d716dd0256fcde03f5fe5191031874b6d8dc009206d3f9e4258d120c8fcbc1f2e54a312d420aa47bc5618cc83a7982a45cc8caf706869a0fd9b4f96559443ffa5a5ae7665L'
I-698
I668
tbag7
(g8
g9
NtRp136
(I1
S'2c9a2b0aba462f4d32d19f6280eab0b80aef0b35711612865b3ca61ac1ec121611cc3f70e27c9cf80e5866cfb052f8f090d7b14c11e86f4e677cc2a31674441eb386c1d32618f1f89ca08420d7902f48cd312dbL'
I-696
I666
tbag7
(g8
g9
NtRp137
(I0
S'9ee93dd2ea4ab49e10e910a2d8ac27515f9bef7254486a3a9023a3ae276c99f18d055e0f9267d11d53081524fd70f909627a47b0e50888ce20cf281a1ad43797631605155841ba1e42212f9835102a37ef81ddbL'
I-702
I668
tbag7
(g8
g9
NtRp138
(I1
S'cf91f4bd59b22ae8086c8a45a3a294987f49c38f88f0d50130ba836a8c0347ef9dc3ca9b5618ca32864aeb220a7dea9c8064b5da9dc70dfaaaee83fd41fbfd3196b531b5df557ecaa4e56b6741ab876142086bbL'
I-701
I668
tbag7
(g8
g9
NtRp139
(I0
S'468717ae07b25d62cbab684368522d2f1a3a102805fc30d1aa789f587c2a116ca8eae002d36333d4e16050e263b48bbd1ab7b1f156043aeecddc91bb2dd2dde36c6243b68d3ba2bc372f8682d71edc044bb2193L'
I-698
I667
tbag7
(g8
g9
NtRp140
(I0
S'37e4ec4c2c9a9df9375f8e7febc752cca5b304adb4d41de41b174eafb50d40e02e0f3eb62b4158de8a9f4017aab7e566c0f74274dbd937c66bcaa97c7726385ebbbe12ed58935b96583957736ddf75c1f91ad4fL'
I-694
I666
tbag7
(g8
g9
NtRp141
(I1
S'8f11de2e204803386e4c814e0e244467643f28f2ad8ae848a64b3d20a99bbfba2c38cf0bdd64d17341d50afee65e2cead2be22539485da48e013d62e0ac12cff2bfaa93c15a8163d933b94804abbb96ac11f5f3L'
I-701
I668
tbag7
(g8
g9
NtRp142
(I1
S'2f342346cf3ab3016edabd9f56543b177e0cd78e77525f72d536392128937b95f792f527d28166925291ee2d2bad17ab1d689606c4fbb1ca1d4a23b3290afed6d179dc243723c3bd919e8e95ad246b09e389db9L'
I-699
I666
tbag7
(g8
g9
NtRp143
(I0
S'4e8d54b4846faf82c8f3f300f3df1402dff085360cf1ccc9afbb52997c094f78b96819b63777d307c179fb3759d40034334aa176d4c02ff97440c253fdbc0be7884522d79957099e35e5eb27f7f37bae9613249L'
I-697
I667
tbag7
(g8
g9
NtRp144
(I0
S'69718b34d99bea42a531958f4f495d316b66a487a9b73612145c8fabb0c92bf3e47a8843dbbd213708f201cdb268772c86801339bba830c03d6f5f4d2de9f865ff899ffc5b8b8ee4d42ea6d7011a85225275655L'
I-697
I667
tbag7
(g8
g9
NtRp145
(I1
S'922ae94633baa5714443cb59cde6b8e971b37c9ecb7590d3ae4b35dea84b909f4fab326e94c3ab794cbbad56302f7ca730ff63438a8bc60178421d6753b68cc4a722802f4bce38c1ef02d91e2636e3649e8422dL'
I-697
I668
tbag7
(g8
g9
NtRp146
(I0
S'2ada5c3cfd1e6bb6872f60d3714ea414d707678d29e9012b08495308a915df33c9e0bb0cb833ec107fdd08de009015128fdd48f7bab47f673f0a1503678a3de6be3c906f1450ecf6671b8fa1711970ff7db9a8bL'
I-697
I666
tbag7
(g8
g9
NtRp147
(I0
S'1691a3d5bdcaf84138ee562880106a11dbe1340fe3e768fef8cecf2ca250a47185eb11222941f86866642510001908ce51c173c0aba69bbc4c9467477718c0a4976da7d141b4f4a65d3559c38458dbd40ae230bL'
I-697
I665
tbag7
(g8
g9
NtRp148
(I0
S'78a91c16a085798ae7ffb259d64d6d2449d3d647fce8a5e2ad68cc9d8a1acba7da347db2c6e9c1842e8ed6d71cc9895921e44a56436d71265a7918af8d1b255db699c43889806741c47d22e32a4d9a0b8dd55d5L'
I-700
I667
tbag7
(g8
g9
NtRp149
(I0
S'4a18a68c98746565ffc9ae06bad56d6d75af3e246528e374877425b3988dad2876b09ab070a3d0cf7a1dabd536a95a7783f926dfef4033b36fbfc4c7fd159da81d66450d35102f5e903023e30e22d51b09d4025L'
I-697
I667
tbag7
(g8
g9
NtRp150
(I0
S'512c6a6802292a5e01dfb77a02341b139704181344238deae552ced2c0bf7ff245c257d2985bd94f3fabe91876d8f199abff786cd43ffdc18f22bc250956aade2bdb55e6a897b93fec99d5857a047530e439b83L'
I-698
I667
tbag7
(g8
g9
NtRp151
(I1
S'4413de278a4ffe6a8483e78cf40a4336dbec2302126b46d48aecd6f180afa26c43888f7da7706e147a8f73bc7dc5b5b56a7ed98192deb971cded6ab98ee9d82d9fc838ed4bb6110ce5e6b4fca8e05a377163eebL'
I-697
I667
tbag7
(g8
g9
NtRp152
(I0
S'5b7408adaa4f5877879c9dec7c9bd2e292d0f5475fce166c40fecad1e8fdb2eb566534fbc8cbd7179b61be927e55412668b1f990a55266c6e50612af8735d30debd988d10a3a0481b6ebd4f3921db28bd800379L'
I-698
I667
tbag7
(g8
g9
NtRp153
(I0
S'447044a8f50c78b002b706f5175c3e321575f565ac5c70670bf321e17618fad3b06cb813eb2c41d68987b40e33bcd94dc4ce16a5b4fbea26540f749d7ee9f2737c1b808a3dd68ac52d29f0e3ef9f6a15d51cf1L'
I-693
I663
tbag7
(g8
g9
NtRp154
(I1
S'68f73c24abd4b1fe1e7cdfc2c99c9f1292a0e56fafd35c32cfbd941b36ffaf1a2f32b47684e5dd42e892bae496ed7100ac1c7f509bad829a8d7099f6363a29da0b113bc600b2cd8ebf1005423c01c115a771d1dL'
I-697
I667
tbag7
(g8
g9
NtRp155
(I0
S'd4fa057a0bc2ef6eca0b0bbe1f437ad243146a3cd28aded55e6dd35eee341cd7a0f8043aa6e58c3771f9738b5923f0be11b59433aa03815ff6071c8c7a8870dfe1e66490928810ec63221f3fcbfc272072823c5L'
I-698
I668
tbag7
(g8
g9
NtRp156
(I0
S'959baee230b7a5e67b7ffdd349343fb676031f75f22426c09e76cf1a8908f756da96fbbfb602d8fb8b0527a204ffe303e9258430d35a326b87359e83378784b89a70fdc748209ada0977ce688d7b8bbee45dbe9L'
I-698
I668
tbag7
(g8
g9
NtRp157
(I0
S'c98b15f67a5aa9bdc3ba71252e073daa25e8f14a557087037eeaa852e72342440820bb04467185532ca827aa90ee89400b3864b05857a44fe196920e68d9b3163ad44662d422e5442621ec4abd8160a5fb18dabL'
I-698
I668
tbag7
(g8
g9
NtRp158
(I0
S'1ae3abf87d4d3db3937f8f7fe6ca036cbd6d7e3d3ff6a4067ede44cb370e459799dd5dc6a87dbda2033c37b7d9a195ef229d7051b49719e1c1230c13b074d12a5b52d00728c74712fdfad6156aef9d1ab1732d3L'
I-696
I665
tbag7
(g8
g9
NtRp159
(I1
S'44d1bd173ea8217626385aa7f95e05da30c117e283e426bb8d36e0b9f17bd995a171561bf1d47595f6fcf31f8083c9722fa2e74758a3239f1e6555c7f009a06b2ad57ae4db70c717693cf33b9a97b5c15dd8a55L'
I-696
I667
tbag7
(g8
g9
NtRp160
(I0
S'22be12876f5bac07a8444efdffbe271f7545dca5d0f35aab506927631cc36b2ec1977102d999bf9bceeddbca4b2312238deb4a20d6fad15daf596ec958ec4eb8c7b77c55ddc5182e1a780a4c9b9c8ba46236499L'
I-695
I666
tbag7
(g8
g9
NtRp161
(I0
S'b7e01eeb61fae538e8e29faf5da71e1c957bee14e79f6968d9edd4a8eb34e9b5352cf26730571b45f2b0c00219596f3468e59586b94d9741f352d2de12ff55a418ea0ee92c6f9fede6011b106cea8fdf7b6f0dL'
I-696
I664
tbag7
(g8
g9
NtRp162
(I1
S'854c500d3b964cd22c220f0abad4eb22930cc09b3d2c5c41a94bebacd96292ca227de0f5d9a6eeff9be1de8f9289ce9c5f3b7ec31e6858eb1cead7f55cd387cd7d095e92c2d59adf62395df36499e8ef9a811ebL'
I-698
I668
tbag7
(g8
g9
NtRp163
(I1
S'6d39a3e234a629357eafab087c09d2a49e577a643203c75dece6b6532781257b29aef4e086ac6c7c1e449c06b7e2a4d8f803c2168a53c2736176c77085c185610c93eb6c0491cb86f69f971d890a92668c0cb8bL'
I-698
I667
tbag7
(g8
g9
NtRp164
(I1
S'c7e686a5a7946e31a88f2819b2830b11ce3e6438bc5ccd601ed926082bcc152f76f64ce263f8aaf5b0049583f0f466a1b1742e88fee0767b20a2f4eb136faa7a86f24ffd121cc9743133c33da134b5b798f3439L'
I-698
I668
tbag7
(g8
g9
NtRp165
(I1
S'8f11de2e204803386e4c814e0e244467643f28f2ad8ae848a64b3d20a99bbfba2c38cf0bdd64d17341d50afee65e2cead2be22539485da48e013d62e0ac12cff2bfaa93c15a8163d933b94804abbb96ac11f5f3L'
I-701
I668
tbag7
(g8
g9
NtRp166
(I0
S'721d6eebf6c7609640db19a284ac81fb4611f191de2ad96d9022752a3a0655c12ffeeac171b7fbfa3f3bd62e8d67647d105cd2051b2d75c02df18e9a73fe3367867afc4ddab1158469cad9699bfb382bb2f3889L'
I-695
I667
tbag7
(g8
g9
NtRp167
(I0
S'676a2a505d6d6e668215adc64905961f521c512c7d40a4a4bc4ab760460562ddb5a04b1bf80df260afbe774b9129c48fd7ab83f87fbb67912fd3392f378a939dfc23de4dd67074a9f33a4d40e8f68ac248dbb97L'
I-697
I667
tbag7
(g8
g9
NtRp168
(I0
S'c815771039dfd6338e6657d20aa6c2faa7f6a1adbafbeba05e2a2fdbfa911f86885cf23c1048e038a6cd8d3639f81166fd80d8f9c9d7ccb5dcceebc8d00ec593c4f0e8b05b91eece37fc49836af9875c19180afL'
I-699
I668
tbag7
(g8
g9
NtRp169
(I0
S'f35948631e2ceb94948b9653413572a1c1fcc8f1b62160e3d930554c27c7359dc88d2328da3e28e02dda6b91f80288c5ce1a254d76e763478f9834a47a9488f6e4e37a4d28e4282f1d0e183b777a7c78c7a4c59L'
I-698
I668
tbag7
(g8
g9
NtRp170
(I1
S'9800dcfbd1277de887e089c7ffde80caca938de013c682cb5dc4dabc6ffede8999a555aca010ed09a1dd44f8279af20f17716a1a562f3bdc54407f78ec47b67d8582925c3fd2b69c702b9c563372ae79116152bL'
I-698
I668
tbag7
(g8
g9
NtRp171
(I1
S'10b45ee03ab41d02d0f4d30eb65bf0ceb744022bcd36365487e81126bb67f698defa5c9a4902c392cad2ee731e294e61d74ae421e17ff9fe3ffa5f4ae6209a9d9444ab610c3a99a6da6adef5767027470f93ebL'
I-690
I661
tbag7
(g8
g9
NtRp172
(I1
S'39f4ec6d9748e83202a51006b2da5db4b3ef4a4f1c7a04711668d4ffba1193ef2ff6e2f717183e69fa726951a4200bdb1205458882f8c88b987d852bd2c314063bf025c7c89e92593fc0a7cc55bda6dcaab0023L'
I-696
I666
tbag7
(g8
g9
NtRp173
(I0
S'315b26ed6c62b832334ebb8ceb3cde0b21d8d7b35732007c25ff16d91c2236ba874e5b915a1a2b848e6bce0617e5c8ebaea50eb8c51776027572b59566a3f059eee663aec0b2ccb4bd6ce2a2e3d1f70d6b7a981L'
I-700
I666
tbag7
(g8
g9
NtRp174
(I1
S'1a55b59dd02b881e015e8b29edce7b0e0bcdff383f52517227a6142f3251ab64bcf8d4a234208bdf4484de863f4410e1d850a189ecb25b8c42aea46df7e6918bd080a97f7ec3ec307d29bd51b85af21d6441331L'
I-696
I665
tbag7
(g8
g9
NtRp175
(I1
S'16829130e27fc04b88e7ca67b53f98e771018fa15d365d3a70fce65638e088d81ab8dec4dbb7dd19db9d2a4d50058f12df3e637ff5ecb23e54b10ab64435bac679eb744388997465d6a5f2902f8d10e9d24fe5fL'
I-696
I665
tbag7
(g8
g9
NtRp176
(I0
S'136c67911b49f352212c29aa3acc57be17e95a0dceac63043702f19f788061afd2bc4f5a159b6ddc6a2259de7bd7f6f257a6b14792bbe138498b5bdf05d6b90a4af4bb20cea7f90004b427011b58f21953f43c1L'
I-697
I665
tbag7
(g8
g9
NtRp177
(I1
S'ac96cf0d838b3fd21af6a409f70382bb5abc5b672e10b3c67b8cfb06c7844431e6b6d5bb891148b03752a5d9967e377cfd3e16ec0685163f6a5898f227e258d95ade3ec19e3441f5e82c9263f66da1733e0d61fL'
I-698
I668
tbag7
(g8
g9
NtRp178
(I1
S'ac679d75e85a8e68254b17ca963e8adf3a445fc615d1212946bdd5659f000b5f4eba56dc7f9b67ba197fd4bba16cf57a4ab4d6a8269b465fd4d15d9bd936141897af16326338d5eac81082f9967b88cb555c329L'
I-697
I668
tbag7
(g8
g9
NtRp179
(I1
S'81bbe531e93b418eef4902243dec92d2319a78428b814e6ad9bfa6dfc3eb50f89cd0d39be8a2066d1808db70e9c29b9223605403a706b9cf96abc95317d5b596850d1c9c61e3fc8db85174203c0b0eabe3cdd3fL'
I-697
I668
tbag7
(g8
g9
NtRp180
(I1
S'fb34f6130ec2fa17790e644e081d87d748167991ec3653d5bb12d0c88c46dcdc736233bda2f5958372f6160fe34590c8eaa8e08070e12486fde99b366d5c5fbbad257fbe0111cb4b498253e0d8a858521a556c5L'
I-698
I668
tbag7
(g8
g9
NtRp181
(I0
S'43248803816aea9edd97a1540d555ebfbcda1deb6489c3e10b71db0c7083b8383e58eb2fbf01f145df8d461197c1103fbb9864bd5280e50f4ab28b2a61ad3b1ef3f0887f4aa420bebf8ba365effaa7147cdd155L'
I-699
I667
tbag7
(g8
g9
NtRp182
(I1
S'601a44254c94d4bb55e89eb8539e903bb98657ff4804e266357bfb30043b83bbb30c13bb59acb6b608fe852406ad585975fcbdaa99a423a1ddf9d4c757745df6c537ca06682b3ca2d0e35400b193448f7b06cf3L'
I-699
I667
tbag7
(g8
g9
NtRp183
(I1
S'943cfaadbd0c1e43ee6ce9577482bb1b4dcd0dc257616b5a6ce55c9641214e771a69e6f2b9ef940414846557e0082b59d02dbe3c11aedce909f3ee70bb6750f3a88f7d383cae66a728869b03526c4cd61394995L'
I-697
I668
tbag7
(g8
g9
NtRp184
(I0
S'da5a2941339c538681089806ef38af2815a7c0ffba1f180b2a8b353700f8504b00f1db2127c66f9f6f476a0bf383520deea82820104de0183a2cefc1e96d2acfe4c409d58c19f2b08befa4b3cdebde9b8adb513L'
I-698
I668
tbag7
(g8
g9
NtRp185
(I1
S'1638a3ae7e54cef6159478422007c8df344ee7e9883f9c83b2447f4118a697f2948089a11f8db5c7eb524486cc718f1156fe6117e35bf09058a9b571be38c32a55d6eaf0009f31e14f285c1e77359a1076107d7L'
I-695
I665
tbag7
(g8
g9
NtRp186
(I0
S'ae39488f9f34728a8967fca49f1866ccebd2f80d63f4f260660bb40c0996960c13a79af715015d4978bfc86d236186cca1d4be18751f44b36af37b60dd6174667114fb8200afa6b3c00ccc1adfd45e700907751L'
I-699
I668
tbag7
(g8
g9
NtRp187
(I1
S'1fb2beafab75812e779e071fec0b0fbee22e5bd839454d9a2f94434ef947a03ea1b342deac290d9c2c282aea962504799360f1804083fc67e589d70e81db422ed8d8549e3d789796f53764f1aca15625538d527L'
I-698
I665
tbag7
(g8
g9
NtRp188
(I1
S'2813a4c506da60baddbd3a0ff5b8eeafbe2565f506fa655b8e02bb88be64a3021a6c3de5a0cdf3ae930a69afec738989ffc3c14b7790bf0229d90644d40811d6a0bdcff512fb62c340989dcacbffab1b8223ed5L'
I-697
I666
tbag7
(g8
g9
NtRp189
(I0
S'ba10768eb5951cad28923a219b70370bc7be17807acc047561c5beb5114994ae7794c67bd2e0d07cabff4e6bf32bf3a004a02416932947fd3d1544faeaa9a729b5a56ec11c7263a47622b4c489c84aa884fe457L'
I-698
I668
tbag7
(g8
g9
NtRp190
(I1
S'2f342346cf3ab3016edabd9f56543b177e0cd78e77525f72d536392128937b95f792f527d28166925291ee2d2bad17ab1d689606c4fbb1ca1d4a23b3290afed6d179dc243723c3bd919e8e95ad246b09e389db9L'
I-699
I666
tbag7
(g8
g9
NtRp191
(I0
S'676a2a505d6d6e668215adc64905961f521c512c7d40a4a4bc4ab760460562ddb5a04b1bf80df260afbe774b9129c48fd7ab83f87fbb67912fd3392f378a939dfc23de4dd67074a9f33a4d40e8f68ac248dbb97L'
I-697
I667
tbag7
(g8
g9
NtRp192
(I0
S'9c7318e3c82e43827bb75915511db99f74ed2432834ce9289ef9357615de1da21b91f7e4c075ab59851cbee21b11a8cdb9067a47daa3ccba8d8de710f1f3f0ffcd16eff011b34b4b6fe89b46cc6bac1c7f7a81dL'
I-696
I668
tbag7
(g8
g9
NtRp193
(I1
S'74d55d0bb2a68501b9b8378acf9f3f0ceef842e260d9fa12cc0c0740ffa442d5df0c68fafaf0191529f00805823a2beda851bafd649ef4e801ed144f7b70bba722a310a14a89c32c3b0aafb44edda4daa5fd053L'
I-700
I667
tbag7
(g8
g9
NtRp194
(I0
S'1ccea1ed01c093c133a669e9db891b94574ca4a3424b315fe326ca56bf8d3eaba9bff99ec6a12fcaf98cddfa873c92ffe332dd99d1fb6684ad77839b2bc99ba148d56fbd0565ee49b7c88f55f5bba353905ce17L'
I-696
I665
tbag7
(g8
g9
NtRp195
(I0
S'c1964c273cbe1ded148fc1f94f3c6a5df058023bbb001cee1d1747470fb150820e394ee5d923b44c2817c2cf34ec24eccc0a0419515c749636115c8a71470c1fa3717e2bd247dadb941a6db3eadc1c495dba365L'
I-698
I668
tbag7
(g8
g9
NtRp196
(I0
S'2cb53a4cb7fd8789f25026cba65bbb7f1bac1bf615fde8273677919e3b03ce94082be87d8b9c68b6d2968ad5046787e6908ccac2f649eda68644264fa33dfa50497484e4a7d5d90e8846e8abc82c406ba3a9eedL'
I-698
I666
tbag7
(g8
g9
NtRp197
(I1
S'2a3c42f5fb3dcec57faa6e3d17656233f2093f40c5938c8f91609c51b9e67b97e756c528869e0cc3777497c21b5c3fca620dc6ee45ab7211271cbb26eaf314476ddc40145cfb99986ab839f79ee4ba4c2d4cf81L'
I-696
I666
tbag7
(g8
g9
NtRp198
(I0
S'7cd0c3bea5b602b242d4f30f04c5789809492e876b7ba53d67a44c63d0d9cd0c79e205240d6155c785aadc521bf38bf5a800b467efdbc58ea77aa04c2b2953579145c632adb2493c00182998ae002e291f1a83dL'
I-700
I667
tbag7
(g8
g9
NtRp199
(I0
S'af2cbfb9583b9d500785b1fd8e71cfc017b43a86ab919375cab735a44c871bb0f84d8f311c96da3b5ee94839fc14863e52f8d48a61eadc88edb4b611c06a8b754c36c96487ec71af8a2a813c0354d522058b5e5L'
I-698
I668
tbag7
(g8
g9
NtRp200
(I1
S'52549237a9c85c13a5f246adf62f431d779428eb6fb61ba1d72cae8d06c527ea126f84cc9ffb10476d7c2886daca86cd6eabc95a90c2703558ee354e5b207a5829cf8ab29a5f3127c5d42247f5b6ce39f33bedfL'
I-698
I667
tbag7
(g8
g9
NtRp201
(I0
S'1e2f558be6a257ceb04ef13a743f9d2cd3420d519cf10ff222d35e5922743035257354784f1d21c5d478e97f7370ae98ee3b2165e639902519b3bb317a3fafec165c0aaa2b7703840d9a8da777b4909b84ff289L'
I-699
I665
tbag7
(g8
g9
NtRp202
(I1
S'55a75a465b21a5dfab4e5f210526500d8160c61c4ed8f0fe598c04473d11ace79067e579f9f8af4639c1b4cef2beb14eef0d8f973035d99a94123066b83792e2c94baac09988483e8a25f59e9c55915dc105fd3L'
I-697
I667
tbag7
(g8
g9
NtRp203
(I0
S'4a8a0f35f5c4701a69d195c2b4fef7576e18d9c44ac61e875f2ee5d14bf2e4733a1e731ee87e845f139b0b75e06a3c0f70f4428a5ebc64d6e1cffbf2c2d37b12aefb6e801ad04429dfda63cc70285ec59698fe5L'
I-700
I667
tbag7
(g8
g9
NtRp204
(I1
S'4ba4452d8ccd35c72d83c92631538fcb125f54fc3764b635cf27139380dffe728235e05c14c6620ee3baf25cfc2386cdc880d272e34cd47f8d67b9256041a8684fb66b51e9d5dd8cec7c057ed28947f91290dbdL'
I-698
I667
tbag7
(g8
g9
NtRp205
(I1
S'984d90b0c7269880ed9aa580e06fc712a2686b638b9b9026014ef249764143a2d68c061563e0e18b9db3a422e9da8dac568d394efd93e67ef9cec3ded397b16cfb1e51e4c911e20ebbe9f0bb805d704730a5dcdL'
I-698
I668
tbag7
(g8
g9
NtRp206
(I0
S'79845c5316205979f2aaa80c3f6193d2ad8f09e95c67b5da7a492daced1b9d60e0b7d1e2c840cd314af3ffe8a989585caba88c207f22df96aa136f2a141cbfd943e2892e7683788dd1807a278874325ad91b6ffL'
I-698
I667
tbag7
(g8
g9
NtRp207
(I1
S'85fc61b6238576b403ac1cac9f23abd0a1ea6786cb7ffb78852ef4f84ebffffb9d2ff0929c211e470e53bc298195a50383bc18add71eb039f65bc207afe7612e67686a794d93bacf5b3810c635521088cc1d877L'
I-698
I668
tbag7
(g8
g9
NtRp208
(I1
S'a4bd78a8bcbc436d4afa16383b43a8e4c0d764ef2019ff2207974bc07be9ffe28725cf52071231d3652625c6079c3102988c839660cde19b934cb139af45efcd848cb3ebd362ec6fc7b12bda01a309f3697f099L'
I-699
I668
tbag7
(g8
g9
NtRp209
(I0
S'548f387dab597d6e391542d2da08b1249f67eb605270627248f750469133a1927346a6a6178f4558cf3ffb21794b7ef57cc85942c1b37a6fdf0ed0044dac36fe7a7872665c4e51bfd2d80a02adef63eed9c788fL'
I-696
I667
tbag7
(g8
g9
NtRp210
(I1
S'b885633146be93eb0799230a0d7554d3e9c1b9fc74ec81e590407d95eeff39009278d7c68640081f11458adae5a4496f0a41bdce2bbcd3db78ad1a63b773755ee0f34524831e1238147f5b95fdc55ba6e1a06bL'
I-696
I664
tbag7
(g8
g9
NtRp211
(I1
S'4c6129ed017cd9b9f3525c4ed048747c212f2fc8c5691687383973afbdd4b3c03918af2061a5a5fda50b1c1574aa12d2ea7d25bc45fb65c6ec681e00475cef7d7cdf469aabd52f194186b88e0ed56f458daf9c9L'
I-698
I667
tbag7
(g8
g9
NtRp212
(I0
S'88dd2673303623e1e33ca3be86d1fbfce962bdd72a34a9d86f9b487cc92e7fa6e6a7c252e1cf5adf9e64c0002996a99f38c499707c0a0a370b49dedf07bf2e8271cb359e81fcc9cf9853256bde882c93e40559fL'
I-698
I668
tbag7
(g8
g9
NtRp213
(I0
S'26b125130df8ff0fe5ef6aea27d48c1508692d31e53a43629111399b13f7ad352d45a17b7f919e972e88c98d9815cb9df07e8a4edf6272bc6fa2cee528da9fe9d561c94523242f0e0af67e4d44daf7a6bf10e1dL'
I-697
I666
tbag7
(g8
g9
NtRp214
(I0
S'95d89aa620592c9e8e7635e2a171d68594c0fa10c10b8586e628711f283adab134e9f13f1a83ca4c8b93ad888f107a8446f5e918a65b077efa456e02a1f235e3dfb404307e25c87c73ee074edddfb3933fee1fL'
I-694
I664
tbag7
(g8
g9
NtRp215
(I0
S'4e8d54b4846faf82c8f3f300f3df1402dff085360cf1ccc9afbb52997c094f78b96819b63777d307c179fb3759d40034334aa176d4c02ff97440c253fdbc0be7884522d79957099e35e5eb27f7f37bae9613249L'
I-697
I667
tbag7
(g8
g9
NtRp216
(I0
S'c815771039dfd6338e6657d20aa6c2faa7f6a1adbafbeba05e2a2fdbfa911f86885cf23c1048e038a6cd8d3639f81166fd80d8f9c9d7ccb5dcceebc8d00ec593c4f0e8b05b91eece37fc49836af9875c19180afL'
I-699
I668
tbag7
(g8
g9
NtRp217
(I1
S'74d55d0bb2a68501b9b8378acf9f3f0ceef842e260d9fa12cc0c0740ffa442d5df0c68fafaf0191529f00805823a2beda851bafd649ef4e801ed144f7b70bba722a310a14a89c32c3b0aafb44edda4daa5fd053L'
I-700
I667
tbag7
(g8
g9
NtRp218
(I0
S'4793e3cd3b994a4d4058a1536adc9bd105bb48dbef723d9d9fa8247f1b8787f933e2826779f9dbd54d874dae49d7525ce8cbca85429f9872778069bad2ad249d4d1d4d16a0c2e7c61b5b490b35874e92003f8ebL'
I-695
I667
tbag7
(g8
g9
NtRp219
(I1
S'29dd47152239cf81932cb78ec749be08995eb12e86f6a526f02eff447b87b2be99144f028e62e6d57b15f33027cc625fb9311bcad5c1868c4a5afffd39fea8298e1cfd7c76271e0eb073e651df5007c438b27f5L'
I-699
I666
tbag7
(g8
g9
NtRp220
(I0
S'2a64ab648a06844747d086ed5830aa0184354c08374496dd5ec12cefc0e6831ff51234af2e6c3b5b008cbd8414eaa53fa3cac8e927338661d622bc37b0b9c75d8ca7bc2278cc79b68cb3315401f2433b4d1cdf5L'
I-698
I666
tbag7
(g8
g9
NtRp221
(I1
S'afc38d4c7fa958fa3e0b109cea79893e3c5d07663d1ff958c6a65139c6317b35e94047e004a22d751d9122ddd73f318d38f770878c38d6021214ca8cb4f218529b046f1c973a77bdbcbb76daafb5ec042f45141L'
I-699
I668
tbag7
(g8
g9
NtRp222
(I0
S'af5218e731d80547a31e2b9fcd7b5f4f29b99843872ad6fb32ebebefb6ec5d8cdc89a21d4b75a7e34d3584498cb6e5061a2788d0c0636ca60506ea8f5d44dd532e639401d64730a3fd9290ecfb6d43cef41698bL'
I-698
I668
tbag7
(g8
g9
NtRp223
(I1
S'996ed5bc523fdcee3e237cbd42ba9be15b867a3d740798971b1cbda6f29d8fdab04043e8aad18a958dbe26a1f202d308dd0bc4e9f8f32c63558b32e1330e822d499b2e5ee05f9f055d190964cdddbc627550f69L'
I-701
I668
tbag7
(g8
g9
NtRp224
(I1
S'6e43a4f9879dc194a0e746ea635bd8d054aaffb30419551ba413568e683e7c0c25cf42fc2df7fa5b930fe6ef7084e42281cfa26289ef0e74dea821fe4665e68153370eadeb60ab67af921bdf59943689421cd31L'
I-697
I667
tbag7
(g8
g9
NtRp225
(I1
S'7852f967dc0bf143c7a9e2c9895faabf8835badf17e0d05ec1b8ccf7165aa00080f0129ba1a4d8706ccc5d01810cdcea861a1cef5680b0a4f79786e81803bc18814e6851088acd8d8fc8af8d1e02a9ab5c0d087L'
I-699
I667
tbag7
(g8
g9
NtRp226
(I1
S'1c62f7c5442885f6125a66242de211a64a2be12dd11e98c7c8f77f5d977f80abd19b1f2f112f202b7fd3bdce33f5e14d6a7ddf0e4fac9d5326dd46a57504c2acd9520679e9de51b00705cc90ebcee6639dc246dL'
I-696
I665
tbag7
(g8
g9
NtRp227
(I0
S'6d04365c6fd1de770348099b027ff677acc5de2a791b712869c2353905f9ed2fe790624e94b06073f425db64229784eabfbe8a617656d7d4e94b4cf785a862d8eca25abfc42304a47972cdf941aaee0374a1dbL'
I-694
I663
tbag7
(g8
g9
NtRp228
(I0
S'864751ddee54418f7d6affc807d491ec20a60324c04f346fdacd6583fe15c889e747000a0e67bccc5e676b8203af30964cb2d2c77da26dc40cf9ce92547e640c10705c60e703b34854ad5d333ed833a25dc34d3L'
I-699
I668
tbag7
(g8
g9
NtRp229
(I1
S'8ffc4d745f9026f96d38a20d165b42e22488f6d2b774a79da02a4b0c60f871094ffcc30935403f4694b2f75dfb81a6091db7f380fdb980aed0dd4d8790e504c3797004f7e22b03a432c1895cf9b36da454ec707L'
I-699
I668
tbag7
(g8
g9
NtRp230
(I1
S'2ed59ad38466811b9e1b0902cd06fb967469f6cafa5e07e66711571522dda821830a098a3ab28bca8d23ffc5dfc4e292cb32944585c295ff1a410d81432000fea71853afa72b5ef0d3b1b39c6c08a78140827b7L'
I-698
I666
tbag7
(g8
g9
NtRp231
(I0
S'60e81e6ce5261058430f9408039f80510d6006222ce5f29d4ba14a9fa9d6892631ea0cdab9894c11882bc9f1b82b58888f58cff294b521c629b2171fae8555ae56cb1b6191d2e48a72af8c09ba609d72922af6fL'
I-697
I667
tbag7
(g8
g9
NtRp232
(I1
S'3d4cbea38494202c6edd5b6cce0511b53267e7067f69ae9c09d666af7e2e17313f6f5f2c937aacb48328fc1d9046609054de84a33fb8cd4722dac5fbb3800aeb8ad1f57343f2e2af02a623ff07461b54f768fb5L'
I-697
I666
tbag7
(g8
g9
NtRp233
(I0
S'b819d73b5513f8f3dd3a51b06d722a4524556604911f3d591545265296898e7b9b2caa8700fe14d65f2ecf45d7db0194b14c9a06ca3d06cd8bfcaecbc2eafc38b43826aacb8377b6c81422c6299466a671ea539L'
I-703
I668
tbag7
(g8
g9
NtRp234
(I1
S'60290766a23f31da161e8925b577aa76ed5a877cc5da298c43ec3357394f4a0008be0cc6d9337dc62ea65439cd40391942e54f63b4eb11a55619eea599e08d33652a6952137c1d9bdd2a4b921bdf02e1fa415fL'
I-697
I663
tbag7
(g8
g9
NtRp235
(I0
S'e0eaf33d22293ee7a72d5456c6a6e2353897ad068c8e24d7dce4860f0d8381bca6a9adbf7d08f51e8d0ceb55c8d72e37899e09cf713aecca0edbc41ba161e14b7955775429984989c5168acba56ec504cce91e9L'
I-699
I668
tbag7
(g8
g9
NtRp236
(I1
S'7955d1758e70c876b163f0451e0deffc0b0d66352684fdca74a4dd8d4e29a45d9a1d454ac648ae4d78551b93abb14ea0be308c8e2c52b9a494a1bda81328c2bb24fd43092bed5a0d9136e597b85fb55b125a2c3L'
I-698
I667
tbag7
(g8
g9
NtRp237
(I1
S'e29f2c37495ea447b9bad696e2d0df136ee82afcff3532b764d705a5b04e34f0b59aba33d076b2b4b2397aed679ef4d01bfd1631034f39dc66332c5910b81b2d96489822261bd3e51606657ae0fc131a33711e7L'
I-698
I668
tbag7
(g8
g9
NtRp238
(I0
S'a25b770ee77121f7f417f2108f466ab420ee7c3fea7f457eab31ac3c2797f975fce8f00b4b23a1cd20f90828568c75088025a9dcaf83814db1286f3cb68d23a2d82be1fbc4087738936bd2b9aec3873de21bf71L'
I-699
I668
tbag7
(g8
g9
NtRp239
(I1
S'407485d581fe1afee64f4e1a4e0c27e6ece9c5f931a832c03d8e85bbeaf09a85717a9b1733654844fbd0706fb668adea37a071a767e5fc3a27a477476b46b306d97cee76eec7403dd6c4112244681a91db29823L'
I-697
I667
tbag7
(g8
g9
NtRp240
(I0
S'69718b34d99bea42a531958f4f495d316b66a487a9b73612145c8fabb0c92bf3e47a8843dbbd213708f201cdb268772c86801339bba830c03d6f5f4d2de9f865ff899ffc5b8b8ee4d42ea6d7011a85225275655L'
I-697
I667
tbag7
(g8
g9
NtRp241
(I0
S'f35948631e2ceb94948b9653413572a1c1fcc8f1b62160e3d930554c27c7359dc88d2328da3e28e02dda6b91f80288c5ce1a254d76e763478f9834a47a9488f6e4e37a4d28e4282f1d0e183b777a7c78c7a4c59L'
I-698
I668
tbag7
(g8
g9
NtRp242
(I0
S'1ccea1ed01c093c133a669e9db891b94574ca4a3424b315fe326ca56bf8d3eaba9bff99ec6a12fcaf98cddfa873c92ffe332dd99d1fb6684ad77839b2bc99ba148d56fbd0565ee49b7c88f55f5bba353905ce17L'
I-696
I665
tbag7
(g8
g9
NtRp243
(I1
S'29dd47152239cf81932cb78ec749be08995eb12e86f6a526f02eff447b87b2be99144f028e62e6d57b15f33027cc625fb9311bcad5c1868c4a5afffd39fea8298e1cfd7c76271e0eb073e651df5007c438b27f5L'
I-699
I666
tbag7
(g8
g9
NtRp244
(I0
S'5979b8b41cf7aac3cbdec73c1d954be33974d1c5f607e82b492f3d4be06c922f0185183828305aa8e615cc21d0194fe21c9699751d7e2e1effee34ea04db17b7ab8507afcf36bea61fe83682e8426731f4ca17fL'
I-695
I667
tbag7
(g8
g9
NtRp245
(I1
S'3bcd7c32f509377e56c924a8583db3900d7124161d860e24d9fb9f721b2fd087320e312496038540987c670c0a13f996b2b2b742d9c0ca11f5921aaff804fcd9fb9c53e0db8901e446328b61197537cc756c0c9L'
I-698
I666
tbag7
(g8
g9
NtRp246
(I0
S'2f9f208477be3f2d826d1dc95b03eda202b242ec799de4e149b6e7d6f347301a1ca9a8e61067f1d39c2c64644576d55e8bb2d435a318ae17f189e3cf910ce8177522989b8f36f09dee1326b2b4aa94d3e7727b1L'
I-698
I666
tbag7
(g8
g9
NtRp247
(I1
S'3a290f65988b10f7a4d35ff9165d075ad1cc276545aa8cbc552f915ed999b7af659c4dfdce9c66715fa6ad1bbb0bdb96968ebd68dd2252b2f3677bd0bb5a71919df6124de8de24d09576ef23e78e863ade8f81bL'
I-696
I666
tbag7
(g8
g9
NtRp248
(I0
S'9352d27920237e1fe134c50165fc04c3cda89b37e5dffc544889f15707eb45de35b11565954f62f6578c3247f7bf7e5405caca0ff7a3ec7dd334fa489eeb3f43b5fbb800f2cc7282a8f8ed0d7baf4e6dae967a5L'
I-699
I668
tbag7
(g8
g9
NtRp249
(I0
S'd399ba5ebcfb0a12a417d405f146ea7d9de2b0dae83f211596431ce7279d2e0976a8eb0c424a2f34b104f124b2e57da467e840591f18f4f0eb6a0e1eb40204281de6086d77ed26632afeb217fd8703b7f2daddfL'
I-699
I668
tbag7
(g8
g9
NtRp250
(I0
S'518f071a9db03e41e1e7e877fcae89fbdbfc3de3042d39bf59cdeaf2ad76c197e24aea40166932ca920eab5e2823f7d1765a3ad797faeeef0382dcad47e82e3da3c90988b5d5c0414a9cfcbced006ee3358cef9L'
I-696
I667
tbag7
(g8
g9
NtRp251
(I0
S'24159e980be3640bd004e41cb280f3dadcd7ecc3d89e4f07b7356655cef21d6bc82173accac310087e72a8309ff79c46c07278e45174b53bbd7b376d10cb1bdee2f78c9c26de93c6415b32451c68888b2869ef9L'
I-698
I666
tbag7
(g8
g9
NtRp252
(I1
S'd9f0a286804f6bac2bae89f212288787c18afbcdaba8d38dd576c178665146f07f4b649f1bd0ab9756831d46f34ef7f1249ac723c6fefad87cfbb67a960f24ad04c763d2abb1faad504a53ef2007bdcea67c907L'
I-699
I668
tbag7
(g8
g9
NtRp253
(I0
S'f7361dc92fc349aabec4549bf38161b49b114c0dcdeb85ebb0ba0aebbf2a875de64f51787cc0f00bf8808677e2fa47cb495f9afcb145b1e5645a20056f87eae8d2be14f2a82c78f5f74129e8ff6fa7947288dL'
I-690
I660
tbag7
(g8
g9
NtRp254
(I1
S'670ae2d3098caeca1f979820084580f4dd821c656a8b8c3c3e2d5eedd16c3fcd2892c006d800661a518b0d03d7b641443e077a69321332c7cab760db70b80ca7381e46c627957ecf57ceabcffe614d120fc1059L'
I-697
I667
tbag7
(g8
g9
NtRp255
(I1
S'a1565eb177fb5c7ab945fdf0849dddcd8aee2d0ac1fcc31b4f883240ceed65484b3a6807b992e4e8e9628192b26b7961b28a3194bb70b6dc4f20e4944a35eb1e469655f7e9096c657bb96d864448dad87ed463L'
I-694
I664
tbag7
(g8
g9
NtRp256
(I0
S'8a7aa0cc543b7383d44db4e20dfcd503bafdce9a4c305d765a2bada0c4cba6e3cccafeb06d88bff5c16713efea168d3a7f6e0b98b8b76ff3b57321c3a6a49dadc145ae3e86d5e1f31c8f1c2e8c4d75d05431f4dL'
I-700
I668
tbag7
(g8
g9
NtRp257
(I0
S'4c68badb7b6595b22cf25485d7d1f728bd4ae294288cb939ea52a19f86078e8224d948ab61afc5cdd9ec36955af96a132cc8603416f14ff48b210379298d0c26288b1e21943c4050bd74d236b02591467baeff3L'
I-697
I667
tbag7
(g8
g9
NtRp258
(I1
S'16313484eb322e53bc74ebd40a4f63a69083499b7b4eaf3824ebace51d795d62d4e167495134408832256a166d40cb2a4e90cdfd17bdf98edccdab66c647d09cf44d93fe9e08988e0348fbe683b8ce9d3253bfL'
I-691
I661
tbag7
(g8
g9
NtRp259
(I0
S'5c87490c85a73bb9154f168302eb3758ff812df16468db3bfabd7ebb637a28b50e497e15ae85dabcee300817f912a761fde48163ea5dd3c2135f718b624f4734a515cde2f65a412424dcaa41be69667002987f5L'
I-698
I667
tbag7
(g8
g9
NtRp260
(I0
S'2210e83329a1151216b972c062fe2109df051b7ec52fa717727669e5dec26bf9d1e5d472e574b1d7fe0da5e6afe06442d8f0fa37d9be444f4c76181713295809aadd1bdb4983b6b721618b385a5ae0a458dda01L'
I-698
I666
tbag7
(g8
g9
NtRp261
(I1
S'914735a1adf838dfe5d229ddd9f52e9cbad66b0cf376fc8110c898af582b5ad04889ad02aaab229b83b74ee5b999d522f5985b59cc80aec29a724cb18df8fb26c6610d392c803e7022ed728b3bb64923cdf9859L'
I-698
I668
tbag7
(g8
g9
NtRp262
(I1
S'aa386a37eff6092c0f88c7249b3113118c99608420633960499ba558e7d56122c0291adbc97c41116a63506b658b521a3422c285f3ac7ecbd2716e731b174d76ec0143cd7c67bbe8d69ddf86222b558177f5503L'
I-701
I668
tbag7
(g8
g9
NtRp263
(I0
S'109148b3c60ad52d45ad8bf191ca5d2f64386ac28d43a8f3c47c4b77f25c4d16457f3d2505ea562629d7f2140a8800a96fbc0c239094498543d7e97c034538e7ebb9c6abfbef68dcf8b3622c24fdd33c130c97bL'
I-698
I665
tbag7
(g8
g9
NtRp264
(I0
S'db0d6cbf7159148e2a9aab33e597073d4df540d1936c8cb28a354fdde9d09ed7131b7241e8709df042b04ad204bd6c900a27dd456df853c66b06473dfb76db051bedad95560dddd3c35ccab4a8945a97ee88aafL'
I-698
I668
tbag7
(g8
g9
NtRp265
(I1
S'922ae94633baa5714443cb59cde6b8e971b37c9ecb7590d3ae4b35dea84b909f4fab326e94c3ab794cbbad56302f7ca730ff63438a8bc60178421d6753b68cc4a722802f4bce38c1ef02d91e2636e3649e8422dL'
I-697
I668
tbag7
(g8
g9
NtRp266
(I1
S'9800dcfbd1277de887e089c7ffde80caca938de013c682cb5dc4dabc6ffede8999a555aca010ed09a1dd44f8279af20f17716a1a562f3bdc54407f78ec47b67d8582925c3fd2b69c702b9c563372ae79116152bL'
I-698
I668
tbag7
(g8
g9
NtRp267
(I0
S'c1964c273cbe1ded148fc1f94f3c6a5df058023bbb001cee1d1747470fb150820e394ee5d923b44c2817c2cf34ec24eccc0a0419515c749636115c8a71470c1fa3717e2bd247dadb941a6db3eadc1c495dba365L'
I-698
I668
tbag7
(g8
g9
NtRp268
(I0
S'2a64ab648a06844747d086ed5830aa0184354c08374496dd5ec12cefc0e6831ff51234af2e6c3b5b008cbd8414eaa53fa3cac8e927338661d622bc37b0b9c75d8ca7bc2278cc79b68cb3315401f2433b4d1cdf5L'
I-698
I666
tbag7
(g8
g9
NtRp269
(I1
S'3bcd7c32f509377e56c924a8583db3900d7124161d860e24d9fb9f721b2fd087320e312496038540987c670c0a13f996b2b2b742d9c0ca11f5921aaff804fcd9fb9c53e0db8901e446328b61197537cc756c0c9L'
I-698
I666
tbag7
(g8
g9
NtRp270
(I0
S'570c30082f01634156ae47651224e7c3e76518740e697895bb236d854d7d09ad96aaf9e3c44fcd3eaeeadad849e5b44871fbafe63a444401ec3dae24aea1e1873eee87a3b819ddbd8d41d65935dd061070dbf37L'
I-695
I667
tbag7
(g8
g9
NtRp271
(I0
S'ad16dc16acb3638694641ffa97f83d295f89c320bc032493b51b61f5d2352044fcafff33a3f55b9755f690a4f443a04707da5d6c64ccd74cfd710e9f1ccb3a12b056c067909961aa1251852521b87b3135d7e07L'
I-699
I668
tbag7
(g8
g9
NtRp272
(I0
S'2098a5de34b1908e2ab962fe5afa6a12e6d380ce75b914bb7a069161bacfba52e10090c5bdb94b980df393ae01f300c99e6868b5dbbb94da77a79c1757e70371cb63206e5f3c2ff5e2fdc3b84192e8df40b9a03L'
I-697
I666
tbag7
(g8
g9
NtRp273
(I0
S'ce96e2d41b106118883ce6d4ee4342b528a4df32a1caee6d22bab741c8340b8c51a9d754ff6b26499ab7dae99d4d8f8890307ea7257c77bb7916e83e4af081ba6f4594141c09a45b280c17a8ea3e25ebb8c19e1L'
I-702
I668
tbag7
(g8
g9
NtRp274
(I0
S'a239b2b132fba6a1fbe4a8287e4d59b0458589daa67fcab5c9c016d66ee5a92f72b4ad81521d56fec508a43a69b7d69a80b13480d776aac56d9e9fdc65686917ae4c892f57dc4881358549bf814889685f78ec3L'
I-698
I668
tbag7
(g8
g9
NtRp275
(I1
S'56206efd8f415b3ec7935dd181fe3259d553197f4e8deb075f22cb0d2d5924071458d82618061d0c23fa1d9a0a28e57450831171f3419bd7f27c02fa0705382fce172bd8a75fc38fff44b99b9ebd92c165208cbL'
I-696
I667
tbag7
(g8
g9
NtRp276
(I1
S'76f4c8df364e1bcfa460d1afe4630c6fa821bd1bce35bd0fefee084b06a551d9d7018ea4ce4351fca8e88f7941c0a0c987fa3716f1dfaf62b25de2279f4b30171a7eb97ebb0d62c898607bd888d9dbe514d1ec1L'
I-699
I667
tbag7
(g8
g9
NtRp277
(I0
S'87af08670bdaaf97e34eeb49350d9ed6793f2393b18278991cd9e650a9cc17f13351587baef00ac5b281d0aab2b3856463acb391eee76073637d7a3df5a0718a110f68c87f5fc9938d80734c5e39d8d64b41d8dL'
I-700
I668
tbag7
(g8
g9
NtRp278
(I0
S'9ef015539c4d2561dd1cdd0f3be76dfc1cad8ef7a6f9150426f685885fa9a728cc5f04cf4e3cf73d78f58fc64434f2ab61c38a557aa177a1e11a039e164bdb3226bc97fc219b30ef4ad4a78a656a9b2ca7ead97L'
I-698
I668
tbag7
(g8
g9
NtRp279
(I0
S'd0036938080ffe4bd32c11f49cff83f8e89679af52c5f47da2e97d5e415140cd0f1f85f6c9c4e2272df0af6099786958374db928c5d2195a42102d341a9880aee0a7360a3510a77ad7c662438aafa5249bc595fL'
I-699
I668
tbag7
(g8
g9
NtRp280
(I0
S'2b8ca0d30e880c0268d2e72106836ec1daaa2437ab05eb2429d5979833440f783544c448b57c78a7d3a8ceae8c421e61eaf73987eb2e9faa0eb5c50fa60eed808febc594d4f341b42f1bdc905c9c80e8493f9cfL'
I-696
I666
tbag7
(g8
g9
NtRp281
(I0
S'1926d4a0f716e3df4baf6ae0a039365b5e4a6eba5c429d70261b9ba3f2be22dc901187f59c82c8ca0ef8f8653a4a025a4d4fe048ecaeb9e4d705e44e75988b921fc8220bf28e672008910e2d36e866fed120441L'
I-701
I665
tbag7
(g8
g9
NtRp282
(I1
S'8c90c81664889c0f8a1a1f6739d5f4d6517ec643428e215979f0437cefd79655a9f740f98377db3bde63d89991850f06613f01d5ef6554bd0e2b66e0de764e38508b8d839de60316e2b7323138e7c4770d75cf7L'
I-697
I668
tbag7
(g8
g9
NtRp283
(I0
S'4633b302c3beba98d2624da73d52388776622b2af37ffbc4cbee533a232082033f69e846829adecf677abd707e596e574c1d1430b63eaccecbb383bda59d550c36bf4ede7a06abe6f2ea6f321f004a459c3abc5L'
I-699
I667
tbag7
(g8
g9
NtRp284
(I0
S'2b67ed91639203c165954a9a434a7829deb49e25241ec0a53a67ee46bacb31e69fafb8b227e7617672f8753d1093bbb0ea396d2e4fc1f347ebd95484333727efe9964398c82762b931c43cf21b4b73cdd5da6e3L'
I-697
I666
tbag7
(g8
g9
NtRp285
(I1
S'a22b302d016aad66becafa592e7b3235dac0d860919aad93dcde1e13e77e3bd6cd4f1309c174df820e44cfc6bc9d90ea06c2323fc437cc8003374e82a19d4cf5582eec71a61ba1191fd0e3110442a244022b761L'
I-701
I668
tbag7
(g8
g9
NtRp286
(I0
S'3833f191d02ed822af34404e91972ee2ea0d32bc67f0f71823e6fceaee3a4ee6a14b820fc946546b6e3350becf6a077d606268786f1d10eca8f657d90680bf323252e06e34b7c7bf8800716b0bd023197d6789fL'
I-698
I666
tbag7
(g8
g9
NtRp287
(I0
S'4901f9129ad08c5af6a596f3bac1e7c47cbab414b4cdae05a5c678755a1560a867f1255d7be00301f37255f1485e1564ae268d8af4c50c76604934722fe97917618cef956ee9da3ae8cefc7df9b3a13840729adL'
I-700
I667
tbag7
(g8
g9
NtRp288
(I0
S'3df096f36af352467408fc61bf77807de6da38e732b970e2307f1ac806ae831f7909d973a9764ba39f296b1cbf6c27c8b5593b29f696efb7d1ac29774d656192b12595abf11f1fed12640c3436767434f2300dfL'
I-697
I666
tbag7
(g8
g9
NtRp289
(I0
S'62d25dc77e85d7d88f708ffc357b4df21fbf5ad07e4e5c814b2ef56135d53f9ef21e01b971cfbef2d0390422699a6b1dac5a5f8c7e45b7dce57debd680315a0efe65c28f51f6affdbb7b3f9c1c615b00941b589L'
I-696
I667
tbag7
(g8
g9
NtRp290
(I0
S'2ada5c3cfd1e6bb6872f60d3714ea414d707678d29e9012b08495308a915df33c9e0bb0cb833ec107fdd08de009015128fdd48f7bab47f673f0a1503678a3de6be3c906f1450ecf6671b8fa1711970ff7db9a8bL'
I-697
I666
tbag7
(g8
g9
NtRp291
(I1
S'10b45ee03ab41d02d0f4d30eb65bf0ceb744022bcd36365487e81126bb67f698defa5c9a4902c392cad2ee731e294e61d74ae421e17ff9fe3ffa5f4ae6209a9d9444ab610c3a99a6da6adef5767027470f93ebL'
I-690
I661
tbag7
(g8
g9
NtRp292
(I0
S'2cb53a4cb7fd8789f25026cba65bbb7f1bac1bf615fde8273677919e3b03ce94082be87d8b9c68b6d2968ad5046787e6908ccac2f649eda68644264fa33dfa50497484e4a7d5d90e8846e8abc82c406ba3a9eedL'
I-698
I666
tbag7
(g8
g9
NtRp293
(I1
S'afc38d4c7fa958fa3e0b109cea79893e3c5d07663d1ff958c6a65139c6317b35e94047e004a22d751d9122ddd73f318d38f770878c38d6021214ca8cb4f218529b046f1c973a77bdbcbb76daafb5ec042f45141L'
I-699
I668
tbag7
(g8
g9
NtRp294
(I0
S'2f9f208477be3f2d826d1dc95b03eda202b242ec799de4e149b6e7d6f347301a1ca9a8e61067f1d39c2c64644576d55e8bb2d435a318ae17f189e3cf910ce8177522989b8f36f09dee1326b2b4aa94d3e7727b1L'
I-698
I666
tbag7
(g8
g9
NtRp295
(I0
S'ad16dc16acb3638694641ffa97f83d295f89c320bc032493b51b61f5d2352044fcafff33a3f55b9755f690a4f443a04707da5d6c64ccd74cfd710e9f1ccb3a12b056c067909961aa1251852521b87b3135d7e07L'
I-699
I668
tbag7
(g8
g9
NtRp296
(I0
S'a2182ebff5dd0caf9e1e761906b61120ffa569f3b0306f713583e2eb3de8e0c7baccc3310532055c8138dfd3192bb88b8812de304514ee4e790598b9d177c3378dc8eb875c1a810731219818392eac87b9c8527L'
I-696
I668
tbag7
(g8
g9
NtRp297
(I1
S'eea5c0d5ed58b6187ea0d81e912fcfb9c10b28ae068a05d2109e7bfab007b31cf3be704c720453d5ced5a3d11712e6124ec3ddb2ea9d98b2e6cf3bebb4a59a069d7ac4a70ff6393bd761e6e8334ef6c81246f21L'
I-702
I668
tbag7
(g8
g9
NtRp298
(I1
S'264f37ef94b409c3f11c80e506f44a87bf5ae5af2533b840dec8a843e10344cee52de88dcb0555ab2bf51fa886eb046eac35f009844ea7d944188ceef7435c3ec75833dda3a97cbc591f8ea68e3b99102c03125L'
I-697
I666
tbag7
(g8
g9
NtRp299
(I0
S'a72d6b35d83949eda6324f99d30c9a9ca7368bfb1f24400fc4876dc59abd305669b8f85cdb077ce56da666d5d1750872b601f2e4fb08bbba2b2eede9d318b94574ab3677a2977509cad644b4c78ad82e698c2ebL'
I-697
I668
tbag7
(g8
g9
NtRp300
(I0
S'806da17fbc5208ed06ee509cc31b6b1bf54596de37a83ceb7cb76b00f427906c4dbe664174242d776bf64e88ed353aa94767b5a8afb83d6733b8134f4c7a5928c3d62fb23f1ce07eb20de43a286cbc0155a449bL'
I-701
I668
tbag7
(g8
g9
NtRp301
(I1
S'17df09e58a845327ba34551e3fec4f064d288f3e6b62c129abf63397f6892920ebc331db548fbff684c8d210faed5c7e09c25a66e5a35ff6f20b53b3a0b77626ca80e8710e85f4756f49523afe7a7409d807729L'
I-701
I665
tbag7
(g8
g9
NtRp302
(I0
S'5434bd3025b5132196feaf37362567292cfcdfadd103aea5a0358a491fed09976eb7b81c3ed7b21ea193092ac02fb2edd58aa7c5407cfc15dff5ca96dc8b652b5ccda1132aa6668b787feb22691424a73962579L'
I-701
I667
tbag7
(g8
g9
NtRp303
(I0
S'd35171b743017957a5316a7a6e055d1cb3af82fc01afb3f594525f2a23a8342c6415e8433c6f71544a595bd98412846c4beac7d0a20f9b70d881b9d0285336dd45228381cf31bf1eccf150fa0c65f095d28b76bL'
I-698
I668
tbag7
(g8
g9
NtRp304
(I0
S'8e8ce4311bc0b172faa870f9e9034c6de498cabfc5ebc56e54070d92a764e643dee8af413110e18d81d0888d8c662cb7b2d84735135836a90a8f56cfedfbd1068f1e1b5b81fe581a8030367eba97a5a8cb7aa15L'
I-699
I668
tbag7
(g8
g9
NtRp305
(I0
S'dd758920ce4bc89690697c4a5558cf824543aa4f274b9ee16556700dc539090bb740848767e19ae27a9aa023d51bda0d37b821f71f39e558336377cd8d54ae88782ec2610e541b31b1c5a55ec93dd0e5319b62bL'
I-698
I668
tbag7
(g8
g9
NtRp306
(I1
S'2cb215c750345824eff0024e53a43799641f295f935c2fe474c0bb49b75e0e378b61faff28454a02e958d497e8bfc992254d4796ef78329b70185588bd227903cc5031c89f0d93aa7c53435d6c304c373602db3L'
I-699
I666
tbag7
(g8
g9
NtRp307
(I0
S'44801dbefbb8163c802038fd843c27059aecdd81effd629857222d740c5c6ed1967ed016aef397b89fcd107d1fdd491a022710497eef73683a9fcda7ce116e9372f5b5093ed6fed1e0b6e18a61fb7859791ce6fL'
I-697
I667
tbag7
(g8
g9
NtRp308
(I0
S'7d11e8c60d53f71c97d3de25ee64417173fdfca085a22b7ef5e721d2b6c497a82aaf78f571543cab6f4d7161131f5c04c0c1fa6f720c654f9aa0200a3fa61a3f4615b2cf07bdb2257b0d82eb5d590d340e3a891L'
I-697
I667
tbag7
(g8
g9
NtRp309
(I1
S'78994118fba484392211a88b05c793d5956b52c0c85521014ca8d632df694ab0e1468416cccaf0ba947511c07e37c2169fb82beab2597869ed76f724fa5f9896393f49e2ef141b6729dda00894f8d08dece7e3fL'
I-698
I667
tbag7
(g8
g9
NtRp310
(I1
S'75bfc8ef76a4feb6cc7f3438d4c0093dded6d7dbf89082095e26db36baa657b93fd049cfbbde63c377816e83a02e1ecc27cca6c9ce70344510847ee8c67a5ad67b2bc38dc5ee05834669c2a8114c84dab84a42bL'
I-698
I667
tbag7
(g8
g9
NtRp311
(I1
S'2a668a2ced5729e65f8b9f9a7d09aa4cde60d67c0eb323b6225c978ed2f18b1b939a6e4c81bd86090c2673c0a023ead7aff78b590e746f9232ad5b6e54945da24bfddda8c389400303fcbc0605cd7a65ed7af05L'
I-697
I666
tbag7
(g8
g9
NtRp312
(I0
S'8a398b8b9b806dac9e23cfce53237bade61a86c4076df170188407796927accb88fe6703fc9a9ed860610f4709de016c7dbb7342a60aa915ab33b34d1ed9b57cb9ec971d226f8f2b79259db430b66386b5ec887L'
I-698
I668
tbag7
(g8
g9
NtRp313
(I0
S'839cd54bc3e2d27a8234bc904fa78c80d11d1845b96d9ac1ddb3fb3c140ce097b184ab4feeffa3324dd3d1c9f541b6b37ac82d39ce16754d18668e204cfd18e896bc97c716316fd81ed752fe572dd2c61b9c72fL'
I-699
I668
tbag7
(g8
g9
NtRp314
(I0
S'452de8de5b200c6a777023f83e397656112734894f546fe4dca41b1725f7f09af8ec3a94eb1e48ee6b3fcee48ffc0614b50a70e8307d5d4513bc224498d096d882281067e6c22cbe008c1dbd27a0391b3a79e2fL'
I-697
I667
tbag7
(g8
g9
NtRp315
(I0
S'1691a3d5bdcaf84138ee562880106a11dbe1340fe3e768fef8cecf2ca250a47185eb11222941f86866642510001908ce51c173c0aba69bbc4c9467477718c0a4976da7d141b4f4a65d3559c38458dbd40ae230bL'
I-697
I665
tbag7
(g8
g9
NtRp316
(I1
S'39f4ec6d9748e83202a51006b2da5db4b3ef4a4f1c7a04711668d4ffba1193ef2ff6e2f717183e69fa726951a4200bdb1205458882f8c88b987d852bd2c314063bf025c7c89e92593fc0a7cc55bda6dcaab0023L'
I-696
I666
tbag7
(g8
g9
NtRp317
(I1
S'2a3c42f5fb3dcec57faa6e3d17656233f2093f40c5938c8f91609c51b9e67b97e756c528869e0cc3777497c21b5c3fca620dc6ee45ab7211271cbb26eaf314476ddc40145cfb99986ab839f79ee4ba4c2d4cf81L'
I-696
I666
tbag7
(g8
g9
NtRp318
(I0
S'af5218e731d80547a31e2b9fcd7b5f4f29b99843872ad6fb32ebebefb6ec5d8cdc89a21d4b75a7e34d3584498cb6e5061a2788d0c0636ca60506ea8f5d44dd532e639401d64730a3fd9290ecfb6d43cef41698bL'
I-698
I668
tbag7
(g8
g9
NtRp319
(I1
S'3a290f65988b10f7a4d35ff9165d075ad1cc276545aa8cbc552f915ed999b7af659c4dfdce9c66715fa6ad1bbb0bdb96968ebd68dd2252b2f3677bd0bb5a71919df6124de8de24d09576ef23e78e863ade8f81bL'
I-696
I666
tbag7
(g8
g9
NtRp320
(I0
S'2098a5de34b1908e2ab962fe5afa6a12e6d380ce75b914bb7a069161bacfba52e10090c5bdb94b980df393ae01f300c99e6868b5dbbb94da77a79c1757e70371cb63206e5f3c2ff5e2fdc3b84192e8df40b9a03L'
I-697
I666
tbag7
(g8
g9
NtRp321
(I1
S'eea5c0d5ed58b6187ea0d81e912fcfb9c10b28ae068a05d2109e7bfab007b31cf3be704c720453d5ced5a3d11712e6124ec3ddb2ea9d98b2e6cf3bebb4a59a069d7ac4a70ff6393bd761e6e8334ef6c81246f21L'
I-702
I668
tbag7
(g8
g9
NtRp322
(I0
S'983cf3ef10a6662344ce55e1e5adbca8bd3cf8bd843b2b24b73a4a18866a089dd10fd409bf7ad3036865b1d5a20f84ff7883da5737bba64a613d47d47bf6ffbb81db739c14fd38e34bc427b0fc892de98e3e01fL'
I-697
I668
tbag7
(g8
g9
NtRp323
(I1
S'a0433ac02379c1208b52fede6ca37e2c6b94a8596658698e01f6794eca677b7f30b086229003fff14c6264e75dddd761c00e76ffd02b5d957a03ba371fe8cbfd6e4749835ba965af07516aa12ef9f4d113d9fb9L'
I-700
I668
tbag7
(g8
g9
NtRp324
(I1
S'aecf3576160ccb68124674c88800aa46b1d2c3df760eac422bb9dd2148ee2662a90eb2d18a5cc61c3c3fd6d17a0b0fa3a98d4014ec52bd2525144c4cb7d95fa1809aa62ad6261bc088e65746ed9fb9c65eb034fL'
I-699
I668
tbag7
(g8
g9
NtRp325
(I1
S'890925f73593cf492583673b69ea89820b111eba0f449cb85943ba84d271969f85f25ecaa072994c85d6870d09452e79e644721d54a655a4aa93b2ab3c860817e197eead20c5f26ed1c355c7fa490bd9520211bL'
I-699
I668
tbag7
(g8
g9
NtRp326
(I1
S'561f9fb47cafdd13383b660700fc5592c56c6d56763beadb368087b84125fca407580fc3bc505d446b2c67b941cfff66d14f8f05c51f173d4e89502b64dd345206260d7da0845d3ed9a280b73dd3f1ed0b90a7bL'
I-700
I667
tbag7
(g8
g9
NtRp327
(I0
S'a38c941c2b5694be517dc4a1de44168c57f594c3c76773972f0731b91a9801701fb833eadaebb91cf7ec7ffe7086a3a2fd6a05781e44d1e7716ad44d28b5843541bb0fcbe3fac4fc263859e01a193830e95c397L'
I-698
I668
tbag7
(g8
g9
NtRp328
(I1
S'8850bfaee5daa4ce63c95d96711b546cfb7687aa602b4554f45385c4d0517df82b620dea568ac115510e4dbdb6a49867cfb15a9f8be7b3fd1f17dd6cf70eb0f542b6791c0a41906a0ea6c23c55efc2202ccef7L'
I-695
I664
tbag7
(g8
g9
NtRp329
(I0
S'3ae05e19a326076a930e105a59ad48fe9add8ef6a5677d69b95fae27044d3eb2cbbdf8800d51a6383e61b7a13c1b2f430184582604f7a5a51f3e35c168923374bc146d3cff6d2dcad9aca8a5333b2b5e160591bL'
I-697
I666
tbag7
(g8
g9
NtRp330
(I0
S'30565e30bd87401f19815cdb9682559d3ccc02c2243a3ce121cdf59330db6bb2f32e09e3e3a62022b00d2d8c7b860fd97b7c662a9b4606fa5deff152f21f3c4fd761596933f1a83333a8e7bc251d4543084c449L'
I-697
I666
tbag7
(g8
g9
NtRp331
(I0
S'4fa1f2b9b0d905e87dc693ed9c2210153dd2472079fdaae60b6c71f0085b5f895036a7e09ab45396857d678e190d9226ff69797d1009b852f1a249dfbfd2129c58dfef0c8a6118558293cca43a8db66631015a3L'
I-699
I667
tbag7
(g8
g9
NtRp332
(I1
S'83510f50d66b0282e36f75498ac964a93089fa44e13c65596f4b3f12fc1b1c46941b5f74f40906095e4c2bc9fb95830ff7b022a5279f6a23c278c2aa260ccc9c3073ea6a424a1fa86eed29c810f861e0a46eb5dL'
I-698
I668
tbag7
(g8
g9
NtRp333
(I0
S'9640726e0c66921db2d20303d4aa3f0003176fd9f81e3c52f5bbbb59eea2d9e33452381698a81021c9b6b59f4c3c08d5297d9f7a2893f2cebb0f865c02aaad71186458d48979c51c8c842289da6e85ce8f8196fL'
I-699
I668
tbag7
(g8
g9
NtRp334
(I1
S'135a89c8007feed9a374165f425ad90d89f33eeb51bd8e9b10541e292fd627f498e3337a0d9e03634bea06a8b7782055af2100b631cd2b8bc92d26c3bd3ae86f49b0ac07158facebdcb0faad0f972d2cb3c2bb7L'
I-695
I665
tbag7
(g8
g9
NtRp335
(I1
S'743cb6fc624426040313959b20fce9ccb4590e63b055e61768feedb0af1365094c5f01d7e8a8c0d681f9004046a778ba837fff3e689f9ef31b87257fcd2fdcf771833e3337304698a6075233da1c3e761cccba9L'
I-699
I667
tbag7
(g8
g9
NtRp336
(I1
S'10ef1a3720d6fc1383fbf0ff91f775605073521e26fae64ff9cf7ed08a7c0cc6483651557597cc93e98bed2982b4f60613dbb6db2af78ebbd87545389c489be5d4f61c119a83e78d2f2338b3b30aa1bad384d73L'
I-695
I665
tbag7
(g8
g9
NtRp337
(I1
S'2a0495fc2d06972665ab5d745dcbee11292147e561b629de5f6d480e0459039e1edb5e409500d09433174d5353f51a208bf3cc0d4fcbaeee99983b867e7ff2e18cd4448f179e4b3ac52b49de8834694a6ae2301L'
I-697
I666
tbag7
(g8
g9
NtRp338
(I0
S'ef4b5698a0f0efedc1f951bcfa0dd5cb32475b299f4100a7eb8c18bdddfe5864bf0af0efb73f13bda4ed66ab099cd12a26ba8b2fa75130013a95ba596027addab4f4f89c49b4a303ded632286d0a21208b34b5L'
I-695
I664
tbag7
(g8
g9
NtRp339
(I1
S'd9d6ad93b7cd46acd62084eb9ea28ad05766e8a0cf956567f7adf5ac5abde5a4e1c8453900e6d71f170aeb6073fdc6eead260af04b0f28c38019cf540f1e2347d747d5ab06c3c273bd43d8030176db80e7fd63dL'
I-700
I668
tbag7
(g8
g9
NtRp340
(I0
S'78a91c16a085798ae7ffb259d64d6d2449d3d647fce8a5e2ad68cc9d8a1acba7da347db2c6e9c1842e8ed6d71cc9895921e44a56436d71265a7918af8d1b255db699c43889806741c47d22e32a4d9a0b8dd55d5L'
I-700
I667
tbag7
(g8
g9
NtRp341
(I0
S'315b26ed6c62b832334ebb8ceb3cde0b21d8d7b35732007c25ff16d91c2236ba874e5b915a1a2b848e6bce0617e5c8ebaea50eb8c51776027572b59566a3f059eee663aec0b2ccb4bd6ce2a2e3d1f70d6b7a981L'
I-700
I666
tbag7
(g8
g9
NtRp342
(I0
S'7cd0c3bea5b602b242d4f30f04c5789809492e876b7ba53d67a44c63d0d9cd0c79e205240d6155c785aadc521bf38bf5a800b467efdbc58ea77aa04c2b2953579145c632adb2493c00182998ae002e291f1a83dL'
I-700
I667
tbag7
(g8
g9
NtRp343
(I1
S'996ed5bc523fdcee3e237cbd42ba9be15b867a3d740798971b1cbda6f29d8fdab04043e8aad18a958dbe26a1f202d308dd0bc4e9f8f32c63558b32e1330e822d499b2e5ee05f9f055d190964cdddbc627550f69L'
I-701
I668
tbag7
(g8
g9
NtRp344
(I0
S'9352d27920237e1fe134c50165fc04c3cda89b37e5dffc544889f15707eb45de35b11565954f62f6578c3247f7bf7e5405caca0ff7a3ec7dd334fa489eeb3f43b5fbb800f2cc7282a8f8ed0d7baf4e6dae967a5L'
I-699
I668
tbag7
(g8
g9
NtRp345
(I0
S'ce96e2d41b106118883ce6d4ee4342b528a4df32a1caee6d22bab741c8340b8c51a9d754ff6b26499ab7dae99d4d8f8890307ea7257c77bb7916e83e4af081ba6f4594141c09a45b280c17a8ea3e25ebb8c19e1L'
I-702
I668
tbag7
(g8
g9
NtRp346
(I1
S'264f37ef94b409c3f11c80e506f44a87bf5ae5af2533b840dec8a843e10344cee52de88dcb0555ab2bf51fa886eb046eac35f009844ea7d944188ceef7435c3ec75833dda3a97cbc591f8ea68e3b99102c03125L'
I-697
I666
tbag7
(g8
g9
NtRp347
(I1
S'a0433ac02379c1208b52fede6ca37e2c6b94a8596658698e01f6794eca677b7f30b086229003fff14c6264e75dddd761c00e76ffd02b5d957a03ba371fe8cbfd6e4749835ba965af07516aa12ef9f4d113d9fb9L'
I-700
I668
tbag7
(g8
g9
NtRp348
(I0
S'2d42ac2b99161abe3211dbaa57ee3d4d7349519c0e313ebd00b104f07043aad6cfc9495bf3264c1c2572b830274d4c23681478b1b0cec5e66746a4ac53a96e345b43aa2dbdcc306fabbdcd115e719f32b233881L'
I-694
I666
tbag7
(g8
g9
NtRp349
(I0
S'1da78ffbef9087675ce1b9f3507ba701e9d249c1601051bb7c84e32029d26e410372519c6ca78863cbef39fed6005db96c74a72465e1d791cac365491c268bc60131d19bcdae35864a305583983d8811aaa4943L'
I-696
I665
tbag7
(g8
g9
NtRp350
(I0
S'75335f318d8a8fcbb7799421b544a03c1ffcffd6d1402a55966de802c1f4cd9f407f38571521e1dc04b1e6fcc77074b42c9e07ae348e07667d07f7526e8060440130f4b1c63040ee48ee03a47c7594e1552fc43L'
I-697
I667
tbag7
(g8
g9
NtRp351
(I1
S'8844bcebe3240910f3c9addc073b5191defcd11a0815cd24b7407f7de0e28c5ac7b8fc002ee1bd0dd161c878fd32e65868d034a1805b7e8bce17352710584ff5d69b99d0696c6d0625c55da57bf8d71d6986db9L'
I-699
I668
tbag7
(g8
g9
NtRp352
(I1
S'5ce1a9b4c10f12b42f61353c269a6beb6cf6d3735564752dda5040652a761e0a101a94196ef499848bfa88ef84fb9bd3dc4fc4d7b1098c322fef526d0e8ab345ffb86dce0a93a1a056457dca8a89b98c14bdadL'
I-694
I663
tbag7
(g8
g9
NtRp353
(I1
S'394efec0f63f7a5f7fcd4c5de9a6b379488591c20207741d1c8e9688d993bd3722f13584baf686d0656f5a67b91b96cf83f164c1b2eb9040d386bfaac93afb83a66a33e4bbf416ec398255460b73622dae1942dL'
I-697
I666
tbag7
(g8
g9
NtRp354
(I1
S'17cd60a7a2092142c13cb0cebd501f4be870f62904b20885e8d927232912f44a39ca504b45984a0a1f0380a4fc36e17a2aa8eb5323273461ef5d97c8b0577d773361f37eb1dd9d160fd68fc0e1181e4687b6075L'
I-695
I665
tbag7
(g8
g9
NtRp355
(I1
S'444760e218d3f4a7c79ad68d3a1762e39d13ecdf271e9aecf2302dafd8f8a68029bdaaf598ecbdf39399d2340045e28de21a00034cd9484329a4d1590b953df0500ca336d68e7e0ade6551feb5837fa9ec7d4d9L'
I-699
I667
tbag7
(g8
g9
NtRp356
(I0
S'6e08043793901eba03dba631ffa7fcf68bd3df7a3981558b8658b9229fd08b203b531723593e6d0fdc66281c84a2aff6d5ef7672d425688a82812ff6cce9380f91e955826185487db5c4ad43bc2d7444924d8d9L'
I-697
I667
tbag7
(g8
g9
NtRp357
(I1
S'10344bb02c27649c14dbfb2abeee0a694228a20bb0a48e90ed0df7cd8299105f6fb9f751d8d009a7b7736739b60646e6a98448ec3186f5fb8b39f1646dd2fe74c7bfcf86b3bd814b203edb80a2b934eecd8b3dbL'
I-694
I665
tbag7
(g8
g9
NtRp358
(I1
S'ff817d1aeb1af174ab364dc58c7a8a3a0dd778db9a2e41e022f9f17b02d54853f174002d095d47624c2b7e531ff0b8de44e001ecc2d4ace81a58c02d68d9e595b0ba029f370e61f6ec0381d2865b42ef46dda11L'
I-698
I668
tbag7
(g8
g9
NtRp359
(I0
S'30f1977c4085c7dfdf4794539f635009ce85d0e395aeb3ee6ff5190b75bca7fcc63d65d7fcc5bc725273bab3ac971005848075fe88ba4060855f3407d72dad453d545b064b4ae503ad79115fc3495aea489d441L'
I-696
I666
tbag7
(g8
g9
NtRp360
(I1
S'8e2961febda268a7cc404c3b6c31923e027c0a5fb8ea893def362ba680f12f78ab0d79b8ff22f0b9bf1f5a2aff8d3617e3b5176836e5f4a9d430b58ec3ede5cf7ee967f9571bc585fa7ce29137a99860994be09L'
I-699
I668
tbag7
(g8
g9
NtRp361
(I1
S'e51de33eab879b42ab26d6a8c9538d98817939465277ecc7755426c41e1d0fc0b26fcf15cc5aee5f1c5bd1e63eb1247b19534793592f686f1f4d231e533db5a1c4b8018c5ea9ca4afdbab594414a1269cf4e32fL'
I-700
I668
tbag7
(g8
g9
NtRp362
(I1
S'daff677689a7fa8897c46e72a629dae26fea89c88a7ec8adc1f22bf13a40adb7807e3039da68a82e09ed7f341a3a20e6f78d0e3e8d61f2d158801d4b532b0d23c6d190dea8b757e7e9739f96b145f5810ee3419L'
I-698
I668
tbag7
(g8
g9
NtRp363
(I0
S'2838fa40b4cf96216800a5682f0cbec68715b6765ae46317bbbbced1605564eb46190898cac1ba3465a46f6252e5aa844da8e66b0dad97b0e06eed54930b861e020a27da94bfed56627ee4d603ce8e4d135dda1L'
I-698
I666
tbag7
(g8
g9
NtRp364
(I0
S'f8d85ed29fd6e36a705184da3e182b6fc90bdb6e24ddbad3c1c66d1fed31d64926011a722bf1d59fda612dd6982ce2ac1f28fcda062a8a129813ed8baabb9c6a86a382f196a02e5c72b496d2251d38fed00893dL'
I-698
I668
tbag7
(g8
g9
NtRp365
(I0
S'4a18a68c98746565ffc9ae06bad56d6d75af3e246528e374877425b3988dad2876b09ab070a3d0cf7a1dabd536a95a7783f926dfef4033b36fbfc4c7fd159da81d66450d35102f5e903023e30e22d51b09d4025L'
I-697
I667
tbag7
(g8
g9
NtRp366
(I1
S'1a55b59dd02b881e015e8b29edce7b0e0bcdff383f52517227a6142f3251ab64bcf8d4a234208bdf4484de863f4410e1d850a189ecb25b8c42aea46df7e6918bd080a97f7ec3ec307d29bd51b85af21d6441331L'
I-696
I665
tbag7
(g8
g9
NtRp367
(I0
S'af2cbfb9583b9d500785b1fd8e71cfc017b43a86ab919375cab735a44c871bb0f84d8f311c96da3b5ee94839fc14863e52f8d48a61eadc88edb4b611c06a8b754c36c96487ec71af8a2a813c0354d522058b5e5L'
I-698
I668
tbag7
(g8
g9
NtRp368
(I1
S'6e43a4f9879dc194a0e746ea635bd8d054aaffb30419551ba413568e683e7c0c25cf42fc2df7fa5b930fe6ef7084e42281cfa26289ef0e74dea821fe4665e68153370eadeb60ab67af921bdf59943689421cd31L'
I-697
I667
tbag7
(g8
g9
NtRp369
(I0
S'd399ba5ebcfb0a12a417d405f146ea7d9de2b0dae83f211596431ce7279d2e0976a8eb0c424a2f34b104f124b2e57da467e840591f18f4f0eb6a0e1eb40204281de6086d77ed26632afeb217fd8703b7f2daddfL'
I-699
I668
tbag7
(g8
g9
NtRp370
(I0
S'a239b2b132fba6a1fbe4a8287e4d59b0458589daa67fcab5c9c016d66ee5a92f72b4ad81521d56fec508a43a69b7d69a80b13480d776aac56d9e9fdc65686917ae4c892f57dc4881358549bf814889685f78ec3L'
I-698
I668
tbag7
(g8
g9
NtRp371
(I0
S'a72d6b35d83949eda6324f99d30c9a9ca7368bfb1f24400fc4876dc59abd305669b8f85cdb077ce56da666d5d1750872b601f2e4fb08bbba2b2eede9d318b94574ab3677a2977509cad644b4c78ad82e698c2ebL'
I-697
I668
tbag7
(g8
g9
NtRp372
(I1
S'aecf3576160ccb68124674c88800aa46b1d2c3df760eac422bb9dd2148ee2662a90eb2d18a5cc61c3c3fd6d17a0b0fa3a98d4014ec52bd2525144c4cb7d95fa1809aa62ad6261bc088e65746ed9fb9c65eb034fL'
I-699
I668
tbag7
(g8
g9
NtRp373
(I0
S'1da78ffbef9087675ce1b9f3507ba701e9d249c1601051bb7c84e32029d26e410372519c6ca78863cbef39fed6005db96c74a72465e1d791cac365491c268bc60131d19bcdae35864a305583983d8811aaa4943L'
I-696
I665
tbag7
(g8
g9
NtRp374
(I0
S'68c80ec85a2d779485c8807f14ef7084e468e42392105d97e3891e036c293cdafd61a14d33f58974411778b19ddd3def7e415cad9f3bad4e04b91389fb10087a9de824e455167e48914a04f68374863179bd1f5L'
I-695
I667
tbag7
(g8
g9
NtRp375
(I1
S'9f989f78b53591e69420c4549ccd142b93fc2349375c8551dc15786dd57c6bb7df8d87a7fce00bbc0402ea35045891a4723cd78a41111c8bf4c830b7e3a6db556e50fd5b71b9dc4b2589e5abdaa4cfea96050efL'
I-699
I668
tbag7
(g8
g9
NtRp376
(I0
S'88a20be9f2901a4a93a7c22cc51140e81a81423bffa5e0360b2d63dbcbd9565fab21e5a1add31c46607049ba815eb4b1628abc400752e6618c3ebe5835bda02d42996056d6354ae615f524a0de7c1bb7c187e87L'
I-700
I668
tbag7
(g8
g9
NtRp377
(I1
S'ca8230a8cf62330295eac692005f128cf49b42f54db9805c3e76a3990282e090dd4e1edb436fde3d5f79c87aca4a8580a6f621c25b3e02df9e7adc54077637a75e41705d2a4452f0aa00ce2dcc4eafade045053L'
I-698
I668
tbag7
(g8
g9
NtRp378
(I0
S'54deab936d1707bf3791e1d71209026c1ddde84226be0e9c109951252a0d6405a4326691cb25f977156ce44b6a811775f274feb57dd13a28d8bd9bf56e6626810e7dc995ec046b90db493508c058adb8d1be3a9L'
I-698
I667
tbag7
(g8
g9
NtRp379
(I1
S'110a8026c45cf150042f883a39095e55092f454e7f72820ba54a36f8bafc685de72952060ea7991c4bd62322bbd24063b4ee969f938c81360b8ef2529c035ea5cf25b3530ede886d77919752958dd1afe98e303L'
I-695
I665
tbag7
(g8
g9
NtRp380
(I0
S'7642627b8c2fe9f7929c659b3973b6ca641d7b805981192dd9cfb562b662047b64738f6f37e2d179c6701cca2175b140d0851bcad4c8211af3a4c50de6f4adda9fd1ad9f81e71c2b67ac0479adafe289f81c497L'
I-697
I667
tbag7
(g8
g9
NtRp381
(I0
S'31b17c6a28763dbed5426c4d867114cf2433931c20881619ca9862594a50061b81556f37409bbf62a63fb8096eb245fb9f59eec55941e6fa9ca0e288bea19140003ce85af7dd13639cb095bd0a6394efc90c20fL'
I-696
I666
tbag7
(g8
g9
NtRp382
(I1
S'fa6c64b9a0b8f155c85cb5d42f1fe7674e0e51185ec83b0edf893aaac01dc12faf3801e33cb3598310d2c488dfbe3d2e5c46e53d34b2a041057e037a6711e789d7b8126188fab7435abef24c547766ecb94b85dL'
I-699
I668
tbag7
(g8
g9
NtRp383
(I0
S'b991956f7c038bc9eed6760c4c589924d18c1b1c9e8c0d3d2be088f3d2069249fda4de2a4b00120619e6446855aa7353c7fb811d1c41a84056947dba6c55dd65e52bd58a3dc91612a44ce92b5c0fa21acbfb13L'
I-697
I664
tbag7
(g8
g9
NtRp384
(I1
S'75e9863a022f68ef723946d23e4ca74cd40da29f8d2a1766259f0e6c64b5cb8d3f221164e6247ce981b4acb4771761ca009b5c4bd1594507e05181910c39dacd45c2f03088b8486e8d8dfbbd1f53db88e60bd77L'
I-697
I667
tbag7
(g8
g9
NtRp385
(I0
S'40df6d9ea1be14d932b248ef107b696110c94758f22b7d97e90f250347b6fec1bf92e9064299d50eceba7df7017bf9e78f5266adfa7dbcbfcc3bbfa7120bd199279b4294013ee67a010295c225a508fb187f5ebL'
I-697
I667
tbag7
(g8
g9
NtRp386
(I0
S'e2ba6ba2eb3768a5a3c956d53493afd91a757662fe0b2d603838c09e1d780823cf1cdd7f3e71d5ea4e0c25f26c8d3e61059bf9b4fbdf052a15a947f133a1cafee7c1d5391688e17f6ce70af8eadbbf77dcf7389L'
I-699
I668
tbag7
(g8
g9
NtRp387
(I1
S'7b62193e906a0d5a125cf122285186dc52fe011625a83da8b900b3e401acfc04bbb3765a1f46c3fba873a071d847a64f952cc0e78d376f91260a8993e427ba0507b52187dbc8de095787536e232f8ff8a6ed161L'
I-698
I667
tbag7
(g8
g9
NtRp388
(I0
S'40eb74f01cfa7649f5e9b8064331710814827530a9276b088e634584ea1aef142cef754421e5e6194a81b012b3a0639f56344c2b57db2769165d8305199b204b31f59d969a4a72b66e0809b829030c04eb1a50bL'
I-696
I667
tbag7
(g8
g9
NtRp389
(I1
S'881dc4c80294fdda69409d106bd05004c353861df13dccda93e913a04a3a7b91a6afa5132c80f37394ed4cb709ccffde0a27e3e3e655ba5820f517f9671b6571aa0413519e212a676ff0f5f71be2ed8f9138769L'
I-697
I668
tbag7
(g8
g9
NtRp390
(I0
S'512c6a6802292a5e01dfb77a02341b139704181344238deae552ced2c0bf7ff245c257d2985bd94f3fabe91876d8f199abff786cd43ffdc18f22bc250956aade2bdb55e6a897b93fec99d5857a047530e439b83L'
I-698
I667
tbag7
(g8
g9
NtRp391
(I1
S'16829130e27fc04b88e7ca67b53f98e771018fa15d365d3a70fce65638e088d81ab8dec4dbb7dd19db9d2a4d50058f12df3e637ff5ecb23e54b10ab64435bac679eb744388997465d6a5f2902f8d10e9d24fe5fL'
I-696
I665
tbag7
(g8
g9
NtRp392
(I1
S'52549237a9c85c13a5f246adf62f431d779428eb6fb61ba1d72cae8d06c527ea126f84cc9ffb10476d7c2886daca86cd6eabc95a90c2703558ee354e5b207a5829cf8ab29a5f3127c5d42247f5b6ce39f33bedfL'
I-698
I667
tbag7
(g8
g9
NtRp393
(I1
S'7852f967dc0bf143c7a9e2c9895faabf8835badf17e0d05ec1b8ccf7165aa00080f0129ba1a4d8706ccc5d01810cdcea861a1cef5680b0a4f79786e81803bc18814e6851088acd8d8fc8af8d1e02a9ab5c0d087L'
I-699
I667
tbag7
(g8
g9
NtRp394
(I0
S'518f071a9db03e41e1e7e877fcae89fbdbfc3de3042d39bf59cdeaf2ad76c197e24aea40166932ca920eab5e2823f7d1765a3ad797faeeef0382dcad47e82e3da3c90988b5d5c0414a9cfcbced006ee3358cef9L'
I-696
I667
tbag7
(g8
g9
NtRp395
(I1
S'56206efd8f415b3ec7935dd181fe3259d553197f4e8deb075f22cb0d2d5924071458d82618061d0c23fa1d9a0a28e57450831171f3419bd7f27c02fa0705382fce172bd8a75fc38fff44b99b9ebd92c165208cbL'
I-696
I667
tbag7
(g8
g9
NtRp396
(I0
S'806da17fbc5208ed06ee509cc31b6b1bf54596de37a83ceb7cb76b00f427906c4dbe664174242d776bf64e88ed353aa94767b5a8afb83d6733b8134f4c7a5928c3d62fb23f1ce07eb20de43a286cbc0155a449bL'
I-701
I668
tbag7
(g8
g9
NtRp397
(I1
S'890925f73593cf492583673b69ea89820b111eba0f449cb85943ba84d271969f85f25ecaa072994c85d6870d09452e79e644721d54a655a4aa93b2ab3c860817e197eead20c5f26ed1c355c7fa490bd9520211bL'
I-699
I668
tbag7
(g8
g9
NtRp398
(I0
S'75335f318d8a8fcbb7799421b544a03c1ffcffd6d1402a55966de802c1f4cd9f407f38571521e1dc04b1e6fcc77074b42c9e07ae348e07667d07f7526e8060440130f4b1c63040ee48ee03a47c7594e1552fc43L'
I-697
I667
tbag7
(g8
g9
NtRp399
(I1
S'9f989f78b53591e69420c4549ccd142b93fc2349375c8551dc15786dd57c6bb7df8d87a7fce00bbc0402ea35045891a4723cd78a41111c8bf4c830b7e3a6db556e50fd5b71b9dc4b2589e5abdaa4cfea96050efL'
I-699
I668
tbag7
(g8
g9
NtRp400
(I0
S'bf7402a8d1fc45734dbca64afa6cdb9ef141626121c84fd99a5164c99752db1d129142ee885328036f836287d24fd170babdeef40f0d1b1e88a36eb5d2385ed1bb0cbbdef7791dbd21eb3b50d0305f254bca1c7L'
I-696
I668
tbag7
(g8
g9
NtRp401
(I1
S'964cb8b81c12476319b5a7ffd140c6dfb09a9462eecf476efe580efd8c2aa4de45cfe460f5e8a9707f1a0e584a857dd1e975d9782054e5f5872786e0e5172e386414e993ad12a24e14b08019a1d3725c9864d23L'
I-699
I668
tbag7
(g8
g9
NtRp402
(I0
S'272b6fa11d3f5d8c72884a173938d065bf73cb633ee580a94e97dbe2026364b27b49c8ece102f080ad788e45238ff1edef88530eabcc5932a1e7ded1a90e9cad9d1e4fe9c1165f410b8062f0a46d023b8da559fL'
I-700
I666
tbag7
(g8
g9
NtRp403
(I1
S'860e9bd17d09668f6e0348d0e2ebe07ad8c8a4c80e5516845dd63342bd93197ccfd360fe35061674595538678316e089b577373df471b193b3c83d93f7a6c713b06dd1dad7dfd350b7f16df1b2f33120277703fL'
I-700
I668
tbag7
(g8
g9
NtRp404
(I1
S'2c6c24f5e98d64297dc24bb91248eab682bf3616b4cef2be9ff82019097d6086943ce84d6d1760f91dc8589e3dee6128f4648bcf7055ca0951d750311bacb04021f42464c214f8d2fdd3cc6d58e240b9f72bf21L'
I-696
I666
tbag7
(g8
g9
NtRp405
(I1
S'917368776ea137c17b104e0ca22b04765c0c434a8c5fa0e268a5ddbc673839db8d394364e31f47b82b144d2495d4e24ada8d9bc725cfb64c7ac8c9e08158160df99974ab0d55b3069634dd2812ac048c41d0485L'
I-697
I668
tbag7
(g8
g9
NtRp406
(I0
S'3e128bd45e8d2e2e4d3f6001bd87ddbaa4a75ecfc20be4dd47ad31376497419a95247cb6493fc618a4ef167cdf0219f9d1628a04384cd41fd0966c342d2b3f82ce4a989a9ca786b9ae48150f4246bcb34ec8dadL'
I-698
I666
tbag7
(g8
g9
NtRp407
(I0
S'11d92fa994cebabf60d5e3dd38e3939ca926f38b890c67e561a18c02956751d990f7757ec88cda2fcbb7046559aee20d423683f0b8ea2d5e4dad6031884968d3b5a4f21811f5d98a821ee630b4949a4992c5e7fL'
I-695
I665
tbag7
(g8
g9
NtRp408
(I1
S'7ab59f34bfe7f593a5c8e3ecb410f180ee0c72247d62e1aac5d8941cfe71614e8fb9297bdb85515854937228c0f99d76a1f095444f3b6463b6f78d04cbdae1325ef5f496a9edd871c7e9a4c1188b16f28644831L'
I-697
I667
tbag7
(g8
g9
NtRp409
(I0
S'213ff305c2db06406070efb67992cf87d02caad3ccff533b54cc56523253528f90d63f3a9dccfdb642829bf325e06354d053f161e4010b86f13b10304e435f3ababdae17b8748389b907c24284e2448ec722327L'
I-695
I666
tbag7
(g8
g9
NtRp410
(I1
S'b376e1ac06d12f0c67b897ca666dc6cd7641f56cdea5981d885c23a1120b999c67fb448a0293d18c8b0260ae247920258b2c20965c18e9cc342510ca2d4ccd5f94ec9a997e745ef18ff2b1f7471d2505f402655L'
I-698
I668
tbag7
(g8
g9
NtRp411
(I0
S'9dfdbf9e102672fae8200822d497165a146d769c6b6aa8f6b8cced87defcb8a4b652131daea253b02e9fe7ce8b86189e5adc8617837bf6420974b5750bb533320bbf3c25c7b9eebbb1e799235c849a1eb9c479L'
I-698
I664
tbag7
(g8
g9
NtRp412
(I0
S'4e11615209f9e34ca19420bf4e27a8cfd44f68549fbf54ac1683c829583727101346869d87579c7f5536bf5dc7f94abf76f105deb014434d67183a24bddfc14ccb1ff059aef04ada3bfb3b322afa8a634d4fb57L'
I-700
I667
tbag7
(g8
g9
NtRp413
(I0
S'297442c5b3623ba00db385e7c861a639e485b61f7be55bd899cf7551d02114fb8fbc805a4d43f27685aad676dc1d2a97e8239b1b675efe7505e0e766c3897569a5113856d65032e55e908d96fb802b7ba01f44bL'
I-697
I666
tbag7
(g8
g9
NtRp414
(I0
S'99efdfe3b548b057f9b41a0b1832084890daa58b601abd6dfd275ac87ee7c10aa7211cf7662f9b6607775c896f4f32189b5e70d63c25c2c5146f45a8ff0d4b4b684313ad010224e6a503e9ff2774f0cb4bacf37L'
I-700
I668
tbag7
(g8
g9
NtRp415
(I1
S'4413de278a4ffe6a8483e78cf40a4336dbec2302126b46d48aecd6f180afa26c43888f7da7706e147a8f73bc7dc5b5b56a7ed98192deb971cded6ab98ee9d82d9fc838ed4bb6110ce5e6b4fca8e05a377163eebL'
I-697
I667
tbag7
(g8
g9
NtRp416
(I0
S'136c67911b49f352212c29aa3acc57be17e95a0dceac63043702f19f788061afd2bc4f5a159b6ddc6a2259de7bd7f6f257a6b14792bbe138498b5bdf05d6b90a4af4bb20cea7f90004b427011b58f21953f43c1L'
I-697
I665
tbag7
(g8
g9
NtRp417
(I0
S'1e2f558be6a257ceb04ef13a743f9d2cd3420d519cf10ff222d35e5922743035257354784f1d21c5d478e97f7370ae98ee3b2165e639902519b3bb317a3fafec165c0aaa2b7703840d9a8da777b4909b84ff289L'
I-699
I665
tbag7
(g8
g9
NtRp418
(I1
S'1c62f7c5442885f6125a66242de211a64a2be12dd11e98c7c8f77f5d977f80abd19b1f2f112f202b7fd3bdce33f5e14d6a7ddf0e4fac9d5326dd46a57504c2acd9520679e9de51b00705cc90ebcee6639dc246dL'
I-696
I665
tbag7
(g8
g9
NtRp419
(I0
S'24159e980be3640bd004e41cb280f3dadcd7ecc3d89e4f07b7356655cef21d6bc82173accac310087e72a8309ff79c46c07278e45174b53bbd7b376d10cb1bdee2f78c9c26de93c6415b32451c68888b2869ef9L'
I-698
I666
tbag7
(g8
g9
NtRp420
(I1
S'76f4c8df364e1bcfa460d1afe4630c6fa821bd1bce35bd0fefee084b06a551d9d7018ea4ce4351fca8e88f7941c0a0c987fa3716f1dfaf62b25de2279f4b30171a7eb97ebb0d62c898607bd888d9dbe514d1ec1L'
I-699
I667
tbag7
(g8
g9
NtRp421
(I1
S'17df09e58a845327ba34551e3fec4f064d288f3e6b62c129abf63397f6892920ebc331db548fbff684c8d210faed5c7e09c25a66e5a35ff6f20b53b3a0b77626ca80e8710e85f4756f49523afe7a7409d807729L'
I-701
I665
tbag7
(g8
g9
NtRp422
(I1
S'561f9fb47cafdd13383b660700fc5592c56c6d56763beadb368087b84125fca407580fc3bc505d446b2c67b941cfff66d14f8f05c51f173d4e89502b64dd345206260d7da0845d3ed9a280b73dd3f1ed0b90a7bL'
I-700
I667
tbag7
(g8
g9
NtRp423
(I1
S'8844bcebe3240910f3c9addc073b5191defcd11a0815cd24b7407f7de0e28c5ac7b8fc002ee1bd0dd161c878fd32e65868d034a1805b7e8bce17352710584ff5d69b99d0696c6d0625c55da57bf8d71d6986db9L'
I-699
I668
tbag7
(g8
g9
NtRp424
(I0
S'88a20be9f2901a4a93a7c22cc51140e81a81423bffa5e0360b2d63dbcbd9565fab21e5a1add31c46607049ba815eb4b1628abc400752e6618c3ebe5835bda02d42996056d6354ae615f524a0de7c1bb7c187e87L'
I-700
I668
tbag7
(g8
g9
NtRp425
(I1
S'964cb8b81c12476319b5a7ffd140c6dfb09a9462eecf476efe580efd8c2aa4de45cfe460f5e8a9707f1a0e584a857dd1e975d9782054e5f5872786e0e5172e386414e993ad12a24e14b08019a1d3725c9864d23L'
I-699
I668
tbag7
(g8
g9
NtRp426
(I0
S'af9c0c2a3d764babd502ff49798d480c59c8d892d7fbd363d95554f6a4ad01248de183433775166b5ca9504331ca16687b91cd836de8ff35bf61effbabadb554318aba73ce67ba167b25d3abc0e288f55580cd1L'
I-696
I668
tbag7
(g8
g9
NtRp427
(I1
S'fa9e04adc2e5dbdc93d727085b7155f8e8ff75a4cb8743c105f6ec2180b742e8e1df30af1c68f61ed5ef501c574994ee9206c0d9342cfffbe926c4225aac15f6baf6bd02358d101d4e72240d1a0f28ef8585323L'
I-701
I668
tbag7
(g8
g9
NtRp428
(I0
S'8a7968c4f888c86d0530b08d8cd6e1aaeb1f82e08ca49b8e23c41010366659b822514247f26e609a8b0ab209569b646bd67060ad076cd39356d25d4c4b77ecc73912746148292e7d50b97557d2f3e9dc8c57e7bL'
I-698
I668
tbag7
(g8
g9
NtRp429
(I0
S'4e1e4776ea279922d3a2f13b5ad4e36eb1e3f9d5a0ba5d23b32752e9330b621cea2b049b428e99c6d9c77317db3a15ca9405a3a39c63b0f76e0051023cbdfc3941f175de1205d43f05791da934e838737820693L'
I-696
I667
tbag7
(g8
g9
NtRp430
(I0
S'1a0875028fe3014a35ca5603c88b576727337bbaa83d4e7f05e57b2590e0d8271b27fe763ff4f0c5dab0d2d3d06a799b47fe2ea28abb453094a25d72cf14062c1899812fd2ab113ec1e09ba614e31ce720a1733L'
I-696
I665
tbag7
(g8
g9
NtRp431
(I1
S'4e6f2dacb2146be0f0c372bc671635de252dda0c7b1623c0f0a873d229633b6da775bfc9a0ac34b0120b2eed9af5c71d8b14b0dd24cbc8fa5caf58649a5689aa986e9d430dc072deb86b96febb334882c282bb7L'
I-696
I667
tbag7
(g8
g9
NtRp432
(I1
S'b0bb785633c0f64e21414f9fee6c88aaf5646f7b722a75530fd9b7b94af8d3c528a00ae7fbb4cd140437a3162439af95aeb5072bbafeae6a9296e5389a4c4e635d58445770b16c5cc9638b5746acb7f3e20d6b9L'
I-701
I668
tbag7
(g8
g9
NtRp433
(I0
S'111ca2a1edc6e1717a1b4422821d13e407d0d77451b10453a66cb778b0775a5f05c46f4b255322252b94d4b21768436fa8d6c2c85227e9b282a33b6ce3a780e13a46d4c98f25205a55789c041b73e9b6b5b81efL'
I-696
I665
tbag7
(g8
g9
NtRp434
(I0
S'47e15fe115c70166999eaf112936f38b391909ab387f6ed6c3690157e02d6daad3be4765b1a29d01e0cf24cfe13e3817d4291c4ff919f303e992e45e55dadef67181a4bc2ba5d5bf79adff1c63bb12c691647bL'
I-696
I663
tbag7
(g8
g9
NtRp435
(I1
S'6a1e621183bb6b59a9026416f309f16df2677bfc3c9fdd79371ab63934406710ac2a1102f9394fd6f47d27ae6fd90c0d0b1262f255ea251574e33574bed75e9f8cd536e13235bc32e789d591d642fff59b27bb5L'
I-698
I667
tbag7
(g8
g9
NtRp436
(I0
S'8c6adf5ae033d8ca700a533e09cf2767bc6aa51f0bf1995add2dc7857d26019fa2695bdbd7673e17138b5c5f40a96f1daa7ef78f28fda0aae2c70a5b4bd9926e31f17e29f99d08c7f44cde3d2470deff67e76bL'
I-696
I664
tbag7
(g8
g9
NtRp437
(I0
S'b7f07f24f1cb2e74b4f19769805c81d4e324611c00a5d02ed85244cf000dff64c4c1a5a528e54c5f4682f18b9683acf2c6af07a178c08a644c24107de5358e3f2fa81d113ea29bc253435f391a1d1361eb045f1L'
I-698
I668
tbag7
(g8
g9
NtRp438
(I0
S'1141c01b16bb73b1b9efa8b03e861ee110f3aa3d2ed920726191c3d30d956d4e2ccc1622d6fd37a69957fc03b167bb3c72268b25486efb53bf302cd77e29b995f9999f5329a32008e952a1cc7292d9d699e0b5L'
I-691
I661
tbag7
(g8
g9
NtRp439
(I0
S'9ed5a9838132a84b4672b8417655e98ef30a2ef340389466452af1d25ccd17caa1c5a3645499ce5f11a6d90a55291c6550c84b16c9fd8bb1594dc5c5452f63abbf0527f96f5368bfb09d181844387b250774d6dL'
I-698
I668
tbag7
(g8
g9
NtRp440
(I0
S'5b7408adaa4f5877879c9dec7c9bd2e292d0f5475fce166c40fecad1e8fdb2eb566534fbc8cbd7179b61be927e55412668b1f990a55266c6e50612af8735d30debd988d10a3a0481b6ebd4f3921db28bd800379L'
I-698
I667
tbag7
(g8
g9
NtRp441
(I1
S'ac96cf0d838b3fd21af6a409f70382bb5abc5b672e10b3c67b8cfb06c7844431e6b6d5bb891148b03752a5d9967e377cfd3e16ec0685163f6a5898f227e258d95ade3ec19e3441f5e82c9263f66da1733e0d61fL'
I-698
I668
tbag7
(g8
g9
NtRp442
(I1
S'55a75a465b21a5dfab4e5f210526500d8160c61c4ed8f0fe598c04473d11ace79067e579f9f8af4639c1b4cef2beb14eef0d8f973035d99a94123066b83792e2c94baac09988483e8a25f59e9c55915dc105fd3L'
I-697
I667
tbag7
(g8
g9
NtRp443
(I0
S'6d04365c6fd1de770348099b027ff677acc5de2a791b712869c2353905f9ed2fe790624e94b06073f425db64229784eabfbe8a617656d7d4e94b4cf785a862d8eca25abfc42304a47972cdf941aaee0374a1dbL'
I-694
I663
tbag7
(g8
g9
NtRp444
(I1
S'd9f0a286804f6bac2bae89f212288787c18afbcdaba8d38dd576c178665146f07f4b649f1bd0ab9756831d46f34ef7f1249ac723c6fefad87cfbb67a960f24ad04c763d2abb1faad504a53ef2007bdcea67c907L'
I-699
I668
tbag7
(g8
g9
NtRp445
(I0
S'87af08670bdaaf97e34eeb49350d9ed6793f2393b18278991cd9e650a9cc17f13351587baef00ac5b281d0aab2b3856463acb391eee76073637d7a3df5a0718a110f68c87f5fc9938d80734c5e39d8d64b41d8dL'
I-700
I668
tbag7
(g8
g9
NtRp446
(I0
S'5434bd3025b5132196feaf37362567292cfcdfadd103aea5a0358a491fed09976eb7b81c3ed7b21ea193092ac02fb2edd58aa7c5407cfc15dff5ca96dc8b652b5ccda1132aa6668b787feb22691424a73962579L'
I-701
I667
tbag7
(g8
g9
NtRp447
(I0
S'a38c941c2b5694be517dc4a1de44168c57f594c3c76773972f0731b91a9801701fb833eadaebb91cf7ec7ffe7086a3a2fd6a05781e44d1e7716ad44d28b5843541bb0fcbe3fac4fc263859e01a193830e95c397L'
I-698
I668
tbag7
(g8
g9
NtRp448
(I1
S'5ce1a9b4c10f12b42f61353c269a6beb6cf6d3735564752dda5040652a761e0a101a94196ef499848bfa88ef84fb9bd3dc4fc4d7b1098c322fef526d0e8ab345ffb86dce0a93a1a056457dca8a89b98c14bdadL'
I-694
I663
tbag7
(g8
g9
NtRp449
(I1
S'ca8230a8cf62330295eac692005f128cf49b42f54db9805c3e76a3990282e090dd4e1edb436fde3d5f79c87aca4a8580a6f621c25b3e02df9e7adc54077637a75e41705d2a4452f0aa00ce2dcc4eafade045053L'
I-698
I668
tbag7
(g8
g9
NtRp450
(I0
S'272b6fa11d3f5d8c72884a173938d065bf73cb633ee580a94e97dbe2026364b27b49c8ece102f080ad788e45238ff1edef88530eabcc5932a1e7ded1a90e9cad9d1e4fe9c1165f410b8062f0a46d023b8da559fL'
I-700
I666
tbag7
(g8
g9
NtRp451
(I1
S'fa9e04adc2e5dbdc93d727085b7155f8e8ff75a4cb8743c105f6ec2180b742e8e1df30af1c68f61ed5ef501c574994ee9206c0d9342cfffbe926c4225aac15f6baf6bd02358d101d4e72240d1a0f28ef8585323L'
I-701
I668
tbag7
(g8
g9
NtRp452
(I0
S'4bc38fc96ee1a6529d0a9f297b119c7eeb9e8d348272e6691580abd481c5ba0eae06cd7ccfc4ae625c92f9f294194e828035ce58d5e1f771461ec1982b094b7a316d40c1913cfff429937b982756c172cdc5ba5L'
I-695
I667
tbag7
(g8
g9
NtRp453
(I0
S'4ce2ae7163584c52746ee5c389c6abe5f17db820b2955f003dbd438716f15a832b053609d8ad5a986ebdc3a54bf14f2b93d4fd16639faf569106edf04b444c4a38ad5207dc1bf75723f2be74f3ec2e7cf681c79L'
I-698
I667
tbag7
(g8
g9
NtRp454
(I0
S'14fd8ac77ef94cc322a21f93b8aad7dbc3e353f9232bcc64e3e0a0e000e9a044ef184ed32a6434088ce5a6e890796efe1710554f90f05da65c8812cf6f9b18217b452ca9b739bde5cdf039d8a29c874f333663dL'
I-696
I665
tbag7
(g8
g9
NtRp455
(I0
S'a69278369985d05f473aea58fe25f454251bbe6db9c27d191afe1ad926337f56817d55b7e6fc3e07c4865e91db667eb947e8b1ffaae50e992ce190981ff3945c9aec8b9921f53201acf7e647da833159120f6c1L'
I-697
I668
tbag7
(g8
g9
NtRp456
(I1
S'25338e69e4335053bb4fbad722302bf3a0e90aed85cdfed3a3bb67564db96675a19d2f0aeb1c8fdc9152f75f055c75bb3608b2a446025f15ceacd60092e6bc5eb73155a5e06ea559af706deb522c472d9a1a54fL'
I-697
I666
tbag7
(g8
g9
NtRp457
(I1
S'bab787e74e7870ab4497e6bf9d0c16f244e39ac900e69a852cd528c0ebf85174f5baa0e17417f23acf0def7b9a9d1183ca2c94d39a3a18a85a1b4a1d17abc742c01ad5e39516fbe676dffecf4514970f03d3791L'
I-701
I668
tbag7
(g8
g9
NtRp458
(I0
S'2f87a2c5b5e505bcf85e607c083d241f629f498a1bc0bba8ebb1724c0f1f9a6d21551d5542d7903c98c9e2fe8bd131ebacafa6049cbaac8a22d23c3f079404c12147fb6d34f6b8fd4730dea55d198ac551cee73L'
I-696
I666
tbag7
(g8
g9
NtRp459
(I1
S'7692166197f33c708ab8404d5acd4f32368c24832d7d9b5574efcce315d3193373c9cdea9b4a6f17c853de293beea0dd1a8b3af0f27a03acf30005a8329b6e1d535ba9499d590bddf964557f75fbe38480a2d3L'
I-695
I663
tbag7
(g8
g9
NtRp460
(I1
S'd8eb99bed122ec006a50e19918a504819ad6a5c7bac37bfc5540a41688b1fc359bea1b637cbd2c84ddb5476046b29b2ca341a11ed2ac3a3df863f03a5f87264a2cd03016aac71edf5fd426692a6fa9d42f5b52dL'
I-697
I668
tbag7
(g8
g9
NtRp461
(I1
S'3b82de15a697ec07d7a97d346617b32d6b215c6f1f35fe2219d970c963243af0be0f797cdc38224bbf946d81d8b72d6fab8e0e8aae59e5ec6f9bfc4a4b2615759400910e17ed3e6ba7d6c0bb1c07aab29f81163L'
I-696
I666
tbag7
(g8
g9
NtRp462
(I0
S'71a19a9a6bf4744ef9088c7d2102a509f7fbdf6d205ad5c395f53ecc704d8f78c57944bf0119c800d573db99fa4e88cb1b95756617ed476456cea715b2d36e02359e120f22c7c04bd75e9eb526cdb75a1b726b5L'
I-700
I667
tbag7
(g8
g9
NtRp463
(I0
S'4fd6848dd8a150a2aa98e857ca11d5a23e437d1215e1c5398a8b79256a0cb1e7193ae3a230ae183764465a161205f221ae761fa807ecffb02f4b37c68434ba898bf73557500961062411345bda08f12fd811893L'
I-699
I667
tbag7
(g8
g9
NtRp464
(I0
S'66709f6b94245a11e8346f4b0813758ab3c005e2c0f9db53ca0dc62c5d6bc081e7ea17f410158f632f65aa01040931f6fa1be66f065e981f8095f5a181872a7d67700e4881df9e2bdaf13526f59ad68a179d64fL'
I-698
I667
tbag7
(g8
g9
NtRp465
(I0
S'447044a8f50c78b002b706f5175c3e321575f565ac5c70670bf321e17618fad3b06cb813eb2c41d68987b40e33bcd94dc4ce16a5b4fbea26540f749d7ee9f2737c1b808a3dd68ac52d29f0e3ef9f6a15d51cf1L'
I-693
I663
tbag7
(g8
g9
NtRp466
(I1
S'ac679d75e85a8e68254b17ca963e8adf3a445fc615d1212946bdd5659f000b5f4eba56dc7f9b67ba197fd4bba16cf57a4ab4d6a8269b465fd4d15d9bd936141897af16326338d5eac81082f9967b88cb555c329L'
I-697
I668
tbag7
(g8
g9
NtRp467
(I0
S'4a8a0f35f5c4701a69d195c2b4fef7576e18d9c44ac61e875f2ee5d14bf2e4733a1e731ee87e845f139b0b75e06a3c0f70f4428a5ebc64d6e1cffbf2c2d37b12aefb6e801ad04429dfda63cc70285ec59698fe5L'
I-700
I667
tbag7
(g8
g9
NtRp468
(I0
S'864751ddee54418f7d6affc807d491ec20a60324c04f346fdacd6583fe15c889e747000a0e67bccc5e676b8203af30964cb2d2c77da26dc40cf9ce92547e640c10705c60e703b34854ad5d333ed833a25dc34d3L'
I-699
I668
tbag7
(g8
g9
NtRp469
(I0
S'f7361dc92fc349aabec4549bf38161b49b114c0dcdeb85ebb0ba0aebbf2a875de64f51787cc0f00bf8808677e2fa47cb495f9afcb145b1e5645a20056f87eae8d2be14f2a82c78f5f74129e8ff6fa7947288dL'
I-690
I660
tbag7
(g8
g9
NtRp470
(I0
S'9ef015539c4d2561dd1cdd0f3be76dfc1cad8ef7a6f9150426f685885fa9a728cc5f04cf4e3cf73d78f58fc64434f2ab61c38a557aa177a1e11a039e164bdb3226bc97fc219b30ef4ad4a78a656a9b2ca7ead97L'
I-698
I668
tbag7
(g8
g9
NtRp471
(I0
S'd35171b743017957a5316a7a6e055d1cb3af82fc01afb3f594525f2a23a8342c6415e8433c6f71544a595bd98412846c4beac7d0a20f9b70d881b9d0285336dd45228381cf31bf1eccf150fa0c65f095d28b76bL'
I-698
I668
tbag7
(g8
g9
NtRp472
(I1
S'8850bfaee5daa4ce63c95d96711b546cfb7687aa602b4554f45385c4d0517df82b620dea568ac115510e4dbdb6a49867cfb15a9f8be7b3fd1f17dd6cf70eb0f542b6791c0a41906a0ea6c23c55efc2202ccef7L'
I-695
I664
tbag7
(g8
g9
NtRp473
(I1
S'394efec0f63f7a5f7fcd4c5de9a6b379488591c20207741d1c8e9688d993bd3722f13584baf686d0656f5a67b91b96cf83f164c1b2eb9040d386bfaac93afb83a66a33e4bbf416ec398255460b73622dae1942dL'
I-697
I666
tbag7
(g8
g9
NtRp474
(I0
S'54deab936d1707bf3791e1d71209026c1ddde84226be0e9c109951252a0d6405a4326691cb25f977156ce44b6a811775f274feb57dd13a28d8bd9bf56e6626810e7dc995ec046b90db493508c058adb8d1be3a9L'
I-698
I667
tbag7
(g8
g9
NtRp475
(I1
S'860e9bd17d09668f6e0348d0e2ebe07ad8c8a4c80e5516845dd63342bd93197ccfd360fe35061674595538678316e089b577373df471b193b3c83d93f7a6c713b06dd1dad7dfd350b7f16df1b2f33120277703fL'
I-700
I668
tbag7
(g8
g9
NtRp476
(I0
S'8a7968c4f888c86d0530b08d8cd6e1aaeb1f82e08ca49b8e23c41010366659b822514247f26e609a8b0ab209569b646bd67060ad076cd39356d25d4c4b77ecc73912746148292e7d50b97557d2f3e9dc8c57e7bL'
I-698
I668
tbag7
(g8
g9
NtRp477
(I0
S'4ce2ae7163584c52746ee5c389c6abe5f17db820b2955f003dbd438716f15a832b053609d8ad5a986ebdc3a54bf14f2b93d4fd16639faf569106edf04b444c4a38ad5207dc1bf75723f2be74f3ec2e7cf681c79L'
I-698
I667
tbag7
(g8
g9
NtRp478
(I0
S'86f4f5ed1d9a0b78ba1422a8d276793bf0733300cf03d86017207b8f235033c61dc975fdfbf677ffe2e636b48d65c65feeb3badbfe5c357757fa3a313fc17095a60604a33cea6d9ba497f4e99a9b28cd9c9e4ddL'
I-695
I668
tbag7
(g8
g9
NtRp479
(I0
S'bdfb5e94e8263a37affe154e15befcf853b2b95196a082e94e04b68c5f578944bf5de0dccf52e914b8996c536577e9548dbaa264234f0a24af40f4e36125fcd187fff1ec23946a4ed39d31a72a88d3529671d6dL'
I-698
I668
tbag7
(g8
g9
NtRp480
(I0
S'af32a91c808f100d5d9f953712505599f829f871af31a209849c851410957543dfef6e5a07795ba81bc449c563f9fafab532c32427b28be074ff5ffdecaff1cabb2587c56f5f8707947933d8db4f5a2b30b9103L'
I-697
I668
tbag7
(g8
g9
NtRp481
(I1
S'6f6a27933aa2a4a8db13a6f9a7201d856cea581d5aeb2f12c2e194824b0cb12956b2bd4a9a8088f0211813dd501684b2e46d127a28fe4bfc58bed58b98314f13e786bd61d28bbba0b77a2440b0934bae3197809L'
I-698
I667
tbag7
(g8
g9
NtRp482
(I0
S'b1cf2f590b89cc643691757c53d3e463142c2ed23ffdf7c93f2d14270cd4071b42d09d604f3aeafa47f79bd197acf3c4312c1e3bd43ec1b6f0373d4544c772709c6948ce59ecdb4684faf88eecff886ba380157L'
I-697
I668
tbag7
(g8
g9
NtRp483
(I0
S'1e605ec978ef3225352871771cc11f512477e0dad0f623fa54063d527b9f86f052117097ff5d6c433d3f4dba76f8f666cb2496793d0386ed42808d5e318a3b4bf0360129095b6f6128f5a8bfef7d77fc49b5fefL'
I-696
I665
tbag7
(g8
g9
NtRp484
(I1
S'5e59b72105ed58570d0440ba19856000f460877547375454a638cff6efdb178bbb383c4067960068d49594e4b913924f32d6f051d69b9569358f1b9b7fa1312560bcb42bf82bd470b09413c95783a1f6a72aa57L'
I-698
I667
tbag7
(g8
g9
NtRp485
(I1
S'28ccf017587e46254152f049ab6faf207d4e9db6b2c772e3da5ecd43f5b3e4dd0e52a9eed30b50333bdb8567de631c4f16cf4e4f64ae9e3f0b0dc8b583e1afc6cd70087d4dc13cca6c2e2da8922f5db6bad77a5L'
I-696
I666
tbag7
(g8
g9
NtRp486
(I0
S'23fdd13ed823108fe2a9f6b64834c7f2eff9fe32977100bbd9527e5e3c71d56009d3051c3fcfaa3c2ee512a37c89ceaca38dd135677a89f5d000c8ac07ae27dba23fc9fbdc2ebd5d1385eff0e6fee04187268a1L'
I-697
I666
tbag7
(g8
g9
NtRp487
(I0
S'24f6767a6744db633cac077db9201873adaed2aee944aed02722131b2ff1235097150c2ba6ae62b55e7e2e5b615c1200e128de415400544eca77589f7235cb07371789ca5a0181f6056a2bd4394b2145414f65fL'
I-697
I666
tbag7
(g8
g9
NtRp488
(I0
S'866e5de45e1c2e81a6fa7cdc1079caadc4ccf7576115086670b5a5d9e9530ea6cc0b5ede8296be1e1c5e22496d2933d41591f0df7f53279ad687ec8dac102187a90d72755cc115976cc1d0d341177e12ebc8cafL'
I-699
I668
tbag7
(g8
g9
NtRp489
(I1
S'3432b7a5f42ae60d9a552ab0140834b3b26db28c0090c30a15e9ee8b09fc3a1b5339f4f53556b72960fb147da8b1b1c234c72f44140edcd77d2fb8e4b63d6b4bc67a6d2cfb068d64fdf934f0784af1ce92b4123L'
I-697
I666
tbag7
(g8
g9
NtRp490
(I1
S'68f73c24abd4b1fe1e7cdfc2c99c9f1292a0e56fafd35c32cfbd941b36ffaf1a2f32b47684e5dd42e892bae496ed7100ac1c7f509bad829a8d7099f6363a29da0b113bc600b2cd8ebf1005423c01c115a771d1dL'
I-697
I667
tbag7
(g8
g9
NtRp491
(I1
S'81bbe531e93b418eef4902243dec92d2319a78428b814e6ad9bfa6dfc3eb50f89cd0d39be8a2066d1808db70e9c29b9223605403a706b9cf96abc95317d5b596850d1c9c61e3fc8db85174203c0b0eabe3cdd3fL'
I-697
I668
tbag7
(g8
g9
NtRp492
(I1
S'4ba4452d8ccd35c72d83c92631538fcb125f54fc3764b635cf27139380dffe728235e05c14c6620ee3baf25cfc2386cdc880d272e34cd47f8d67b9256041a8684fb66b51e9d5dd8cec7c057ed28947f91290dbdL'
I-698
I667
tbag7
(g8
g9
NtRp493
(I1
S'8ffc4d745f9026f96d38a20d165b42e22488f6d2b774a79da02a4b0c60f871094ffcc30935403f4694b2f75dfb81a6091db7f380fdb980aed0dd4d8790e504c3797004f7e22b03a432c1895cf9b36da454ec707L'
I-699
I668
tbag7
(g8
g9
NtRp494
(I1
S'670ae2d3098caeca1f979820084580f4dd821c656a8b8c3c3e2d5eedd16c3fcd2892c006d800661a518b0d03d7b641443e077a69321332c7cab760db70b80ca7381e46c627957ecf57ceabcffe614d120fc1059L'
I-697
I667
tbag7
(g8
g9
NtRp495
(I0
S'd0036938080ffe4bd32c11f49cff83f8e89679af52c5f47da2e97d5e415140cd0f1f85f6c9c4e2272df0af6099786958374db928c5d2195a42102d341a9880aee0a7360a3510a77ad7c662438aafa5249bc595fL'
I-699
I668
tbag7
(g8
g9
NtRp496
(I0
S'8e8ce4311bc0b172faa870f9e9034c6de498cabfc5ebc56e54070d92a764e643dee8af413110e18d81d0888d8c662cb7b2d84735135836a90a8f56cfedfbd1068f1e1b5b81fe581a8030367eba97a5a8cb7aa15L'
I-699
I668
tbag7
(g8
g9
NtRp497
(I0
S'3ae05e19a326076a930e105a59ad48fe9add8ef6a5677d69b95fae27044d3eb2cbbdf8800d51a6383e61b7a13c1b2f430184582604f7a5a51f3e35c168923374bc146d3cff6d2dcad9aca8a5333b2b5e160591bL'
I-697
I666
tbag7
(g8
g9
NtRp498
(I1
S'17cd60a7a2092142c13cb0cebd501f4be870f62904b20885e8d927232912f44a39ca504b45984a0a1f0380a4fc36e17a2aa8eb5323273461ef5d97c8b0577d773361f37eb1dd9d160fd68fc0e1181e4687b6075L'
I-695
I665
tbag7
(g8
g9
NtRp499
(I1
S'110a8026c45cf150042f883a39095e55092f454e7f72820ba54a36f8bafc685de72952060ea7991c4bd62322bbd24063b4ee969f938c81360b8ef2529c035ea5cf25b3530ede886d77919752958dd1afe98e303L'
I-695
I665
tbag7
(g8
g9
NtRp500
(I1
S'2c6c24f5e98d64297dc24bb91248eab682bf3616b4cef2be9ff82019097d6086943ce84d6d1760f91dc8589e3dee6128f4648bcf7055ca0951d750311bacb04021f42464c214f8d2fdd3cc6d58e240b9f72bf21L'
I-696
I666
tbag7
(g8
g9
NtRp501
(I0
S'4e1e4776ea279922d3a2f13b5ad4e36eb1e3f9d5a0ba5d23b32752e9330b621cea2b049b428e99c6d9c77317db3a15ca9405a3a39c63b0f76e0051023cbdfc3941f175de1205d43f05791da934e838737820693L'
I-696
I667
tbag7
(g8
g9
NtRp502
(I0
S'14fd8ac77ef94cc322a21f93b8aad7dbc3e353f9232bcc64e3e0a0e000e9a044ef184ed32a6434088ce5a6e890796efe1710554f90f05da65c8812cf6f9b18217b452ca9b739bde5cdf039d8a29c874f333663dL'
I-696
I665
tbag7
(g8
g9
NtRp503
(I0
S'bdfb5e94e8263a37affe154e15befcf853b2b95196a082e94e04b68c5f578944bf5de0dccf52e914b8996c536577e9548dbaa264234f0a24af40f4e36125fcd187fff1ec23946a4ed39d31a72a88d3529671d6dL'
I-698
I668
tbag7
(g8
g9
NtRp504
(I0
S'c77817a8c2b0a41b3108a7b2e177c192d434c9c736f5fbe1387064d1585538f99d8e7947571da01dde0f588de7bdad0f102c80410aab120c604cdac04db0cba9e6adc3577f3e357a6d9903f2641c6a526d8689dL'
I-696
I668
tbag7
(g8
g9
NtRp505
(I0
S'19ead7d766765d7e78b285f8fac4cc3b3a54ac01a61efaa4aa3c81133326ce60d09bcff82a4d7bd91610ca7528e63518753ad341331fcc8903b88349f4dc814e447a7cfe8cce28b3e96290ddbcd287d5b93e665L'
I-697
I665
tbag7
(g8
g9
NtRp506
(I1
S'46e48523489171a08f8e4471f373fa8161f93cfdc698a26df753e5ae58480eebfc7e2cc03d4daf8b144e4fd3b0643ff46e6cc8eecab3f099b4a778d6d96de545160e51788a82964511ad8cc1e56018a899e2a17L'
I-697
I667
tbag7
(g8
g9
NtRp507
(I0
S'4e1bdb1301a85040b7b39ce3715dd81d8f1dbe09ae8249b1f9732234b5878e8b3e8d4976480f7fb2c438b794d2dec147f43b1cc8db5ea1596d75e3f76a105f34252734d9b0b9c05b2baf77e57786a6a41d466f1L'
I-697
I667
tbag7
(g8
g9
NtRp508
(I0
S'aa9b94d152e6418f23c4ef4669d5de7df68ceb96c5c1d7b7a21f8113b2eee2e1c699b30b9419397f8eae6ec24c64859c4c3c611ce75dd589d734bbb0429065fdea74c630a8e703843b1136889add571d499547dL'
I-698
I668
tbag7
(g8
g9
NtRp509
(I0
S'51d69d7e3ed1e869ecda69acea8ebd7a8a6380f921776d14c103ab15a49a61e7a3feac96d6f91ac5244c13dff70e4fbea5a161398af05b70a91ae926d02e98b659238a53a813f9f4e6e9a17aa675e489164732fL'
I-698
I667
tbag7
(g8
g9
NtRp510
(I1
S'd1e62cc8bbfcd47f3d5090f96360c2590f234429ed2a0cc0aff16dad5896672ba809c381b2056991136d83f522ee66203db0a6889fef8a26ffab5485bc12bfdeae0f0131875da24fb3749e61cdc31ccb134be9bL'
I-698
I668
tbag7
(g8
g9
NtRp511
(I1
S'4131c1a811b8df59aaa89421d0c83842c20fa64fb982a60f72fb28d96ad94a12bb701340b2af2f6d41b08045644e6c67924ead2929bf0cfd2a12efe3a3e2d12775e881898415e030e23e9f2e74e62b12f1ffa03L'
I-696
I667
tbag7
(g8
g9
NtRp512
(I0
S'c468fab3bc17b1d376da7633f7ca5650ff3b57976a96e42baa5f0388067d73fdb25c451b62acf0f4307f08660df389d358642b03d8cd4a07d1c4fe7c071fc0c2a2496c4264353e00f6ca6d32cd921fc25073e05L'
I-698
I668
tbag7
(g8
g9
NtRp513
(I1
S'804e71f8ed82ba6933574fc9fe8a6942f6c43366a7ded2bc20b0cb816b9824f67a98a4a73660db30617bad607b41e3221d4c6f3beac817f16e8132507e684169d18d7e9bf509bd52ceeb4e92e722b5a8b91459dL'
I-699
I668
tbag7
(g8
g9
NtRp514
(I0
S'26cf8f9cff410f8fd381ec6c1bcb88a1a6c9c1b93dc61ae259b72560b9e8c4a48999d9bb28935f134fbd30cf23f4f51e1c6532572e99755671370412982e03bf891c116c40def74c580a0058957442ed42480e7L'
I-695
I666
tbag7
(g8
g9
NtRp515
(I0
S'd4fa057a0bc2ef6eca0b0bbe1f437ad243146a3cd28aded55e6dd35eee341cd7a0f8043aa6e58c3771f9738b5923f0be11b59433aa03815ff6071c8c7a8870dfe1e66490928810ec63221f3fcbfc272072823c5L'
I-698
I668
tbag7
(g8
g9
NtRp516
(I1
S'fb34f6130ec2fa17790e644e081d87d748167991ec3653d5bb12d0c88c46dcdc736233bda2f5958372f6160fe34590c8eaa8e08070e12486fde99b366d5c5fbbad257fbe0111cb4b498253e0d8a858521a556c5L'
I-698
I668
tbag7
(g8
g9
NtRp517
(I1
S'984d90b0c7269880ed9aa580e06fc712a2686b638b9b9026014ef249764143a2d68c061563e0e18b9db3a422e9da8dac568d394efd93e67ef9cec3ded397b16cfb1e51e4c911e20ebbe9f0bb805d704730a5dcdL'
I-698
I668
tbag7
(g8
g9
NtRp518
(I1
S'2ed59ad38466811b9e1b0902cd06fb967469f6cafa5e07e66711571522dda821830a098a3ab28bca8d23ffc5dfc4e292cb32944585c295ff1a410d81432000fea71853afa72b5ef0d3b1b39c6c08a78140827b7L'
I-698
I666
tbag7
(g8
g9
NtRp519
(I1
S'a1565eb177fb5c7ab945fdf0849dddcd8aee2d0ac1fcc31b4f883240ceed65484b3a6807b992e4e8e9628192b26b7961b28a3194bb70b6dc4f20e4944a35eb1e469655f7e9096c657bb96d864448dad87ed463L'
I-694
I664
tbag7
(g8
g9
NtRp520
(I0
S'2b8ca0d30e880c0268d2e72106836ec1daaa2437ab05eb2429d5979833440f783544c448b57c78a7d3a8ceae8c421e61eaf73987eb2e9faa0eb5c50fa60eed808febc594d4f341b42f1bdc905c9c80e8493f9cfL'
I-696
I666
tbag7
(g8
g9
NtRp521
(I0
S'dd758920ce4bc89690697c4a5558cf824543aa4f274b9ee16556700dc539090bb740848767e19ae27a9aa023d51bda0d37b821f71f39e558336377cd8d54ae88782ec2610e541b31b1c5a55ec93dd0e5319b62bL'
I-698
I668
tbag7
(g8
g9
NtRp522
(I0
S'30565e30bd87401f19815cdb9682559d3ccc02c2243a3ce121cdf59330db6bb2f32e09e3e3a62022b00d2d8c7b860fd97b7c662a9b4606fa5deff152f21f3c4fd761596933f1a83333a8e7bc251d4543084c449L'
I-697
I666
tbag7
(g8
g9
NtRp523
(I1
S'444760e218d3f4a7c79ad68d3a1762e39d13ecdf271e9aecf2302dafd8f8a68029bdaaf598ecbdf39399d2340045e28de21a00034cd9484329a4d1590b953df0500ca336d68e7e0ade6551feb5837fa9ec7d4d9L'
I-699
I667
tbag7
(g8
g9
NtRp524
(I0
S'7642627b8c2fe9f7929c659b3973b6ca641d7b805981192dd9cfb562b662047b64738f6f37e2d179c6701cca2175b140d0851bcad4c8211af3a4c50de6f4adda9fd1ad9f81e71c2b67ac0479adafe289f81c497L'
I-697
I667
tbag7
(g8
g9
NtRp525
(I1
S'917368776ea137c17b104e0ca22b04765c0c434a8c5fa0e268a5ddbc673839db8d394364e31f47b82b144d2495d4e24ada8d9bc725cfb64c7ac8c9e08158160df99974ab0d55b3069634dd2812ac048c41d0485L'
I-697
I668
tbag7
(g8
g9
NtRp526
(I0
S'1a0875028fe3014a35ca5603c88b576727337bbaa83d4e7f05e57b2590e0d8271b27fe763ff4f0c5dab0d2d3d06a799b47fe2ea28abb453094a25d72cf14062c1899812fd2ab113ec1e09ba614e31ce720a1733L'
I-696
I665
tbag7
(g8
g9
NtRp527
(I0
S'a69278369985d05f473aea58fe25f454251bbe6db9c27d191afe1ad926337f56817d55b7e6fc3e07c4865e91db667eb947e8b1ffaae50e992ce190981ff3945c9aec8b9921f53201acf7e647da833159120f6c1L'
I-697
I668
tbag7
(g8
g9
NtRp528
(I0
S'af32a91c808f100d5d9f953712505599f829f871af31a209849c851410957543dfef6e5a07795ba81bc449c563f9fafab532c32427b28be074ff5ffdecaff1cabb2587c56f5f8707947933d8db4f5a2b30b9103L'
I-697
I668
tbag7
(g8
g9
NtRp529
(I0
S'19ead7d766765d7e78b285f8fac4cc3b3a54ac01a61efaa4aa3c81133326ce60d09bcff82a4d7bd91610ca7528e63518753ad341331fcc8903b88349f4dc814e447a7cfe8cce28b3e96290ddbcd287d5b93e665L'
I-697
I665
tbag7
(g8
g9
NtRp530
(I0
S'f20eac100caab0fa1353b9573f090a3b9e249489ea7972236d500bcdd2ed1d2b989df2b17b423857a7cf447eb1221b4d5c61fcfe250abdceb0d57b44e4f5820981cadff9be1b9d260e62a5f93f350e6db1f75d7L'
I-696
I668
tbag7
(g8
g9
NtRp531
(I1
S'12da87b82f6451cc06142c6b989bce3aae66402353026ecd500e9bd3cd270218b1423524d7b5a169d41d0301bbb808a9f83c4c8e66b3378026d0408ce7fe12ed62032df7036694cb7c2f2f1179cddbeafed7dd7L'
I-695
I665
tbag7
(g8
g9
NtRp532
(I0
S'51699b4ddcae88b9e4a913e54550a05cda2ee3d7cac3e1f06c0e15c86d4d7d85e8ea2922d55be9399e49758eadaaab1cde44eabbf8efeb2ebcaed07e01105ee0f5e7fca34b3ed520baefdada3faa6fae1386919L'
I-697
I667
tbag7
(g8
g9
NtRp533
(I0
S'd75744e8f2d771c8f4ebf8cef0098389be78ce997d2aaa34972afe9e1c744dd95ad39d4dbb330f442829ce30a345831534dcec93021ebfeff9d703a2b97373a4e52ec7884f3acc88959585c9ff76b8791047d81L'
I-697
I668
tbag7
(g8
g9
NtRp534
(I1
S'46dd6bfe5d96083f69d3681b197903054c2e9e53fc80f9a9d390ac53a93e7ba8919367cfc337c914e5e2205f90c2a1a744847e374d07a763898f2390806a5251fbf73be64a4572483a8610d3ef7e3f9a4d8ff0fL'
I-696
I667
tbag7
(g8
g9
NtRp535
(I1
S'b782d3fc3f87fa0f966360c5aad27c77ca8f00967cd3d976ee389eb6fe215fa216cdfe6dadef9bdde3aacebb020fb2fd8c3a4c92677c4423a5c3ecbaf88ce7831e92e7290825b9efe2c5fba831c289b3a3b803L'
I-696
I664
tbag7
(g8
g9
NtRp536
(I1
S'4bae5a61ca47cc404d48d30581e332bdc72e8566e9959c8decf476e1346e22b1be434912675920b4efadc410d83a652b6150258cb31bdc85d0ed1ffbbaa7db5bfdbe9f2968a465df5728b5c2c0c8598e5f28447L'
I-701
I667
tbag7
(g8
g9
NtRp537
(I1
S'84e12525e1237d8778efd3eb5c355cd90337163ac974f19991acd9754518e63ec5a7c059d4124ad5405b4194b30e1cfef9dc0110aee208c0c67cb8dac6dfae3c04858c944dd7b5966f6b4891f47ab929118763dL'
I-699
I668
tbag7
(g8
g9
NtRp538
(I0
S'648c3ed3defdba7a1fa64ffcdcc7bcee3f194f57a92c90ef3e78090ebc27956eabb71996f02d29c677ee3b367ec38ce5d6434011ac4ca19669d1f08ea6075e55d064c57a5f1e04e83eb43f425a6e94546749f41L'
I-699
I667
tbag7
(g8
g9
NtRp539
(I0
S'f4297c0a76d77116da219e6fc2d8920b5b8e1fb4e2f117347dd7caa594a50b02c91a27048a287d47f5d33d35afd787fdf54f28e48fd68a60010c09e2c1b0d33291f3b19ce6f825938e49f1aef01af6714f27079L'
I-701
I668
tbag7
(g8
g9
NtRp540
(I0
S'959baee230b7a5e67b7ffdd349343fb676031f75f22426c09e76cf1a8908f756da96fbbfb602d8fb8b0527a204ffe303e9258430d35a326b87359e83378784b89a70fdc748209ada0977ce688d7b8bbee45dbe9L'
I-698
I668
tbag7
(g8
g9
NtRp541
(I0
S'43248803816aea9edd97a1540d555ebfbcda1deb6489c3e10b71db0c7083b8383e58eb2fbf01f145df8d461197c1103fbb9864bd5280e50f4ab28b2a61ad3b1ef3f0887f4aa420bebf8ba365effaa7147cdd155L'
I-699
I667
tbag7
(g8
g9
NtRp542
(I0
S'79845c5316205979f2aaa80c3f6193d2ad8f09e95c67b5da7a492daced1b9d60e0b7d1e2c840cd314af3ffe8a989585caba88c207f22df96aa136f2a141cbfd943e2892e7683788dd1807a278874325ad91b6ffL'
I-698
I667
tbag7
(g8
g9
NtRp543
(I0
S'60e81e6ce5261058430f9408039f80510d6006222ce5f29d4ba14a9fa9d6892631ea0cdab9894c11882bc9f1b82b58888f58cff294b521c629b2171fae8555ae56cb1b6191d2e48a72af8c09ba609d72922af6fL'
I-697
I667
tbag7
(g8
g9
NtRp544
(I0
S'8a7aa0cc543b7383d44db4e20dfcd503bafdce9a4c305d765a2bada0c4cba6e3cccafeb06d88bff5c16713efea168d3a7f6e0b98b8b76ff3b57321c3a6a49dadc145ae3e86d5e1f31c8f1c2e8c4d75d05431f4dL'
I-700
I668
tbag7
(g8
g9
NtRp545
(I0
S'1926d4a0f716e3df4baf6ae0a039365b5e4a6eba5c429d70261b9ba3f2be22dc901187f59c82c8ca0ef8f8653a4a025a4d4fe048ecaeb9e4d705e44e75988b921fc8220bf28e672008910e2d36e866fed120441L'
I-701
I665
tbag7
(g8
g9
NtRp546
(I1
S'2cb215c750345824eff0024e53a43799641f295f935c2fe474c0bb49b75e0e378b61faff28454a02e958d497e8bfc992254d4796ef78329b70185588bd227903cc5031c89f0d93aa7c53435d6c304c373602db3L'
I-699
I666
tbag7
(g8
g9
NtRp547
(I0
S'4fa1f2b9b0d905e87dc693ed9c2210153dd2472079fdaae60b6c71f0085b5f895036a7e09ab45396857d678e190d9226ff69797d1009b852f1a249dfbfd2129c58dfef0c8a6118558293cca43a8db66631015a3L'
I-699
I667
tbag7
(g8
g9
NtRp548
(I0
S'6e08043793901eba03dba631ffa7fcf68bd3df7a3981558b8658b9229fd08b203b531723593e6d0fdc66281c84a2aff6d5ef7672d425688a82812ff6cce9380f91e955826185487db5c4ad43bc2d7444924d8d9L'
I-697
I667
tbag7
(g8
g9
NtRp549
(I0
S'31b17c6a28763dbed5426c4d867114cf2433931c20881619ca9862594a50061b81556f37409bbf62a63fb8096eb245fb9f59eec55941e6fa9ca0e288bea19140003ce85af7dd13639cb095bd0a6394efc90c20fL'
I-696
I666
tbag7
(g8
g9
NtRp550
(I0
S'3e128bd45e8d2e2e4d3f6001bd87ddbaa4a75ecfc20be4dd47ad31376497419a95247cb6493fc618a4ef167cdf0219f9d1628a04384cd41fd0966c342d2b3f82ce4a989a9ca786b9ae48150f4246bcb34ec8dadL'
I-698
I666
tbag7
(g8
g9
NtRp551
(I1
S'4e6f2dacb2146be0f0c372bc671635de252dda0c7b1623c0f0a873d229633b6da775bfc9a0ac34b0120b2eed9af5c71d8b14b0dd24cbc8fa5caf58649a5689aa986e9d430dc072deb86b96febb334882c282bb7L'
I-696
I667
tbag7
(g8
g9
NtRp552
(I1
S'25338e69e4335053bb4fbad722302bf3a0e90aed85cdfed3a3bb67564db96675a19d2f0aeb1c8fdc9152f75f055c75bb3608b2a446025f15ceacd60092e6bc5eb73155a5e06ea559af706deb522c472d9a1a54fL'
I-697
I666
tbag7
(g8
g9
NtRp553
(I1
S'6f6a27933aa2a4a8db13a6f9a7201d856cea581d5aeb2f12c2e194824b0cb12956b2bd4a9a8088f0211813dd501684b2e46d127a28fe4bfc58bed58b98314f13e786bd61d28bbba0b77a2440b0934bae3197809L'
I-698
I667
tbag7
(g8
g9
NtRp554
(I1
S'46e48523489171a08f8e4471f373fa8161f93cfdc698a26df753e5ae58480eebfc7e2cc03d4daf8b144e4fd3b0643ff46e6cc8eecab3f099b4a778d6d96de545160e51788a82964511ad8cc1e56018a899e2a17L'
I-697
I667
tbag7
(g8
g9
NtRp555
(I1
S'12da87b82f6451cc06142c6b989bce3aae66402353026ecd500e9bd3cd270218b1423524d7b5a169d41d0301bbb808a9f83c4c8e66b3378026d0408ce7fe12ed62032df7036694cb7c2f2f1179cddbeafed7dd7L'
I-695
I665
tbag7
(g8
g9
NtRp556
(I0
S'8763022d1e1077ff5bfd395f501e3e1a6c5b86a60f9f729121a6c2e613a033b68e79c419786dad3e5902b372def7f868c379a50166b4e5bc18f47c6e2dccfce17371849da3ff1659031dfe034c9fb1f0dcc0907L'
I-696
I668
tbag7
(g8
g9
NtRp557
(I1
S'b247dc4f64b8097067ac2a73e9a0178c0bf3c4d195a616c810cb0a40c8441320e343c86a885e68f91aa79a7b82f59d0bcc6e4caf729afa224805efbf14b648c820b22e0c1c171c268d46091af0307fc9ff96a5bL'
I-698
I668
tbag7
(g8
g9
NtRp558
(I1
S'7247340935bf98f04f43eb39494e64a97065eb6e2bc38b7feae1ba80f535e5724849a2416d3aa616c5f960cf3a4b13863db8ca07dca3068090961ddf0177f42336fcd56fde9d832538b1012facb0d5cc8bb88efL'
I-697
I667
tbag7
(g8
g9
NtRp559
(I0
S'104aecac7b189424679a07873e67f11e09c7a8d9da483e0d6a80622ce00072652cb8983df0c807a5759fb12a6a37640b4679f10dde8b71a6d1a9ea89f2f9ad8190bc68aa99f059f33101f2bb122ae6bddb73b9L'
I-696
I661
tbag7
(g8
g9
NtRp560
(I1
S'513e16982e740d1fb64c280f9cc03184d363e1cf00f3b575430faf87d2de37d3344594ee3dd61d8ea88d1d9f71c32041bc916266b1d06343c71d601967fb5bc3f4ffae79718a76202224bec64bab6c4d396d019L'
I-699
I667
tbag7
(g8
g9
NtRp561
(I0
S'9bce58f476a5a1477c0f824da435d825044e66e67e7207084cd9afd0975c02cbe5dd4291e27dddc351ece088243c6878e337d536e22aec1753f19c8ada12960c2558358d8f40dc2e77f31763323136fa966e87L'
I-700
I664
tbag7
(g8
g9
NtRp562
(I1
S'98baf59be0c4f57cdb542c8638ec0248183139680f703ad9be1c4f2b4bcdfbec253827ffc93357f36c8de07ae8ec4257d88d3f989468ef1c666ae7b02c4b390b00ec3a88287ff3cc4ab5aee448015e307e72307L'
I-699
I668
tbag7
(g8
g9
NtRp563
(I1
S'2f7ea4c0ad1a750d049d18f32681b01ea2f535fdba344f32d775757d6663f656d4f54a5313a410298348111c40a3ab9a83474e60e9b24f68022477715ef730a34098769e66b19a502d3a07fb182fd8522cbbc87L'
I-696
I666
tbag7
(g8
g9
NtRp564
(I1
S'6a41cafac6f843453dcb7b44f2ade1147522bbefb62be8840edd25c7b319ab1a6b221d67db49a8adfe7a488ecd29f0e68a7fd1238e78504f80e9a717658b03a6bff29af92e995afa13c19ca38e0f18800917825L'
I-697
I667
tbag7
(g8
g9
NtRp565
(I0
S'c98b15f67a5aa9bdc3ba71252e073daa25e8f14a557087037eeaa852e72342440820bb04467185532ca827aa90ee89400b3864b05857a44fe196920e68d9b3163ad44662d422e5442621ec4abd8160a5fb18dabL'
I-698
I668
tbag7
(g8
g9
NtRp566
(I1
S'601a44254c94d4bb55e89eb8539e903bb98657ff4804e266357bfb30043b83bbb30c13bb59acb6b608fe852406ad585975fcbdaa99a423a1ddf9d4c757745df6c537ca06682b3ca2d0e35400b193448f7b06cf3L'
I-699
I667
tbag7
(g8
g9
NtRp567
(I1
S'85fc61b6238576b403ac1cac9f23abd0a1ea6786cb7ffb78852ef4f84ebffffb9d2ff0929c211e470e53bc298195a50383bc18add71eb039f65bc207afe7612e67686a794d93bacf5b3810c635521088cc1d877L'
I-698
I668
tbag7
(g8
g9
NtRp568
(I1
S'3d4cbea38494202c6edd5b6cce0511b53267e7067f69ae9c09d666af7e2e17313f6f5f2c937aacb48328fc1d9046609054de84a33fb8cd4722dac5fbb3800aeb8ad1f57343f2e2af02a623ff07461b54f768fb5L'
I-697
I666
tbag7
(g8
g9
NtRp569
(I0
S'4c68badb7b6595b22cf25485d7d1f728bd4ae294288cb939ea52a19f86078e8224d948ab61afc5cdd9ec36955af96a132cc8603416f14ff48b210379298d0c26288b1e21943c4050bd74d236b02591467baeff3L'
I-697
I667
tbag7
(g8
g9
NtRp570
(I1
S'8c90c81664889c0f8a1a1f6739d5f4d6517ec643428e215979f0437cefd79655a9f740f98377db3bde63d89991850f06613f01d5ef6554bd0e2b66e0de764e38508b8d839de60316e2b7323138e7c4770d75cf7L'
I-697
I668
tbag7
(g8
g9
NtRp571
(I0
S'44801dbefbb8163c802038fd843c27059aecdd81effd629857222d740c5c6ed1967ed016aef397b89fcd107d1fdd491a022710497eef73683a9fcda7ce116e9372f5b5093ed6fed1e0b6e18a61fb7859791ce6fL'
I-697
I667
tbag7
(g8
g9
NtRp572
(I1
S'83510f50d66b0282e36f75498ac964a93089fa44e13c65596f4b3f12fc1b1c46941b5f74f40906095e4c2bc9fb95830ff7b022a5279f6a23c278c2aa260ccc9c3073ea6a424a1fa86eed29c810f861e0a46eb5dL'
I-698
I668
tbag7
(g8
g9
NtRp573
(I1
S'10344bb02c27649c14dbfb2abeee0a694228a20bb0a48e90ed0df7cd8299105f6fb9f751d8d009a7b7736739b60646e6a98448ec3186f5fb8b39f1646dd2fe74c7bfcf86b3bd814b203edb80a2b934eecd8b3dbL'
I-694
I665
tbag7
(g8
g9
NtRp574
(I1
S'fa6c64b9a0b8f155c85cb5d42f1fe7674e0e51185ec83b0edf893aaac01dc12faf3801e33cb3598310d2c488dfbe3d2e5c46e53d34b2a041057e037a6711e789d7b8126188fab7435abef24c547766ecb94b85dL'
I-699
I668
tbag7
(g8
g9
NtRp575
(I0
S'11d92fa994cebabf60d5e3dd38e3939ca926f38b890c67e561a18c02956751d990f7757ec88cda2fcbb7046559aee20d423683f0b8ea2d5e4dad6031884968d3b5a4f21811f5d98a821ee630b4949a4992c5e7fL'
I-695
I665
tbag7
(g8
g9
NtRp576
(I1
S'b0bb785633c0f64e21414f9fee6c88aaf5646f7b722a75530fd9b7b94af8d3c528a00ae7fbb4cd140437a3162439af95aeb5072bbafeae6a9296e5389a4c4e635d58445770b16c5cc9638b5746acb7f3e20d6b9L'
I-701
I668
tbag7
(g8
g9
NtRp577
(I1
S'bab787e74e7870ab4497e6bf9d0c16f244e39ac900e69a852cd528c0ebf85174f5baa0e17417f23acf0def7b9a9d1183ca2c94d39a3a18a85a1b4a1d17abc742c01ad5e39516fbe676dffecf4514970f03d3791L'
I-701
I668
tbag7
(g8
g9
NtRp578
(I0
S'b1cf2f590b89cc643691757c53d3e463142c2ed23ffdf7c93f2d14270cd4071b42d09d604f3aeafa47f79bd197acf3c4312c1e3bd43ec1b6f0373d4544c772709c6948ce59ecdb4684faf88eecff886ba380157L'
I-697
I668
tbag7
(g8
g9
NtRp579
(I0
S'4e1bdb1301a85040b7b39ce3715dd81d8f1dbe09ae8249b1f9732234b5878e8b3e8d4976480f7fb2c438b794d2dec147f43b1cc8db5ea1596d75e3f76a105f34252734d9b0b9c05b2baf77e57786a6a41d466f1L'
I-697
I667
tbag7
(g8
g9
NtRp580
(I0
S'51699b4ddcae88b9e4a913e54550a05cda2ee3d7cac3e1f06c0e15c86d4d7d85e8ea2922d55be9399e49758eadaaab1cde44eabbf8efeb2ebcaed07e01105ee0f5e7fca34b3ed520baefdada3faa6fae1386919L'
I-697
I667
tbag7
(g8
g9
NtRp581
(I1
S'b247dc4f64b8097067ac2a73e9a0178c0bf3c4d195a616c810cb0a40c8441320e343c86a885e68f91aa79a7b82f59d0bcc6e4caf729afa224805efbf14b648c820b22e0c1c171c268d46091af0307fc9ff96a5bL'
I-698
I668
tbag7
(g8
g9
NtRp582
(I0
S'1634c14eaf1dafcbc3d676c312fa868925a4dda5cc874847d759a673a74b2a86b8b3d124fa222e00f9afdfb611499feb8eb3414581d92e2dbd530a1c2cd5a1527b6d4c2fa845f2dc9120ea3467f357e69b8c845L'
I-693
I665
tbag7
(g8
g9
NtRp583
(I0
S'cc3c1a3496c42310d2adf456949cc198ed644ce0913144ee1ff0d58b8c30f32b9dfa841b8b22f59603e5bc76a62acc1c7c50377e20305e6fa677b94fa47b6ebefa05d997997baf13febbe05d7df48172a80206dL'
I-698
I668
tbag7
(g8
g9
NtRp584
(I0
S'9da2ca06219a6a7c9f9c40266d202beb37d043daf507848f34b0ddc1e163dadd5103f22a70768430372bf02cefb70340fb9655fa76a8f4bb7123b1b4678df5fb20ee406578611f95e1d5dc47ec33edd977b6529L'
I-699
I668
tbag7
(g8
g9
NtRp585
(I1
S'de309278acb29e6dc80332aefbb34741226241c56e022b30948a0d813426be202ba0b4cb7c315db47af464836136d20970887324c4bc359e5c21d263ad2f98e20067ee07a580bf32c688d9b14f6bb697412968bL'
I-699
I668
tbag7
(g8
g9
NtRp586
(I0
S'cdde5738bbca985765c5fe964186cd774e07bce60958a765fd38d57925ada74ef08de11cc0fdf8bb7817d21f6234ef43b9b16bc441fd79dc6d651615285d17b59e007398b550164d65e6152d93d0a9572f0495L'
I-696
I664
tbag7
(g8
g9
NtRp587
(I0
S'2e9a58cbbe34a224dc079056cedb102176345a19f0ec7937f53f419534090450f8447d8fea847894af1a6a57f15434dea36cf4592920919815a09dbe654a393b3755f44a89cecb88ec1969ee929551372fc6539L'
I-695
I666
tbag7
(g8
g9
NtRp588
(I1
S'36979960685a0995443f22308f8db7e5158cd1da5c0b2bb0c38df7b825af3f628f3f6c68bcf1387e0b7a590cdc4247c10c56bdb551d4ba212594be2ffc95fefba802b96028d2fc8397c1843af1e2b6946ec6efdL'
I-696
I666
tbag7
(g8
g9
NtRp589
(I0
S'cd47261b61738c7f0c773c0f3fbc83131559233803d309445e9be1eee5d688f5d8ebf316a63009a844c3d059e933d41835580f8c82f67875d26fadf9d7e6fe53297a795555e5773a018dcb0743e4fd9d14ec44dL'
I-697
I668
tbag7
(g8
g9
NtRp590
(I0
S'1ae3abf87d4d3db3937f8f7fe6ca036cbd6d7e3d3ff6a4067ede44cb370e459799dd5dc6a87dbda2033c37b7d9a195ef229d7051b49719e1c1230c13b074d12a5b52d00728c74712fdfad6156aef9d1ab1732d3L'
I-696
I665
tbag7
(g8
g9
NtRp591
(I1
S'943cfaadbd0c1e43ee6ce9577482bb1b4dcd0dc257616b5a6ce55c9641214e771a69e6f2b9ef940414846557e0082b59d02dbe3c11aedce909f3ee70bb6750f3a88f7d383cae66a728869b03526c4cd61394995L'
I-697
I668
tbag7
(g8
g9
NtRp592
(I1
S'a4bd78a8bcbc436d4afa16383b43a8e4c0d764ef2019ff2207974bc07be9ffe28725cf52071231d3652625c6079c3102988c839660cde19b934cb139af45efcd848cb3ebd362ec6fc7b12bda01a309f3697f099L'
I-699
I668
tbag7
(g8
g9
NtRp593
(I0
S'b819d73b5513f8f3dd3a51b06d722a4524556604911f3d591545265296898e7b9b2caa8700fe14d65f2ecf45d7db0194b14c9a06ca3d06cd8bfcaecbc2eafc38b43826aacb8377b6c81422c6299466a671ea539L'
I-703
I668
tbag7
(g8
g9
NtRp594
(I1
S'16313484eb322e53bc74ebd40a4f63a69083499b7b4eaf3824ebace51d795d62d4e167495134408832256a166d40cb2a4e90cdfd17bdf98edccdab66c647d09cf44d93fe9e08988e0348fbe683b8ce9d3253bfL'
I-691
I661
tbag7
(g8
g9
NtRp595
(I0
S'4633b302c3beba98d2624da73d52388776622b2af37ffbc4cbee533a232082033f69e846829adecf677abd707e596e574c1d1430b63eaccecbb383bda59d550c36bf4ede7a06abe6f2ea6f321f004a459c3abc5L'
I-699
I667
tbag7
(g8
g9
NtRp596
(I0
S'7d11e8c60d53f71c97d3de25ee64417173fdfca085a22b7ef5e721d2b6c497a82aaf78f571543cab6f4d7161131f5c04c0c1fa6f720c654f9aa0200a3fa61a3f4615b2cf07bdb2257b0d82eb5d590d340e3a891L'
I-697
I667
tbag7
(g8
g9
NtRp597
(I0
S'9640726e0c66921db2d20303d4aa3f0003176fd9f81e3c52f5bbbb59eea2d9e33452381698a81021c9b6b59f4c3c08d5297d9f7a2893f2cebb0f865c02aaad71186458d48979c51c8c842289da6e85ce8f8196fL'
I-699
I668
tbag7
(g8
g9
NtRp598
(I1
S'ff817d1aeb1af174ab364dc58c7a8a3a0dd778db9a2e41e022f9f17b02d54853f174002d095d47624c2b7e531ff0b8de44e001ecc2d4ace81a58c02d68d9e595b0ba029f370e61f6ec0381d2865b42ef46dda11L'
I-698
I668
tbag7
(g8
g9
NtRp599
(I0
S'b991956f7c038bc9eed6760c4c589924d18c1b1c9e8c0d3d2be088f3d2069249fda4de2a4b00120619e6446855aa7353c7fb811d1c41a84056947dba6c55dd65e52bd58a3dc91612a44ce92b5c0fa21acbfb13L'
I-697
I664
tbag7
(g8
g9
NtRp600
(I1
S'7ab59f34bfe7f593a5c8e3ecb410f180ee0c72247d62e1aac5d8941cfe71614e8fb9297bdb85515854937228c0f99d76a1f095444f3b6463b6f78d04cbdae1325ef5f496a9edd871c7e9a4c1188b16f28644831L'
I-697
I667
tbag7
(g8
g9
NtRp601
(I0
S'111ca2a1edc6e1717a1b4422821d13e407d0d77451b10453a66cb778b0775a5f05c46f4b255322252b94d4b21768436fa8d6c2c85227e9b282a33b6ce3a780e13a46d4c98f25205a55789c041b73e9b6b5b81efL'
I-696
I665
tbag7
(g8
g9
NtRp602
(I0
S'2f87a2c5b5e505bcf85e607c083d241f629f498a1bc0bba8ebb1724c0f1f9a6d21551d5542d7903c98c9e2fe8bd131ebacafa6049cbaac8a22d23c3f079404c12147fb6d34f6b8fd4730dea55d198ac551cee73L'
I-696
I666
tbag7
(g8
g9
NtRp603
(I0
S'1e605ec978ef3225352871771cc11f512477e0dad0f623fa54063d527b9f86f052117097ff5d6c433d3f4dba76f8f666cb2496793d0386ed42808d5e318a3b4bf0360129095b6f6128f5a8bfef7d77fc49b5fefL'
I-696
I665
tbag7
(g8
g9
NtRp604
(I0
S'aa9b94d152e6418f23c4ef4669d5de7df68ceb96c5c1d7b7a21f8113b2eee2e1c699b30b9419397f8eae6ec24c64859c4c3c611ce75dd589d734bbb0429065fdea74c630a8e703843b1136889add571d499547dL'
I-698
I668
tbag7
(g8
g9
NtRp605
(I0
S'd75744e8f2d771c8f4ebf8cef0098389be78ce997d2aaa34972afe9e1c744dd95ad39d4dbb330f442829ce30a345831534dcec93021ebfeff9d703a2b97373a4e52ec7884f3acc88959585c9ff76b8791047d81L'
I-697
I668
tbag7
(g8
g9
NtRp606
(I1
S'7247340935bf98f04f43eb39494e64a97065eb6e2bc38b7feae1ba80f535e5724849a2416d3aa616c5f960cf3a4b13863db8ca07dca3068090961ddf0177f42336fcd56fde9d832538b1012facb0d5cc8bb88efL'
I-697
I667
tbag7
(g8
g9
NtRp607
(I0
S'cc3c1a3496c42310d2adf456949cc198ed644ce0913144ee1ff0d58b8c30f32b9dfa841b8b22f59603e5bc76a62acc1c7c50377e20305e6fa677b94fa47b6ebefa05d997997baf13febbe05d7df48172a80206dL'
I-698
I668
tbag7
(g8
g9
NtRp608
(I0
S'c0ccf69b0644d0902eb1b16d1095f9959b711c63cc40e85c44a14daa4830e025448064906f995fe44de14cd7f86969ee11566ea4c81ec9b1ad5259511d61ef4ed398aa6d543d8a3dcd211a0696b5e03b71e6639L'
I-696
I668
tbag7
(g8
g9
NtRp609
(I1
S'd5f2e7c7d289709cf4dcb5255bc4741860ce1038190a2fa5f88e141679d4124605d9436f24b8fb958f6c996e596b9b29972d05946db3a04173a077b0fa49f338197b612c1dd4dc5498f2812f55f7afe901e37dL'
I-694
I664
tbag7
(g8
g9
NtRp610
(I0
S'9416264d1d12be500f067cfc9cffa3d03c7f039490b4ff48258bd4a0afab770cc51392109f490329064b304547f00ad6aaf418f442c5b2aee65614d9a22137083979a6dae083bc13627ce3c14eefdd6e10bc761L'
I-698
I668
tbag7
(g8
g9
NtRp611
(I0
S'c1eea73e544f00d8933728aa2b4e2edefe8f19101c3bb674c5dc85f6679dc8295547fc18500c86c976153db52896add20ddaf3369fb731ba2fda885523ecfc9b2e7022ac834d5bf63fd4f95c19773c0ff59379bL'
I-698
I668
tbag7
(g8
g9
NtRp612
(I1
S'8d6d045cb379d1036504c6e288d4a20e747c9ea8acaa1b559eaf6eed25b0b58484251c71e7a1c45d57e4db667b406cb98e1c1cc2b68fa5f8101a26746a8643ec124ad703c80f1d5755f9422e5a66f7ea8654571L'
I-698
I668
tbag7
(g8
g9
NtRp613
(I0
S'a300f5fab7b2b98e083becec5f9153fbe16410b598cd4420d4a4310be53c475e0c7f5c8452ba3d7f39dcaebeb036455408b6d3bb5a04e644287af6fda91fc92926c15ed200ba16a4aefc2a5c04f1e8548713837L'
I-700
I668
tbag7
(g8
g9
NtRp614
(I1
S'29c9114335df7f9e580a8c7bb2e1729f0cf210441b85708f6a62b293c8bb2a051119a9edf20db0b1b8deab1b7dcebe9b16e028f4c828bef563057def5cff681cea49d8ce6c0410cff40a86db52f3dcb34011eb9L'
I-696
I666
tbag7
(g8
g9
NtRp615
(I1
S'44d1bd173ea8217626385aa7f95e05da30c117e283e426bb8d36e0b9f17bd995a171561bf1d47595f6fcf31f8083c9722fa2e74758a3239f1e6555c7f009a06b2ad57ae4db70c717693cf33b9a97b5c15dd8a55L'
I-696
I667
tbag7
(g8
g9
NtRp616
(I0
S'da5a2941339c538681089806ef38af2815a7c0ffba1f180b2a8b353700f8504b00f1db2127c66f9f6f476a0bf383520deea82820104de0183a2cefc1e96d2acfe4c409d58c19f2b08befa4b3cdebde9b8adb513L'
I-698
I668
tbag7
(g8
g9
NtRp617
(I0
S'548f387dab597d6e391542d2da08b1249f67eb605270627248f750469133a1927346a6a6178f4558cf3ffb21794b7ef57cc85942c1b37a6fdf0ed0044dac36fe7a7872665c4e51bfd2d80a02adef63eed9c788fL'
I-696
I667
tbag7
(g8
g9
NtRp618
(I1
S'60290766a23f31da161e8925b577aa76ed5a877cc5da298c43ec3357394f4a0008be0cc6d9337dc62ea65439cd40391942e54f63b4eb11a55619eea599e08d33652a6952137c1d9bdd2a4b921bdf02e1fa415fL'
I-697
I663
tbag7
(g8
g9
NtRp619
(I0
S'5c87490c85a73bb9154f168302eb3758ff812df16468db3bfabd7ebb637a28b50e497e15ae85dabcee300817f912a761fde48163ea5dd3c2135f718b624f4734a515cde2f65a412424dcaa41be69667002987f5L'
I-698
I667
tbag7
(g8
g9
NtRp620
(I0
S'2b67ed91639203c165954a9a434a7829deb49e25241ec0a53a67ee46bacb31e69fafb8b227e7617672f8753d1093bbb0ea396d2e4fc1f347ebd95484333727efe9964398c82762b931c43cf21b4b73cdd5da6e3L'
I-697
I666
tbag7
(g8
g9
NtRp621
(I1
S'78994118fba484392211a88b05c793d5956b52c0c85521014ca8d632df694ab0e1468416cccaf0ba947511c07e37c2169fb82beab2597869ed76f724fa5f9896393f49e2ef141b6729dda00894f8d08dece7e3fL'
I-698
I667
tbag7
(g8
g9
NtRp622
(I1
S'135a89c8007feed9a374165f425ad90d89f33eeb51bd8e9b10541e292fd627f498e3337a0d9e03634bea06a8b7782055af2100b631cd2b8bc92d26c3bd3ae86f49b0ac07158facebdcb0faad0f972d2cb3c2bb7L'
I-695
I665
tbag7
(g8
g9
NtRp623
(I0
S'30f1977c4085c7dfdf4794539f635009ce85d0e395aeb3ee6ff5190b75bca7fcc63d65d7fcc5bc725273bab3ac971005848075fe88ba4060855f3407d72dad453d545b064b4ae503ad79115fc3495aea489d441L'
I-696
I666
tbag7
(g8
g9
NtRp624
(I1
S'75e9863a022f68ef723946d23e4ca74cd40da29f8d2a1766259f0e6c64b5cb8d3f221164e6247ce981b4acb4771761ca009b5c4bd1594507e05181910c39dacd45c2f03088b8486e8d8dfbbd1f53db88e60bd77L'
I-697
I667
tbag7
(g8
g9
NtRp625
(I0
S'213ff305c2db06406070efb67992cf87d02caad3ccff533b54cc56523253528f90d63f3a9dccfdb642829bf325e06354d053f161e4010b86f13b10304e435f3ababdae17b8748389b907c24284e2448ec722327L'
I-695
I666
tbag7
(g8
g9
NtRp626
(I0
S'47e15fe115c70166999eaf112936f38b391909ab387f6ed6c3690157e02d6daad3be4765b1a29d01e0cf24cfe13e3817d4291c4ff919f303e992e45e55dadef67181a4bc2ba5d5bf79adff1c63bb12c691647bL'
I-696
I663
tbag7
(g8
g9
NtRp627
(I1
S'7692166197f33c708ab8404d5acd4f32368c24832d7d9b5574efcce315d3193373c9cdea9b4a6f17c853de293beea0dd1a8b3af0f27a03acf30005a8329b6e1d535ba9499d590bddf964557f75fbe38480a2d3L'
I-695
I663
tbag7
(g8
g9
NtRp628
(I1
S'5e59b72105ed58570d0440ba19856000f460877547375454a638cff6efdb178bbb383c4067960068d49594e4b913924f32d6f051d69b9569358f1b9b7fa1312560bcb42bf82bd470b09413c95783a1f6a72aa57L'
I-698
I667
tbag7
(g8
g9
NtRp629
(I0
S'51d69d7e3ed1e869ecda69acea8ebd7a8a6380f921776d14c103ab15a49a61e7a3feac96d6f91ac5244c13dff70e4fbea5a161398af05b70a91ae926d02e98b659238a53a813f9f4e6e9a17aa675e489164732fL'
I-698
I667
tbag7
(g8
g9
NtRp630
(I1
S'46dd6bfe5d96083f69d3681b197903054c2e9e53fc80f9a9d390ac53a93e7ba8919367cfc337c914e5e2205f90c2a1a744847e374d07a763898f2390806a5251fbf73be64a4572483a8610d3ef7e3f9a4d8ff0fL'
I-696
I667
tbag7
(g8
g9
NtRp631
(I0
S'104aecac7b189424679a07873e67f11e09c7a8d9da483e0d6a80622ce00072652cb8983df0c807a5759fb12a6a37640b4679f10dde8b71a6d1a9ea89f2f9ad8190bc68aa99f059f33101f2bb122ae6bddb73b9L'
I-696
I661
tbag7
(g8
g9
NtRp632
(I0
S'9da2ca06219a6a7c9f9c40266d202beb37d043daf507848f34b0ddc1e163dadd5103f22a70768430372bf02cefb70340fb9655fa76a8f4bb7123b1b4678df5fb20ee406578611f95e1d5dc47ec33edd977b6529L'
I-699
I668
tbag7
(g8
g9
NtRp633
(I1
S'd5f2e7c7d289709cf4dcb5255bc4741860ce1038190a2fa5f88e141679d4124605d9436f24b8fb958f6c996e596b9b29972d05946db3a04173a077b0fa49f338197b612c1dd4dc5498f2812f55f7afe901e37dL'
I-694
I664
tbag7
(g8
g9
NtRp634
(I0
S'e937ba0fa3b2906afdf1a06fc9ef7c989e521fa1be5e88c9d203b9adb44679a79550c4716e10c88d44d7e9368b597b1931f799dd97c7da30f9d0bf3ab3c6d5692d6278be2a5a06349215f11304b63ad625257fdL'
I-696
I668
tbatb.