cnumpy.core.multiarray
_reconstruct
p1
(cnumpy
ndarray
p2
(I0
tS'b'
tRp3
(I1
(I10
I10
tcnumpy
dtype
p4
(S'O8'
I0
I1
tRp5
(I3
S'|'
NNNI-1
I-1
I63
tbI00
(lp6
ccopy_reg
_reconstructor
p7
(cmpmath.ctx_mp_python
mpf
p8
c__builtin__
object
p9
NtRp10
(I0
S'5e88a9d2ae41cf00397600e54e03ac7f6becd9efc4eb4aec4b1f4482d60defe79874c49675e1d85f7cef6e194408e81c9775e223a6cac117867c3e3f20001d78c2dc3e707ded4228aba1f7cec2dcb4ba33622c9'
I-709
I667
tbag7
(g8
g9
NtRp11
(I1
S'8695f2c2d960fb433b65986cd868b1156a02f46c25c88f3be266bb25dbcd1a76cc4a359d8fef7b32517f26a7323df4c9124b1760f84c5de561591a39ee4c4fa929051eccd0ecbc122f4b869921946560c7087df'
I-711
I668
tbag7
(g8
g9
NtRp12
(I0
S'94b720c2a9aac48e0b8c5842a4eb94fbb3076612e424671eb88caa5970fcf00528841c0e68b52e20c0ab40d6cf5a3619d13dd917a62c0a4066239c1d5cb637c0e63b78fb6b081ac961e719b11d8526c6401cfbd'
I-711
I668
tbag7
(g8
g9
NtRp13
(I0
S'6dd1b297437002ba9c6a07312acf69a3a53477bb92598bab2aced9df8752927f7b625af5261fb1a3680f2d8b9d09caa708fd386c40f570dd546aaf601d38c22cb8f33d67972a31bd51040b5e4c6efa0d3d615c9'
I-714
I667
tbag7
(g8
g9
NtRp14
(I1
S'69bd5e69c4e23aae640a163ce03a2d1a8820ab0472abf8c019b8115ed89f82ce549be0d2936c6f71e8e54df86c5b39d79075540c4d926ff4fe4583792efc8cee57f90906cefa1e8ba8246ca00c89600b940320b'
I-712
I667
tbag7
(g8
g9
NtRp15
(I0
S'6d86985d3d5f5d3c9316ddd3d152b92a0e2e93733493ec5ca05b8c3a88edaeb88c7df44cae5fb66d3ab2fdc4defd94b3c8d6349bc2b732619a702dbb226acd3b78d02ebbb4671227e832ad1c5e1387a936d48e1'
I-712
I667
tbag7
(g8
g9
NtRp16
(I0
S'e374b57a884fe466ea35e1820e26f021a113e2b32c2ab782c76eeb8ddd9a55b8544453961b0d83a828886041c3beeeff766e7d3bc72094d48dbd2ee5ef68299d7347be9a04b482b0752b297f6e70810309e0e6b'
I-714
I668
tbag7
(g8
g9
NtRp17
(I0
S'e3581680788e43176a3f0102378be05d9ab58abbcb0bd30d646f4217bb8fdd9ca47105c968763946b78b5e0179d294f9d2a8f1b1a185101873ba900f0fa74ee1ca7e72417fcb1948c9461c11fa287685da9e027'
I-712
I668
tbag7
(g8
g9
NtRp18
(I1
S'53a144d07af0703fa948d2707019cd82e89dc80a59b169a5b5b68aca3b9a735afa6b6e614131d3c1927eb474ecaf4f283ac9b0d6ea37caba6e284b80295777cac10efbe1f384752ec5b5890a995e7db5d0e1463'
I-714
I667
tbag7
(g8
g9
NtRp19
(I1
S'd93b125cf1edba3b3e0a556be7dd98580e8ea5b4459d7909c0cfde0686253e466244a103341ba9cf043900fb8500f2aa014112a8ee1d416cdc4796db1a869f590a8b625b0f7b4281cdeb241a0332c42e271d39b'
I-713
I668
tbag7
(g8
g9
NtRp20
(I1
S'8695f2c2d960fb433b65986cd868b1156a02f46c25c88f3be266bb25dbcd1a76cc4a359d8fef7b32517f26a7323df4c9124b1760f84c5de561591a39ee4c4fa929051eccd0ecbc122f4b869921946560c7087df'
I-711
I668
tbag7
(g8
g9
NtRp21
(I0
S'a58be0d2854ec9df0a188c61ca9630e2051c20e6805b65ddf5f44ebea46475b402fcc2647bd52aa983032c47afa002489710c6690eeecdfb7cb8ba8cab3f92e9ae08750ad05df638b28618ceaa6b83f4829388b'
I-711
I668
tbag7
(g8
g9
NtRp22
(I1
S'f5e3078d81bf503a3c023422e80dd7ddcd40839a8cd019ee833c13fb21ea48555e79a052172c9e75812ccc2cafd9f1e074d846ce912aa164a0fcee62f0e2200c78372662c7751e050054634d23d4cd5d41834e5'
I-714
I668
tbag7
(g8
g9
NtRp23
(I1
S'bb578c646d1053b4d474821829e4d3af094a9aa8cce40d66a65e305ba56e0a123816ac4bbca9a40c5a4802e57dfdc34bb6aa19c3346242b99a0a548b389d8ed0dd40585a1a0854d71718aeac0665488e45f663f'
I-713
I668
tbag7
(g8
g9
NtRp24
(I0
S'7649bf90194922f7f4d2052dc07fe889696c9f0ac46165db639905470c7457a4574fe2fca3d8a6a43aeb2cabc107bf3f57b07a3c8c3f529b82ff25aa54cb6eb22c4ce77a03439e7a491682b6477b8a319346df7'
I-711
I667
tbag7
(g8
g9
NtRp25
(I1
S'b6d3c77f1ea3636bba1213d33ef86cbec56c38b35fa02481d0cbd9cf63080fd0ad0d0166b8a96f7c521b511ea9f65736246c682989b551c41c6ed46e018f3abcedf8588307c211551108c452581b6a81e96707'
I-710
I664
tbag7
(g8
g9
NtRp26
(I1
S'a6001801fd263f0d7251e685107de01d1fc985fdf8393d59b5ec8dd263af01ac0d364ac0e8c8713a773f5382f33fd65ddbf8919c98e7b696584e7229074f4f456aea6735611d9bca062459d512452de0c8184ed'
I-713
I668
tbag7
(g8
g9
NtRp27
(I1
S'17eeb48878344a9d04dd7fc5c573cba43000494f158c7e222a193bd91b1562cf3911348999984c86d915a2f298ebcb6c16dff56b74f1e55f673eac336611e4a6d8481a3d324e1e0f2e4aa3605413b50d07b37db'
I-710
I665
tbag7
(g8
g9
NtRp28
(I1
S'4983e60eeb094564d262ec3c42180d9a473ef0464f7deb657de402a5ab81399821e611677b56b3cb89bd5e52abeed213ab5de3913277df847e766612362679f61bbfbe6d4ac72bf65ca5194ff76c8b0cfd778b3'
I-713
I667
tbag7
(g8
g9
NtRp29
(I1
S'5fcf14c1c5bf6f0731861c4138c6c099c32e0c5e0c7bb168079b62889c302b3931529f87421af99dd56cabc6bc620ed684b21fd669c95de2791f3e01ef54e778b98f9d41b8a4de84d0394fdd688dba98a5eec83'
I-715
I667
tbag7
(g8
g9
NtRp30
(I0
S'94b720c2a9aac48e0b8c5842a4eb94fbb3076612e424671eb88caa5970fcf00528841c0e68b52e20c0ab40d6cf5a3619d13dd917a62c0a4066239c1d5cb637c0e63b78fb6b081ac961e719b11d8526c6401cfbd'
I-711
I668
tbag7
(g8
g9
NtRp31
(I1
S'f5e3078d81bf503a3c023422e80dd7ddcd40839a8cd019ee833c13fb21ea48555e79a052172c9e75812ccc2cafd9f1e074d846ce912aa164a0fcee62f0e2200c78372662c7751e050054634d23d4cd5d41834e5'
I-714
I668
tbag7
(g8
g9
NtRp32
(I0
S'4178acf48b45dc56334be0514572cd8de7e019dd0d33cf5b93fac1e9ff15b796518abe376c251ca43413ca9b058851fa1fafca8fd227982636b91cc639c49613f35094900041a3653da6498ecf0669aa7c3051d'
I-709
I667
tbag7
(g8
g9
NtRp33
(I1
S'873f238920925b4135c3a55473bc50c027f063d75f83ebd7ff1ee901b5083289171c32f84356a1ea2696ff575a039e3741407e9d2eba31cf43d359a13601c61e76b6b9055e45526605134a78f1689e20ab66a23'
I-711
I668
tbag7
(g8
g9
NtRp34
(I1
S'ae8201cd44bae14a5cf1de99f205831731d7bfa3f1992b4f3a56420a9efef049328046873552f0d9135463069409b954ce6168d9ff6e2e340c407d0fd2f17c072ad7b251e258e0f68fc7ab3b29337d879a2ed55'
I-714
I668
tbag7
(g8
g9
NtRp35
(I0
S'4af63ed4d4cae91744f69790d1043dbbe6421671a807da2c3be1dd494bcd5f934acfcbc2c2e896269ed6d306354a03cc6904a65b3acbeebf8580fb1cf988b125003c12e44f4848ff4e2602a069467a5c775a88b'
I-710
I667
tbag7
(g8
g9
NtRp36
(I0
S'88517b51590fd7b434f50cfeb81f1222d186734eec72f8a003a88871cf305423b66582b7ba6c12cefb922d132694314f82e89d9d9f49a96bb7b712bf57f823d81d86463faf16cc1b2c3aa7fde6644bf73da0e35'
I-713
I668
tbag7
(g8
g9
NtRp37
(I1
S'cbc1cb227a83fd5c8a987e2a93fd74ee01950440ae3a4140ca4e73cb22e274ced84b3e9405b51cd6f3c64387dcc6db631f77eb45d93c1a1f74a6835120290c66228aa0319c24c102139be09d3990aa0367b7b59'
I-712
I668
tbag7
(g8
g9
NtRp38
(I1
S'ecf8d57a4eb14673e022865f2a8982900b1d12c0e8bc24fd34c9a0a48b8142d88da4389211a10862e02d4c73c7976a4ed2379465877fb2efd879053826b46ff8032055b5d8b86c779980d04ff9ca713d6c7a86b'
I-712
I668
tbag7
(g8
g9
NtRp39
(I1
S'3997f5978151de09d5a68db3765d3fbcc6aa5eb950310feff6df9f5672ddff75347dff56bc42b271d3d2dce72ef083af0d5034ea721220a85388c45737a79e04619f0d2b75d65a63aeff225a85c772bf73192bb'
I-712
I666
tbag7
(g8
g9
NtRp40
(I0
S'6dd1b297437002ba9c6a07312acf69a3a53477bb92598bab2aced9df8752927f7b625af5261fb1a3680f2d8b9d09caa708fd386c40f570dd546aaf601d38c22cb8f33d67972a31bd51040b5e4c6efa0d3d615c9'
I-714
I667
tbag7
(g8
g9
NtRp41
(I1
S'bb578c646d1053b4d474821829e4d3af094a9aa8cce40d66a65e305ba56e0a123816ac4bbca9a40c5a4802e57dfdc34bb6aa19c3346242b99a0a548b389d8ed0dd40585a1a0854d71718aeac0665488e45f663f'
I-713
I668
tbag7
(g8
g9
NtRp42
(I1
S'873f238920925b4135c3a55473bc50c027f063d75f83ebd7ff1ee901b5083289171c32f84356a1ea2696ff575a039e3741407e9d2eba31cf43d359a13601c61e76b6b9055e45526605134a78f1689e20ab66a23'
I-711
I668
tbag7
(g8
g9
NtRp43
(I0
S'85ab2b016e9c35b25adfd941c14503aa1ee0d539b6f861113f6256786edb48f7c68ac36b6e4f90452dfa8b417e6c76b729b2e8feb5b58e17964a5c312f3bd06dd5f51615f6a1ea68c935654b882c40b8242bdcd'
I-710
I668
tbag7
(g8
g9
NtRp44
(I1
S'1d85495c9738daf94bab2c8246378e3a92305b94c071f7bc00d8d879ceb718748b44804a6573f21c94ae934328b6260d264f8439b77d4dbceef1d7ec1c9701ce19a7bd5bac9e85234bd7278f18a5a78b6f73085'
I-710
I665
tbag7
(g8
g9
NtRp45
(I0
S'ac26f9c25c00308275d2a328e793aa632f18f2ed4adfc24d3a075985fc0aeb60212028bdeb2366e65f6dc7388224e822369e7a954c44a3e9779dfacc61e228ef06670c0d5239212a69697a21bc5d5ef382bdb75'
I-714
I668
tbag7
(g8
g9
NtRp46
(I0
S'39164ec1f9d299ab28e1829c60a490d72e2dd607bc2b7fc116178f926bd60117a7f665fb83740dd7221f283a31d29978c78d24b16960f4c70d432755ea9f3fead1aec4633c6db782675b6968f3747950768aacd'
I-711
I666
tbag7
(g8
g9
NtRp47
(I0
S'5b910985d63ac1be093cb98c309774d77934c5b114f07cbf911fdfe26385883ad3a6a55b5d7d7d2fc7d762c8eaa23307dcd36a4e8619054d1cbb358c743eadeafb15f7e6aef98ab51ba1f702926e78e2edac277'
I-711
I667
tbag7
(g8
g9
NtRp48
(I0
S'460d58ca790773efff1c30bed61878cfcaa82c27d77941baef4cfcf6e83ce35de3edcacaf03ae6c987e36f9323e69ef5d5ba7d5c40b179ec72ff08891900f33df5583e29e6b0b2378e25a8e1bf7693b70c044c1'
I-710
I667
tbag7
(g8
g9
NtRp49
(I0
S'64feb69775583f60a80258d4a0758cf0cfee7af864a65323db16c37c95a83b199f58cf11ce9f880419a65fe50707379b38576a59915f5c9fdef1027bad39fb345ea6d58638a78447868708aee1ef6e2098b1ec1'
I-713
I667
tbag7
(g8
g9
NtRp50
(I1
S'69bd5e69c4e23aae640a163ce03a2d1a8820ab0472abf8c019b8115ed89f82ce549be0d2936c6f71e8e54df86c5b39d79075540c4d926ff4fe4583792efc8cee57f90906cefa1e8ba8246ca00c89600b940320b'
I-712
I667
tbag7
(g8
g9
NtRp51
(I0
S'7649bf90194922f7f4d2052dc07fe889696c9f0ac46165db639905470c7457a4574fe2fca3d8a6a43aeb2cabc107bf3f57b07a3c8c3f529b82ff25aa54cb6eb22c4ce77a03439e7a491682b6477b8a319346df7'
I-711
I667
tbag7
(g8
g9
NtRp52
(I1
S'ae8201cd44bae14a5cf1de99f205831731d7bfa3f1992b4f3a56420a9efef049328046873552f0d9135463069409b954ce6168d9ff6e2e340c407d0fd2f17c072ad7b251e258e0f68fc7ab3b29337d879a2ed55'
I-714
I668
tbag7
(g8
g9
NtRp53
(I1
S'1d85495c9738daf94bab2c8246378e3a92305b94c071f7bc00d8d879ceb718748b44804a6573f21c94ae934328b6260d264f8439b77d4dbceef1d7ec1c9701ce19a7bd5bac9e85234bd7278f18a5a78b6f73085'
I-710
I665
tbag7
(g8
g9
NtRp54
(I0
S'5a430e37138c6a50a1d48361a59370af83868ebd76e5c62b2ea9cd7768c66dcfdf0eef15e32a276b84214f3d2b6bc99cbf88cc429d26644594f46f4ab57f41b522893b8d9d61fcca66c4aca0bd8de5d20b5a763'
I-709
I667
tbag7
(g8
g9
NtRp55
(I0
S'45e8a68422ce6504b1a2731114d23d6f426d9ebc7e63ae0b7968974b6cbc15e1d6dcc553a0e190795f281df44aacd8fae21a6f11f82adf2ecd2b41b0a3c05c2f376b2d5843ab0ecf20683adfa49be8d1ad2b9e5'
I-714
I667
tbag7
(g8
g9
NtRp56
(I1
S'2d59418fd080e3c5501a08f73438a76ad2a17a8529a45b2c1a4c482ebb73bf21bc93fc6e3750e65a9669881c9e4863331dd7d9a5b979039f36ae4d9789c44fee0832b57d64ddfd08012cf34473f2107fbb6c889'
I-710
I666
tbag7
(g8
g9
NtRp57
(I0
S'319d9aeb8087158d74adf3beae17ce4b0bfb7099d119ca9369c184e7a69f9417c43ac238b897d428ab23df66ab0e8f4f1223e13f65448828b6020fd1bda842984700ca80a7f54f39671ee27ee535bca8d396835'
I-711
I666
tbag7
(g8
g9
NtRp58
(I1
S'60c3edb47cc1db1edcde06fefac7ea83e1530269c3cbb8fbdcff494dac5b34200d6031dcbf4de0bb37ca277c60d1dc4de954fa525cdfb1db11a6fb3c3068a3ec3749e36ccc3c31d582b2043b27ac29dbb3f20ef'
I-712
I667
tbag7
(g8
g9
NtRp59
(I0
S'afed41f91503b1df611998e4101a64f22e6a1e8cd9810cbddb1bb63567445f3ee582b00c38bb4fc1683475a45ba823d3a56580140b047720b181922e8874cfa3c96bde0e3029075f3e2d29ce509e528d819dd69'
I-712
I668
tbag7
(g8
g9
NtRp60
(I0
S'6d86985d3d5f5d3c9316ddd3d152b92a0e2e93733493ec5ca05b8c3a88edaeb88c7df44cae5fb66d3ab2fdc4defd94b3c8d6349bc2b732619a702dbb226acd3b78d02ebbb4671227e832ad1c5e1387a936d48e1'
I-712
I667
tbag7
(g8
g9
NtRp61
(I1
S'b6d3c77f1ea3636bba1213d33ef86cbec56c38b35fa02481d0cbd9cf63080fd0ad0d0166b8a96f7c521b511ea9f65736246c682989b551c41c6ed46e018f3abcedf8588307c211551108c452581b6a81e96707'
I-710
I664
tbag7
(g8
g9
NtRp62
(I0
S'4af63ed4d4cae91744f69790d1043dbbe6421671a807da2c3be1dd494bcd5f934acfcbc2c2e896269ed6d306354a03cc6904a65b3acbeebf8580fb1cf988b125003c12e44f4848ff4e2602a069467a5c775a88b'
I-710
I667
tbag7
(g8
g9
NtRp63
(I0
S'ac26f9c25c00308275d2a328e793aa632f18f2ed4adfc24d3a075985fc0aeb60212028bdeb2366e65f6dc7388224e822369e7a954c44a3e9779dfacc61e228ef06670c0d5239212a69697a21bc5d5ef382bdb75'
I-714
I668
tbag7
(g8
g9
NtRp64
(I0
S'45e8a68422ce6504b1a2731114d23d6f426d9ebc7e63ae0b7968974b6cbc15e1d6dcc553a0e190795f281df44aacd8fae21a6f11f82adf2ecd2b41b0a3c05c2f376b2d5843ab0ecf20683adfa49be8d1ad2b9e5'
I-714
I667
tbag7
(g8
g9
NtRp65
(I0
S'9a69a5b6a6a3e700a0197c1ca7ace570ee50421f6cb10a5ce0b2493c3dd9bf0a4b32cfe496ddd5551c38c24dee0770036c382e81ca5c5104e66c30de6e895a95183fe5110ab8b0e88733d34875c31d5f2b7d219'
I-710
I668
tbag7
(g8
g9
NtRp66
(I0
S'baf8d47e360e24d2fe2d54bd852ed09e1baf711b48435c1ad464636c9e58c71a3f6f3bcfcbe466251a4a5582e96aef5f4445b6ef0fb6f66d1521782d9425d95f20230aed10033799f461926bc180649620cb0e5'
I-713
I668
tbag7
(g8
g9
NtRp67
(I1
S'4b7bf888df6dc024c9d392c3e05e87edb36a1633b2763a3debc348eeacd788bd38e0cb4f118c8ce25c024fbc0919126b09120e20667921779f99c73fe6c4b58b143f9dbb4f64f7189298227586a3d5bf6aaa7d7'
I-710
I667
tbag7
(g8
g9
NtRp68
(I1
S'4b2a74e89dc7b0edc5930c707fa257a729691664d11ef41438234e4c9fc406d04e5fd7c9cc0d5899e43a025eb3ce67ab6bba06d4981c2d362aab8e2acb60cb46339bb6060d3a3099b00e4e1d0e12d201eb3010f'
I-710
I667
tbag7
(g8
g9
NtRp69
(I0
S'1701e2330b93741229bf25787adace9fe9984cd0907b612e4d542a4cbbaa3c8d413957e25cf1c827e95f45852fb3875cd89fe5c7f6c7dbdd49f01b0fdbae97a7e7d887448f7874ba0d2023d95717a30c88ba08f'
I-709
I665
tbag7
(g8
g9
NtRp70
(I0
S'e374b57a884fe466ea35e1820e26f021a113e2b32c2ab782c76eeb8ddd9a55b8544453961b0d83a828886041c3beeeff766e7d3bc72094d48dbd2ee5ef68299d7347be9a04b482b0752b297f6e70810309e0e6b'
I-714
I668
tbag7
(g8
g9
NtRp71
(I1
S'a6001801fd263f0d7251e685107de01d1fc985fdf8393d59b5ec8dd263af01ac0d364ac0e8c8713a773f5382f33fd65ddbf8919c98e7b696584e7229074f4f456aea6735611d9bca062459d512452de0c8184ed'
I-713
I668
tbag7
(g8
g9
NtRp72
(I0
S'88517b51590fd7b434f50cfeb81f1222d186734eec72f8a003a88871cf305423b66582b7ba6c12cefb922d132694314f82e89d9d9f49a96bb7b712bf57f823d81d86463faf16cc1b2c3aa7fde6644bf73da0e35'
I-713
I668
tbag7
(g8
g9
NtRp73
(I0
S'39164ec1f9d299ab28e1829c60a490d72e2dd607bc2b7fc116178f926bd60117a7f665fb83740dd7221f283a31d29978c78d24b16960f4c70d432755ea9f3fead1aec4633c6db782675b6968f3747950768aacd'
I-711
I666
tbag7
(g8
g9
NtRp74
(I1
S'2d59418fd080e3c5501a08f73438a76ad2a17a8529a45b2c1a4c482ebb73bf21bc93fc6e3750e65a9669881c9e4863331dd7d9a5b979039f36ae4d9789c44fee0832b57d64ddfd08012cf34473f2107fbb6c889'
I-710
I666
tbag7
(g8
g9
NtRp75
(I0
S'baf8d47e360e24d2fe2d54bd852ed09e1baf711b48435c1ad464636c9e58c71a3f6f3bcfcbe466251a4a5582e96aef5f4445b6ef0fb6f66d1521782d9425d95f20230aed10033799f461926bc180649620cb0e5'
I-713
I668
tbag7
(g8
g9
NtRp76
(I0
S'4ddc2d58da16662bdba2935c51469c883e31b0e97de7a3ebf3ec1385883f3cc1a873b204f8bfbb7ce76e04814d0c1cc1bc4e81ffeed8b5031f756a7e7acc7aa4108c33e9084da5fb34b09ec42729e794ffc01d5'
I-711
I667
tbag7
(g8
g9
NtRp77
(I1
S'419d3f76731cc9c7fd4154d3e37dc5710eabd6562ef0d61d4f3a05014249cebef37312e9c503a84ea586eb4fb83f0e0c7c7dbab903f2ae652a86b9d61921112f581a647087561f72ad46db30d6d980f53e6e3b'
I-709
I663
tbag7
(g8
g9
NtRp78
(I0
S'93fb05c6d1e78dee1e89ebc1db93035ce9c6ab81d17645072dab9aaaf7d7f8a441576ca6b2067588cb70b5b2e60030a4e7372f04fed635ec13d223322c36ee1218eb5d2b4a3f78b12bc05411eec32e1b0ff3d69'
I-712
I668
tbag7
(g8
g9
NtRp79
(I1
S'457fdaa3799308609a83df4b2fc438e4854130696eea2e1edf5b76d35efec6c3312ed6e605bee401a35b48005d89332211b74eb8780d5407042bb0ecf28eb77fa4f050fb39436c21f66792fa92678f073bc9fe9'
I-712
I667
tbag7
(g8
g9
NtRp80
(I0
S'e3581680788e43176a3f0102378be05d9ab58abbcb0bd30d646f4217bb8fdd9ca47105c968763946b78b5e0179d294f9d2a8f1b1a185101873ba900f0fa74ee1ca7e72417fcb1948c9461c11fa287685da9e027'
I-712
I668
tbag7
(g8
g9
NtRp81
(I1
S'17eeb48878344a9d04dd7fc5c573cba43000494f158c7e222a193bd91b1562cf3911348999984c86d915a2f298ebcb6c16dff56b74f1e55f673eac336611e4a6d8481a3d324e1e0f2e4aa3605413b50d07b37db'
I-710
I665
tbag7
(g8
g9
NtRp82
(I1
S'cbc1cb227a83fd5c8a987e2a93fd74ee01950440ae3a4140ca4e73cb22e274ced84b3e9405b51cd6f3c64387dcc6db631f77eb45d93c1a1f74a6835120290c66228aa0319c24c102139be09d3990aa0367b7b59'
I-712
I668
tbag7
(g8
g9
NtRp83
(I0
S'5b910985d63ac1be093cb98c309774d77934c5b114f07cbf911fdfe26385883ad3a6a55b5d7d7d2fc7d762c8eaa23307dcd36a4e8619054d1cbb358c743eadeafb15f7e6aef98ab51ba1f702926e78e2edac277'
I-711
I667
tbag7
(g8
g9
NtRp84
(I0
S'319d9aeb8087158d74adf3beae17ce4b0bfb7099d119ca9369c184e7a69f9417c43ac238b897d428ab23df66ab0e8f4f1223e13f65448828b6020fd1bda842984700ca80a7f54f39671ee27ee535bca8d396835'
I-711
I666
tbag7
(g8
g9
NtRp85
(I1
S'4b7bf888df6dc024c9d392c3e05e87edb36a1633b2763a3debc348eeacd788bd38e0cb4f118c8ce25c024fbc0919126b09120e20667921779f99c73fe6c4b58b143f9dbb4f64f7189298227586a3d5bf6aaa7d7'
I-710
I667
tbag7
(g8
g9
NtRp86
(I1
S'419d3f76731cc9c7fd4154d3e37dc5710eabd6562ef0d61d4f3a05014249cebef37312e9c503a84ea586eb4fb83f0e0c7c7dbab903f2ae652a86b9d61921112f581a647087561f72ad46db30d6d980f53e6e3b'
I-709
I663
tbag7
(g8
g9
NtRp87
(I0
S'66bec2aaa0e9736956035e5c83353a95896bab792044b33697bc64fb9608a3ab1ca369e07a396fefefe7a064e0e84219deea15c40f0c9a778a6782480ba57454b38ee9d879bcb2bc0b48f12b9189cf24167384d'
I-709
I667
tbag7
(g8
g9
NtRp88
(I0
S'48da5fe9e46d58c5003680540cfe10eab01b2912a466234773fad476eba89fc754e39f105e3e10c1524ac7855f95cc9be4e267676c8e261d3fc3ef755615960afa525c0bfb21bcf5be5b3f32c769a4becf6a1d3'
I-711
I667
tbag7
(g8
g9
NtRp89
(I0
S'7e2f88f37ac4088c137699894954997fcfc9d0fa9669a0152ad5df5456221d35f1b456d4b50641f5c5acb491840c591d5bd9a7129de02f7f319931d0f2926a11a13283947ff30707374b241ae8640fd2b3ebb1f'
I-713
I667
tbag7
(g8
g9
NtRp90
(I1
S'53a144d07af0703fa948d2707019cd82e89dc80a59b169a5b5b68aca3b9a735afa6b6e614131d3c1927eb474ecaf4f283ac9b0d6ea37caba6e284b80295777cac10efbe1f384752ec5b5890a995e7db5d0e1463'
I-714
I667
tbag7
(g8
g9
NtRp91
(I1
S'4983e60eeb094564d262ec3c42180d9a473ef0464f7deb657de402a5ab81399821e611677b56b3cb89bd5e52abeed213ab5de3913277df847e766612362679f61bbfbe6d4ac72bf65ca5194ff76c8b0cfd778b3'
I-713
I667
tbag7
(g8
g9
NtRp92
(I1
S'ecf8d57a4eb14673e022865f2a8982900b1d12c0e8bc24fd34c9a0a48b8142d88da4389211a10862e02d4c73c7976a4ed2379465877fb2efd879053826b46ff8032055b5d8b86c779980d04ff9ca713d6c7a86b'
I-712
I668
tbag7
(g8
g9
NtRp93
(I0
S'460d58ca790773efff1c30bed61878cfcaa82c27d77941baef4cfcf6e83ce35de3edcacaf03ae6c987e36f9323e69ef5d5ba7d5c40b179ec72ff08891900f33df5583e29e6b0b2378e25a8e1bf7693b70c044c1'
I-710
I667
tbag7
(g8
g9
NtRp94
(I1
S'60c3edb47cc1db1edcde06fefac7ea83e1530269c3cbb8fbdcff494dac5b34200d6031dcbf4de0bb37ca277c60d1dc4de954fa525cdfb1db11a6fb3c3068a3ec3749e36ccc3c31d582b2043b27ac29dbb3f20ef'
I-712
I667
tbag7
(g8
g9
NtRp95
(I1
S'4b2a74e89dc7b0edc5930c707fa257a729691664d11ef41438234e4c9fc406d04e5fd7c9cc0d5899e43a025eb3ce67ab6bba06d4981c2d362aab8e2acb60cb46339bb6060d3a3099b00e4e1d0e12d201eb3010f'
I-710
I667
tbag7
(g8
g9
NtRp96
(I0
S'93fb05c6d1e78dee1e89ebc1db93035ce9c6ab81d17645072dab9aaaf7d7f8a441576ca6b2067588cb70b5b2e60030a4e7372f04fed635ec13d223322c36ee1218eb5d2b4a3f78b12bc05411eec32e1b0ff3d69'
I-712
I668
tbag7
(g8
g9
NtRp97
(I0
S'48da5fe9e46d58c5003680540cfe10eab01b2912a466234773fad476eba89fc754e39f105e3e10c1524ac7855f95cc9be4e267676c8e261d3fc3ef755615960afa525c0bfb21bcf5be5b3f32c769a4becf6a1d3'
I-711
I667
tbag7
(g8
g9
NtRp98
(I0
S'26585a5c6de390eeab45f7ba956392d152b260610e4d5f1d3cb7d6d222fe1ff9c8db779c8b69421ae16ba369c5d07dbf9c8db1d6163d5906299ff676a495a6414726d3139448022e2c44febe0b6f5bc19e1df0f'
I-708
I666
tbag7
(g8
g9
NtRp99
(I1
S'1c3057e681f25ac1d2e3d684461fcfbb0cbad43005cea5b4b72b4ee50acec67dca6876da022cb9b40be6e909bbafcfe5d6399be01c70fa4fed1cba97053caad7ef53ec8cf8654f3c8c50fdec00f91003c5bd5a5'
I-709
I665
tbag7
(g8
g9
NtRp100
(I1
S'd93b125cf1edba3b3e0a556be7dd98580e8ea5b4459d7909c0cfde0686253e466244a103341ba9cf043900fb8500f2aa014112a8ee1d416cdc4796db1a869f590a8b625b0f7b4281cdeb241a0332c42e271d39b'
I-713
I668
tbag7
(g8
g9
NtRp101
(I1
S'5fcf14c1c5bf6f0731861c4138c6c099c32e0c5e0c7bb168079b62889c302b3931529f87421af99dd56cabc6bc620ed684b21fd669c95de2791f3e01ef54e778b98f9d41b8a4de84d0394fdd688dba98a5eec83'
I-715
I667
tbag7
(g8
g9
NtRp102
(I1
S'3997f5978151de09d5a68db3765d3fbcc6aa5eb950310feff6df9f5672ddff75347dff56bc42b271d3d2dce72ef083af0d5034ea721220a85388c45737a79e04619f0d2b75d65a63aeff225a85c772bf73192bb'
I-712
I666
tbag7
(g8
g9
NtRp103
(I0
S'64feb69775583f60a80258d4a0758cf0cfee7af864a65323db16c37c95a83b199f58cf11ce9f880419a65fe50707379b38576a59915f5c9fdef1027bad39fb345ea6d58638a78447868708aee1ef6e2098b1ec1'
I-713
I667
tbag7
(g8
g9
NtRp104
(I0
S'afed41f91503b1df611998e4101a64f22e6a1e8cd9810cbddb1bb63567445f3ee582b00c38bb4fc1683475a45ba823d3a56580140b047720b181922e8874cfa3c96bde0e3029075f3e2d29ce509e528d819dd69'
I-712
I668
tbag7
(g8
g9
NtRp105
(I0
S'1701e2330b93741229bf25787adace9fe9984cd0907b612e4d542a4cbbaa3c8d413957e25cf1c827e95f45852fb3875cd89fe5c7f6c7dbdd49f01b0fdbae97a7e7d887448f7874ba0d2023d95717a30c88ba08f'
I-709
I665
tbag7
(g8
g9
NtRp106
(I1
S'457fdaa3799308609a83df4b2fc438e4854130696eea2e1edf5b76d35efec6c3312ed6e605bee401a35b48005d89332211b74eb8780d5407042bb0ecf28eb77fa4f050fb39436c21f66792fa92678f073bc9fe9'
I-712
I667
tbag7
(g8
g9
NtRp107
(I0
S'7e2f88f37ac4088c137699894954997fcfc9d0fa9669a0152ad5df5456221d35f1b456d4b50641f5c5acb491840c591d5bd9a7129de02f7f319931d0f2926a11a13283947ff30707374b241ae8640fd2b3ebb1f'
I-713
I667
tbag7
(g8
g9
NtRp108
(I1
S'1c3057e681f25ac1d2e3d684461fcfbb0cbad43005cea5b4b72b4ee50acec67dca6876da022cb9b40be6e909bbafcfe5d6399be01c70fa4fed1cba97053caad7ef53ec8cf8654f3c8c50fdec00f91003c5bd5a5'
I-709
I665
tbag7
(g8
g9
NtRp109
(I0
S'44ab84fa3946c797bb2ad866dca5266365e763880e41f0083b5d19903bae0147a7018b4218bdcd0790b18e8c101f8f175ecd2b2830ad402ae3a1f14e55311a528e9cb8c104a8e44cf4433e2e0ed89ce81802e97'
I-710
I667
tbatb.